(dp1
S'f_disease'
p2
S'CHAR(512)'
p3
sS'f_rank'
p4
S'CHAR(512)'
p5
sS'created_on'
p6
S'TIMESTAMP'
p7
sS'f_docnos'
p8
S'CHAR(512)'
p9
sS'modified_on'
p10
S'TIMESTAMP'
p11
sS'f_freq'
p12
S'CHAR(512)'
p13
sS'active'
p14
S'CHAR(1)'
p15
sS'id'
p16
S'INTEGER PRIMARY KEY AUTOINCREMENT'
p17
s.