(dp1
S'output'
p2
S''
sS'layer'
p3
S'/home/www-data/web2py/applications/rdcdss/controllers/default.py'
p4
sS'code'
p5
S'# -*- coding: utf-8 -*- \n# this file is released under public domain and you can use without limitations\n\n#########################################################################\n## This is a samples controller\n## - index is the default action of any application\n## - user is required for authentication and authorization\n## - download is for downloading files uploaded in the db (does streaming)\n## - call exposes all registered services (none by default)\n#########################################################################\nimport os\nimport time\nimport hashlib\nimport cPickle\n\ndef index():\n    """\n    Test powerTable\n    """\n    RUNQUERYPATH = "../master/code/runQuery/"\n    session.data = {}\n    session.query = ""\n    logfile = open(\'logs/\'+str(response.session_id),\'a\')\n    logfile.write("SESSION: "+str(response.session_id)+"\\n")\n    logfile.write("TIME: "+time.strftime("%X %x %z")+"\\n")\n    db.t_resdis.truncate()\n    query = ""\n    collection = ""\n    diseases = ""\n    timer = ""\n    table = ""\n    distable = ""\n    if request.vars.q:\n        t0 = time.clock()\n        query = request.vars.q\n        checked = request.vars.c\n        os.system(\'pwd\')\n        if checked == "on":\n            hashstring = hashlib.md5(request.vars.q+"index_raregenet"+str(time.time())).hexdigest()\n            collection = "CHECKED"\n            os.system(\'sh \'+RUNQUERYPATH+\'runQueryDiseases.sh "\'+request.vars.q+\'" index_raregenet \'+hashstring)\n            diseases = "CHECKED"\n        else:\n            hashstring = hashlib.md5(request.vars.q+"index_rare"+str(time.time())).hexdigest()\n            collection = ""\n            os.system(\'sh \'+RUNQUERYPATH+\'runQueryDiseases.sh "\'+request.vars.q+\'" index_rare \'+hashstring)\n            diseases = "CHECKED"\n        db.t_resdis.truncate()\n        db.t_resdis.import_from_csv_file(open(os.getcwd()+\'/results/\'+hashstring+\'.dis\',\'r\'))\n        session.data["response"]={"query":query,"raregenet":checked, "session_id":response.session_id, "results":[]}\n        rows = []\n        for row in db().select(db.t_resdis.ALL):\n            session.data["response"]["results"].append({"rank":row.f_rank,"disease":row.f_disease,"score":row.f_freq,"docs":row.f_docnos})\n            rows.append(row)\n        session.hashstring = hashstring\n        session.query = query\n       \n        timer = time.clock() - t0\n        logfile.write("QUERY: "+query+"\\n")\n        logfile.write("GENETIC CHECKED: "+str(checked)+"\\n")\n        logfile.write("RESULT FILE: "+hashstring+"\\n")\n        logfile.write("SECONDS: "+str(timer)+"\\n")\n        logfile.close()\n        distable = createDiseaseTable(db.t_resdis)\n        #distable = SQLTABLE(db().select(db.t_resdis.f_rank,db.t_resdis.f_disease,db.t_resdis.f_freq,db.t_resdis.f_docnos),headers=\'labels\',truncate=80)\n        timer = str(timer)[:5] + " seconds"\n        print timer\n        session.data["response"]["timer"]=timer\n\n    return locals()\n    \ndef createResultTable(data):\n    class Virtual(object):\n        @virtualsettings(label=T(\'Source\'))\n        def sourcelink(self):\n            return A(self.t_result.f_source,_href=self.t_result.f_url,_target=\'_blank\')\n    \n    table = plugins.powerTable\n    table.datasource = data\n            \n    table.dtfeatures[\'sScrollY\'] = \'100%\'\n    table.virtualfields = Virtual()\n    table.dtfeatures[\'bSort\'] = False\n    table.dtfeatures[\'aaSortingFixed\'] = [[2,\'asc\']]\n    table.dtfeatures[\'iDisplayLength\'] = 20\n    table.dtfeatures[\'bPaginate\'] =  False\n    \n    table.truncate = 60 \n    table.headers = \'labels\'\n    table.keycolumn = \'t_result.id\'\n    table.showkeycolumn = False\n    table.extra = dict(\n                       details={\'detailscolumns\':\'t_result.f_title,t_result.f_url,t_result.f_snippet\',\'detailscallback\':URL(\'display_details.load\')}\n                       )\n    table.columns = [\'t_result.f_rank\',\n                     \'t_result.f_title\',\n                     \'virtual.sourcelink\',\n                     #\'t_result.f_source\',\n                     #\'t_result.f_docno\',\n                     #\'t_result.f_score\',\n                    ]\n    table.hiddencolumns = [\'t_result.f_source\',\'t_result.f_url\']\n    table.dtfeatures[\'bInfo\'] =  False\n    table.dtfeatures[\'bFilter\'] =  False\n    table.dtfeatures[\'bAutoWidth\'] =  False\n    table.dtfeatures[\'aoColumns\'] = [\n            { \'sWidth\': \'0%\' },\n            { \'sWidth\': \'5.5%\' },\n            { \'sWidth\': \'5.5%\' },\n            { \'sWidth\': \'55.5%\' },\n            { \'sWidth\': \'33.5%\' }\n        ]\n    return table.create()\n\ndef createDiseaseTable(data):\n    distable = plugins.powerTable\n    distable.datasource = data\n    \n    distable.dtfeatures[\'sScrollY\'] = \'100%\'\n    distable.dtfeatures[\'bSort\'] = False\n    distable.dtfeatures[\'aaSortingFixed\'] = [[2,\'asc\']]\n    distable.dtfeatures[\'iDisplayLength\'] = 20\n    distable.dtfeatures[\'bPaginate\'] =  False\n    distable.dtfeatures[\'bInfo\'] =  False\n    distable.dtfeatures[\'bFilter\'] =  False\n    \n    distable.truncate = 60 \n    distable.headers = \'labels\'\n    distable.keycolumn = \'t_resdis.id\'\n    distable.showkeycolumn = False\n    \n    distable.columns = [\'t_resdis.f_rank\',\n                     \'t_resdis.f_disease\',\n                     \'t_resdis.f_freq\',\n                     \'t_resdis.f_docnos\',\n                     ]\n                     \n    return distable.create()\n\ndef filterOnString(fs):\n        fs = fs.lower()\n        query = (db.t_result.f_title.lower().contains(fs) | db.t_result.f_snippet.lower().contains(fs) | db.t_result.f_source.lower().contains(fs) ) \n        return db(query).select()\n \ndef display_details():\n    """\n    return a custom object to be inserted in detail for table\n    """\n    key = None\n    cols = None\n    for k in request.vars.keys():\n        if k[:3] == \'dt_\':\n            key = request.vars[k]\n        elif k[:6] == \'dtcols\':\n            cols = request.vars[k]\n\n    value = int(key.split(\'.\')[2])\n    rows = cPickle.load(response.session_file)[\'data\']\n    row = rows[value-1]\n\n    logfile = open(\'logs/\'+str(response.session_id),\'a\')\n    logfile.write("OPENED DETAILS FOR RANK: "+str(value)+"\\n")\n    logfile.close()\n    \n    details = DIV(B("Title: "))\n    details.append(P(str(row[0])))\n    details.append(B("URL: "))\n    details.append(P(A(str(row[1]),_href=str(row[1]),_target=\'_blank\')))\n    details.append(B("Text: "))\n    details.append(P(str(row[2])))\n    return details\n\ndef feedback():\n    if request.vars.comment:\n        feedbackfile = open("logs/messages","a")\n        feedbackfile.write("SESSION: "+str(response.session_id)+"\\n")\n        feedbackfile.write("TIME: "+time.strftime("%X %x %z")+"\\n")\n        if session.query:\n            feedbackfile.write("QUERY: "+str(session.query)+"\\n")\n        if session.hashstring:\n            feedbackfile.write("RESULT FILE: "+str(session.hashstring)+"\\n")\n        else:\n            feedbackfile.write("RESULT FILE: "+"no recent queries"+"\\n")\n        if response.session_id:\n            feedbackfile.write("LOG FILE: "+str(response.session_id)+"\\n")\n        feedbackfile.write("COMMENT: \'"+str(request.vars.comment)+"\'\\n")\n        feedbackfile.close()\n        message="Feedback received. Thank you!"\n        return message\n    return ""\n\ndef filterResults():\n    fword = str(request.vars.values()[0])\n    data = filterOnString(fword)\n    table = createResultTable(data)\n    return str(table) + "<script>addFilterBox(\'"+str(fword)+"\');$(\'input#fword\').focus().val($(\'input#fword\').val());</script>"\n\ndef user():\n    """\n    exposes:\n    http://..../[app]/default/user/login \n    http://..../[app]/default/user/logout\n    http://..../[app]/default/user/register\n    http://..../[app]/default/user/profile\n    http://..../[app]/default/user/retrieve_password\n    http://..../[app]/default/user/change_password\n    use @auth.requires_login()\n        @auth.requires_membership(\'group name\')\n        @auth.requires_permission(\'read\',\'table name\',record_id)\n    to decorate functions that need access control\n    """\n    return dict(form=auth())\n\n\ndef download():\n    """\n    allows downloading of uploaded files\n    http://..../[app]/default/download/[filename]\n    """\n    return response.download(request,db)\n\n\ndef call():\n    """\n    exposes services. for example:\n    http://..../[app]/default/call/jsonrpc\n    decorate with @services.jsonrpc the functions to expose\n    supports xml, json, xmlrpc, jsonrpc, amfrpc, rss, csv\n    """\n    session.forget()\n    return service()\n\nresponse._vars=response._caller(index)\n'
p6
sS'snapshot'
p7
(dp8
S'exception'
p9
(dp10
S'__getslice__'
p11
S"<method-wrapper '__getslice__' of exceptions.IOError object>"
p12
sS'__str__'
p13
S"<method-wrapper '__str__' of exceptions.IOError object>"
p14
sS'__reduce__'
p15
S'<built-in method __reduce__ of exceptions.IOError object>'
p16
sS'__dict__'
p17
S'{}'
p18
sS'__sizeof__'
p19
S'<built-in method __sizeof__ of exceptions.IOError object>'
p20
sS'__init__'
p21
S"<method-wrapper '__init__' of exceptions.IOError object>"
p22
sS'__setattr__'
p23
S"<method-wrapper '__setattr__' of exceptions.IOError object>"
p24
sS'__reduce_ex__'
p25
S'<built-in method __reduce_ex__ of exceptions.IOError object>'
p26
sS'__new__'
p27
S'<built-in method __new__ of type object>'
p28
sS'errno'
p29
S'2'
sS'__format__'
p30
S'<built-in method __format__ of exceptions.IOError object>'
p31
sS'__class__'
p32
S"<type 'exceptions.IOError'>"
p33
sS'filename'
p34
S"'/home/www-data/web2py/results/b74fa88554d13dc39c5da7d455cf5c3d.dis'"
p35
sS'__doc__'
p36
S"'I/O operation failed.'"
p37
sS'__getitem__'
p38
S"<method-wrapper '__getitem__' of exceptions.IOError object>"
p39
sS'__setstate__'
p40
S'<built-in method __setstate__ of exceptions.IOError object>'
p41
sS'__getattribute__'
p42
S"<method-wrapper '__getattribute__' of exceptions.IOError object>"
p43
sS'args'
p44
S"(2, 'No such file or directory')"
p45
sS'__subclasshook__'
p46
S'<built-in method __subclasshook__ of type object>'
p47
sS'__unicode__'
p48
S'<built-in method __unicode__ of exceptions.IOError object>'
p49
sS'strerror'
p50
S"'No such file or directory'"
p51
sS'__delattr__'
p52
S"<method-wrapper '__delattr__' of exceptions.IOError object>"
p53
sS'__repr__'
p54
S"<method-wrapper '__repr__' of exceptions.IOError object>"
p55
sS'__hash__'
p56
S"<method-wrapper '__hash__' of exceptions.IOError object>"
p57
ssS'evalue'
p58
S"[Errno 2] No such file or directory: '/home/www-data/web2py/results/b74fa88554d13dc39c5da7d455cf5c3d.dis'"
p59
sS'request'
p60
ccopy_reg
_reconstructor
p61
(cgluon.html
BEAUTIFY
p62
c__builtin__
object
p63
NtRp64
(dp65
S'attributes'
p66
(dp67
sS'components'
p68
(lp69
g61
(cgluon.html
TABLE
p70
g63
NtRp71
(dp72
g66
(dp73
S'level'
p74
I5
ssS'parent'
p75
Nsg68
(lp76
g61
(cgluon.html
TR
p77
g63
NtRp78
(dp79
g66
(dp80
sg75
g71
sg68
(lp81
g61
(cgluon.html
TD
p82
g63
NtRp83
(dp84
g66
(dp85
S'_style'
p86
S'font-weight:bold;'
p87
ssg75
g78
sg68
(lp88
S'ajax'
p89
asbag61
(g82
g63
NtRp90
(dp91
g66
(dp92
S'_valign'
p93
S'top'
p94
ssg75
g78
sg68
(lp95
S':'
asbag61
(g82
g63
NtRp96
(dp97
g66
(dp98
sg75
g78
sg68
(lp99
g61
(g62
g63
NtRp100
(dp101
g66
(dp102
g74
I5
ssg75
g96
sg68
(lp103
S'False'
p104
asbasbasbag61
(g77
g63
NtRp105
(dp106
g66
(dp107
sg75
g71
sg68
(lp108
g61
(g82
g63
NtRp109
(dp110
g66
(dp111
g86
g87
ssg75
g105
sg68
(lp112
S'application'
p113
asbag61
(g82
g63
NtRp114
(dp115
g66
(dp116
g93
g94
ssg75
g105
sg68
(lp117
S':'
asbag61
(g82
g63
NtRp118
(dp119
g66
(dp120
sg75
g105
sg68
(lp121
g61
(g62
g63
NtRp122
(dp123
g66
(dp124
g74
I5
ssg75
g118
sg68
(lp125
S'rdcdss'
p126
asbasbasbag61
(g77
g63
NtRp127
(dp128
g66
(dp129
sg75
g71
sg68
(lp130
g61
(g82
g63
NtRp131
(dp132
g66
(dp133
g86
g87
ssg75
g127
sg68
(lp134
g44
asbag61
(g82
g63
NtRp135
(dp136
g66
(dp137
g93
g94
ssg75
g127
sg68
(lp138
S':'
asbag61
(g82
g63
NtRp139
(dp140
g66
(dp141
sg75
g127
sg68
(lp142
g61
(g62
g63
NtRp143
(dp144
g66
(dp145
g74
I5
ssg75
g139
sg68
(lp146
g61
(g70
g63
NtRp147
(dp148
g66
(dp149
g74
I4
ssg75
Nsg68
(lp150
sbasbasbasbag61
(g77
g63
NtRp151
(dp152
g66
(dp153
sg75
g71
sg68
(lp154
g61
(g82
g63
NtRp155
(dp156
g66
(dp157
g86
g87
ssg75
g151
sg68
(lp158
S'body'
p159
asbag61
(g82
g63
NtRp160
(dp161
g66
(dp162
g93
g94
ssg75
g151
sg68
(lp163
S':'
asbag61
(g82
g63
NtRp164
(dp165
g66
(dp166
sg75
g151
sg68
(lp167
g61
(g62
g63
NtRp168
(dp169
g66
(dp170
g74
I5
ssg75
g164
sg68
(lp171
S'<cStringIO.StringO object at 0x2b50bfc210d8>'
p172
asbasbasbag61
(g77
g63
NtRp173
(dp174
g66
(dp175
sg75
g71
sg68
(lp176
g61
(g82
g63
NtRp177
(dp178
g66
(dp179
g86
g87
ssg75
g173
sg68
(lp180
S'client'
p181
asbag61
(g82
g63
NtRp182
(dp183
g66
(dp184
g93
g94
ssg75
g173
sg68
(lp185
S':'
asbag61
(g82
g63
NtRp186
(dp187
g66
(dp188
sg75
g173
sg68
(lp189
g61
(g62
g63
NtRp190
(dp191
g66
(dp192
g74
I5
ssg75
g186
sg68
(lp193
S'89.123.39.111'
p194
asbasbasbag61
(g77
g63
NtRp195
(dp196
g66
(dp197
sg75
g71
sg68
(lp198
g61
(g82
g63
NtRp199
(dp200
g66
(dp201
g86
g87
ssg75
g195
sg68
(lp202
S'controller'
p203
asbag61
(g82
g63
NtRp204
(dp205
g66
(dp206
g93
g94
ssg75
g195
sg68
(lp207
S':'
asbag61
(g82
g63
NtRp208
(dp209
g66
(dp210
sg75
g195
sg68
(lp211
g61
(g62
g63
NtRp212
(dp213
g66
(dp214
g74
I5
ssg75
g208
sg68
(lp215
S'default'
p216
asbasbasbag61
(g77
g63
NtRp217
(dp218
g66
(dp219
sg75
g71
sg68
(lp220
g61
(g82
g63
NtRp221
(dp222
g66
(dp223
g86
g87
ssg75
g217
sg68
(lp224
S'cookies'
p225
asbag61
(g82
g63
NtRp226
(dp227
g66
(dp228
g93
g94
ssg75
g217
sg68
(lp229
S':'
asbag61
(g82
g63
NtRp230
(dp231
g66
(dp232
sg75
g217
sg68
(lp233
g61
(g62
g63
NtRp234
(dp235
g66
(dp236
g74
I5
ssg75
g230
sg68
(lp237
g61
(g70
g63
NtRp238
(dp239
g66
(dp240
g74
I4
ssg75
Nsg68
(lp241
g61
(g77
g63
NtRp242
(dp243
g66
(dp244
sg75
g238
sg68
(lp245
g61
(g82
g63
NtRp246
(dp247
g66
(dp248
g86
g87
ssg75
g242
sg68
(lp249
S'session_id_admin'
p250
asbag61
(g82
g63
NtRp251
(dp252
g66
(dp253
g93
g94
ssg75
g242
sg68
(lp254
S':'
asbag61
(g82
g63
NtRp255
(dp256
g66
(dp257
sg75
g242
sg68
(lp258
g61
(g62
g63
NtRp259
(dp260
g66
(dp261
g74
I4
ssg75
g255
sg68
(lp262
g61
(g70
g63
NtRp263
(dp264
g66
(dp265
g74
I3
ssg75
Nsg68
(lp266
g61
(g77
g63
NtRp267
(dp268
g66
(dp269
sg75
g263
sg68
(lp270
g61
(g82
g63
NtRp271
(dp272
g66
(dp273
g86
g87
ssg75
g267
sg68
(lp274
S'comment'
p275
asbag61
(g82
g63
NtRp276
(dp277
g66
(dp278
g93
g94
ssg75
g267
sg68
(lp279
S':'
asbag61
(g82
g63
NtRp280
(dp281
g66
(dp282
sg75
g267
sg68
(lp283
g61
(g62
g63
NtRp284
(dp285
g66
(dp286
g74
I3
ssg75
g280
sg68
(lp287
S''
asbasbasbag61
(g77
g63
NtRp288
(dp289
g66
(dp290
sg75
g263
sg68
(lp291
g61
(g82
g63
NtRp292
(dp293
g66
(dp294
g86
g87
ssg75
g288
sg68
(lp295
S'domain'
p296
asbag61
(g82
g63
NtRp297
(dp298
g66
(dp299
g93
g94
ssg75
g288
sg68
(lp300
S':'
asbag61
(g82
g63
NtRp301
(dp302
g66
(dp303
sg75
g288
sg68
(lp304
g61
(g62
g63
NtRp305
(dp306
g66
(dp307
g74
I3
ssg75
g301
sg68
(lp308
S''
asbasbasbag61
(g77
g63
NtRp309
(dp310
g66
(dp311
sg75
g263
sg68
(lp312
g61
(g82
g63
NtRp313
(dp314
g66
(dp315
g86
g87
ssg75
g309
sg68
(lp316
S'expires'
p317
asbag61
(g82
g63
NtRp318
(dp319
g66
(dp320
g93
g94
ssg75
g309
sg68
(lp321
S':'
asbag61
(g82
g63
NtRp322
(dp323
g66
(dp324
sg75
g309
sg68
(lp325
g61
(g62
g63
NtRp326
(dp327
g66
(dp328
g74
I3
ssg75
g322
sg68
(lp329
S''
asbasbasbag61
(g77
g63
NtRp330
(dp331
g66
(dp332
sg75
g263
sg68
(lp333
g61
(g82
g63
NtRp334
(dp335
g66
(dp336
g86
g87
ssg75
g330
sg68
(lp337
S'httponly'
p338
asbag61
(g82
g63
NtRp339
(dp340
g66
(dp341
g93
g94
ssg75
g330
sg68
(lp342
S':'
asbag61
(g82
g63
NtRp343
(dp344
g66
(dp345
sg75
g330
sg68
(lp346
g61
(g62
g63
NtRp347
(dp348
g66
(dp349
g74
I3
ssg75
g343
sg68
(lp350
S''
asbasbasbag61
(g77
g63
NtRp351
(dp352
g66
(dp353
sg75
g263
sg68
(lp354
g61
(g82
g63
NtRp355
(dp356
g66
(dp357
g86
g87
ssg75
g351
sg68
(lp358
S'max-age'
p359
asbag61
(g82
g63
NtRp360
(dp361
g66
(dp362
g93
g94
ssg75
g351
sg68
(lp363
S':'
asbag61
(g82
g63
NtRp364
(dp365
g66
(dp366
sg75
g351
sg68
(lp367
g61
(g62
g63
NtRp368
(dp369
g66
(dp370
g74
I3
ssg75
g364
sg68
(lp371
S''
asbasbasbag61
(g77
g63
NtRp372
(dp373
g66
(dp374
sg75
g263
sg68
(lp375
g61
(g82
g63
NtRp376
(dp377
g66
(dp378
g86
g87
ssg75
g372
sg68
(lp379
S'path'
p380
asbag61
(g82
g63
NtRp381
(dp382
g66
(dp383
g93
g94
ssg75
g372
sg68
(lp384
S':'
asbag61
(g82
g63
NtRp385
(dp386
g66
(dp387
sg75
g372
sg68
(lp388
g61
(g62
g63
NtRp389
(dp390
g66
(dp391
g74
I3
ssg75
g385
sg68
(lp392
S''
asbasbasbag61
(g77
g63
NtRp393
(dp394
g66
(dp395
sg75
g263
sg68
(lp396
g61
(g82
g63
NtRp397
(dp398
g66
(dp399
g86
g87
ssg75
g393
sg68
(lp400
S'secure'
p401
asbag61
(g82
g63
NtRp402
(dp403
g66
(dp404
g93
g94
ssg75
g393
sg68
(lp405
S':'
asbag61
(g82
g63
NtRp406
(dp407
g66
(dp408
sg75
g393
sg68
(lp409
g61
(g62
g63
NtRp410
(dp411
g66
(dp412
g74
I3
ssg75
g406
sg68
(lp413
S''
asbasbasbag61
(g77
g63
NtRp414
(dp415
g66
(dp416
sg75
g263
sg68
(lp417
g61
(g82
g63
NtRp418
(dp419
g66
(dp420
g86
g87
ssg75
g414
sg68
(lp421
S'version'
p422
asbag61
(g82
g63
NtRp423
(dp424
g66
(dp425
g93
g94
ssg75
g414
sg68
(lp426
S':'
asbag61
(g82
g63
NtRp427
(dp428
g66
(dp429
sg75
g414
sg68
(lp430
g61
(g62
g63
NtRp431
(dp432
g66
(dp433
g74
I3
ssg75
g427
sg68
(lp434
S''
asbasbasbasbasbasbasbag61
(g77
g63
NtRp435
(dp436
g66
(dp437
sg75
g238
sg68
(lp438
g61
(g82
g63
NtRp439
(dp440
g66
(dp441
g86
g87
ssg75
g435
sg68
(lp442
S'session_id_raredisss_devel'
p443
asbag61
(g82
g63
NtRp444
(dp445
g66
(dp446
g93
g94
ssg75
g435
sg68
(lp447
S':'
asbag61
(g82
g63
NtRp448
(dp449
g66
(dp450
sg75
g435
sg68
(lp451
g61
(g62
g63
NtRp452
(dp453
g66
(dp454
g74
I4
ssg75
g448
sg68
(lp455
g61
(g70
g63
NtRp456
(dp457
g66
(dp458
g74
I3
ssg75
Nsg68
(lp459
g61
(g77
g63
NtRp460
(dp461
g66
(dp462
sg75
g456
sg68
(lp463
g61
(g82
g63
NtRp464
(dp465
g66
(dp466
g86
g87
ssg75
g460
sg68
(lp467
g275
asbag61
(g82
g63
NtRp468
(dp469
g66
(dp470
g93
g94
ssg75
g460
sg68
(lp471
S':'
asbag61
(g82
g63
NtRp472
(dp473
g66
(dp474
sg75
g460
sg68
(lp475
g61
(g62
g63
NtRp476
(dp477
g66
(dp478
g74
I3
ssg75
g472
sg68
(lp479
S''
asbasbasbag61
(g77
g63
NtRp480
(dp481
g66
(dp482
sg75
g456
sg68
(lp483
g61
(g82
g63
NtRp484
(dp485
g66
(dp486
g86
g87
ssg75
g480
sg68
(lp487
g296
asbag61
(g82
g63
NtRp488
(dp489
g66
(dp490
g93
g94
ssg75
g480
sg68
(lp491
S':'
asbag61
(g82
g63
NtRp492
(dp493
g66
(dp494
sg75
g480
sg68
(lp495
g61
(g62
g63
NtRp496
(dp497
g66
(dp498
g74
I3
ssg75
g492
sg68
(lp499
S''
asbasbasbag61
(g77
g63
NtRp500
(dp501
g66
(dp502
sg75
g456
sg68
(lp503
g61
(g82
g63
NtRp504
(dp505
g66
(dp506
g86
g87
ssg75
g500
sg68
(lp507
g317
asbag61
(g82
g63
NtRp508
(dp509
g66
(dp510
g93
g94
ssg75
g500
sg68
(lp511
S':'
asbag61
(g82
g63
NtRp512
(dp513
g66
(dp514
sg75
g500
sg68
(lp515
g61
(g62
g63
NtRp516
(dp517
g66
(dp518
g74
I3
ssg75
g512
sg68
(lp519
S''
asbasbasbag61
(g77
g63
NtRp520
(dp521
g66
(dp522
sg75
g456
sg68
(lp523
g61
(g82
g63
NtRp524
(dp525
g66
(dp526
g86
g87
ssg75
g520
sg68
(lp527
g338
asbag61
(g82
g63
NtRp528
(dp529
g66
(dp530
g93
g94
ssg75
g520
sg68
(lp531
S':'
asbag61
(g82
g63
NtRp532
(dp533
g66
(dp534
sg75
g520
sg68
(lp535
g61
(g62
g63
NtRp536
(dp537
g66
(dp538
g74
I3
ssg75
g532
sg68
(lp539
S''
asbasbasbag61
(g77
g63
NtRp540
(dp541
g66
(dp542
sg75
g456
sg68
(lp543
g61
(g82
g63
NtRp544
(dp545
g66
(dp546
g86
g87
ssg75
g540
sg68
(lp547
g359
asbag61
(g82
g63
NtRp548
(dp549
g66
(dp550
g93
g94
ssg75
g540
sg68
(lp551
S':'
asbag61
(g82
g63
NtRp552
(dp553
g66
(dp554
sg75
g540
sg68
(lp555
g61
(g62
g63
NtRp556
(dp557
g66
(dp558
g74
I3
ssg75
g552
sg68
(lp559
S''
asbasbasbag61
(g77
g63
NtRp560
(dp561
g66
(dp562
sg75
g456
sg68
(lp563
g61
(g82
g63
NtRp564
(dp565
g66
(dp566
g86
g87
ssg75
g560
sg68
(lp567
g380
asbag61
(g82
g63
NtRp568
(dp569
g66
(dp570
g93
g94
ssg75
g560
sg68
(lp571
S':'
asbag61
(g82
g63
NtRp572
(dp573
g66
(dp574
sg75
g560
sg68
(lp575
g61
(g62
g63
NtRp576
(dp577
g66
(dp578
g74
I3
ssg75
g572
sg68
(lp579
S''
asbasbasbag61
(g77
g63
NtRp580
(dp581
g66
(dp582
sg75
g456
sg68
(lp583
g61
(g82
g63
NtRp584
(dp585
g66
(dp586
g86
g87
ssg75
g580
sg68
(lp587
g401
asbag61
(g82
g63
NtRp588
(dp589
g66
(dp590
g93
g94
ssg75
g580
sg68
(lp591
S':'
asbag61
(g82
g63
NtRp592
(dp593
g66
(dp594
sg75
g580
sg68
(lp595
g61
(g62
g63
NtRp596
(dp597
g66
(dp598
g74
I3
ssg75
g592
sg68
(lp599
S''
asbasbasbag61
(g77
g63
NtRp600
(dp601
g66
(dp602
sg75
g456
sg68
(lp603
g61
(g82
g63
NtRp604
(dp605
g66
(dp606
g86
g87
ssg75
g600
sg68
(lp607
g422
asbag61
(g82
g63
NtRp608
(dp609
g66
(dp610
g93
g94
ssg75
g600
sg68
(lp611
S':'
asbag61
(g82
g63
NtRp612
(dp613
g66
(dp614
sg75
g600
sg68
(lp615
g61
(g62
g63
NtRp616
(dp617
g66
(dp618
g74
I3
ssg75
g612
sg68
(lp619
S''
asbasbasbasbasbasbasbag61
(g77
g63
NtRp620
(dp621
g66
(dp622
sg75
g238
sg68
(lp623
g61
(g82
g63
NtRp624
(dp625
g66
(dp626
g86
g87
ssg75
g620
sg68
(lp627
S'session_id_raredisss_stable'
p628
asbag61
(g82
g63
NtRp629
(dp630
g66
(dp631
g93
g94
ssg75
g620
sg68
(lp632
S':'
asbag61
(g82
g63
NtRp633
(dp634
g66
(dp635
sg75
g620
sg68
(lp636
g61
(g62
g63
NtRp637
(dp638
g66
(dp639
g74
I4
ssg75
g633
sg68
(lp640
g61
(g70
g63
NtRp641
(dp642
g66
(dp643
g74
I3
ssg75
Nsg68
(lp644
g61
(g77
g63
NtRp645
(dp646
g66
(dp647
sg75
g641
sg68
(lp648
g61
(g82
g63
NtRp649
(dp650
g66
(dp651
g86
g87
ssg75
g645
sg68
(lp652
g275
asbag61
(g82
g63
NtRp653
(dp654
g66
(dp655
g93
g94
ssg75
g645
sg68
(lp656
S':'
asbag61
(g82
g63
NtRp657
(dp658
g66
(dp659
sg75
g645
sg68
(lp660
g61
(g62
g63
NtRp661
(dp662
g66
(dp663
g74
I3
ssg75
g657
sg68
(lp664
S''
asbasbasbag61
(g77
g63
NtRp665
(dp666
g66
(dp667
sg75
g641
sg68
(lp668
g61
(g82
g63
NtRp669
(dp670
g66
(dp671
g86
g87
ssg75
g665
sg68
(lp672
g296
asbag61
(g82
g63
NtRp673
(dp674
g66
(dp675
g93
g94
ssg75
g665
sg68
(lp676
S':'
asbag61
(g82
g63
NtRp677
(dp678
g66
(dp679
sg75
g665
sg68
(lp680
g61
(g62
g63
NtRp681
(dp682
g66
(dp683
g74
I3
ssg75
g677
sg68
(lp684
S''
asbasbasbag61
(g77
g63
NtRp685
(dp686
g66
(dp687
sg75
g641
sg68
(lp688
g61
(g82
g63
NtRp689
(dp690
g66
(dp691
g86
g87
ssg75
g685
sg68
(lp692
g317
asbag61
(g82
g63
NtRp693
(dp694
g66
(dp695
g93
g94
ssg75
g685
sg68
(lp696
S':'
asbag61
(g82
g63
NtRp697
(dp698
g66
(dp699
sg75
g685
sg68
(lp700
g61
(g62
g63
NtRp701
(dp702
g66
(dp703
g74
I3
ssg75
g697
sg68
(lp704
S''
asbasbasbag61
(g77
g63
NtRp705
(dp706
g66
(dp707
sg75
g641
sg68
(lp708
g61
(g82
g63
NtRp709
(dp710
g66
(dp711
g86
g87
ssg75
g705
sg68
(lp712
g338
asbag61
(g82
g63
NtRp713
(dp714
g66
(dp715
g93
g94
ssg75
g705
sg68
(lp716
S':'
asbag61
(g82
g63
NtRp717
(dp718
g66
(dp719
sg75
g705
sg68
(lp720
g61
(g62
g63
NtRp721
(dp722
g66
(dp723
g74
I3
ssg75
g717
sg68
(lp724
S''
asbasbasbag61
(g77
g63
NtRp725
(dp726
g66
(dp727
sg75
g641
sg68
(lp728
g61
(g82
g63
NtRp729
(dp730
g66
(dp731
g86
g87
ssg75
g725
sg68
(lp732
g359
asbag61
(g82
g63
NtRp733
(dp734
g66
(dp735
g93
g94
ssg75
g725
sg68
(lp736
S':'
asbag61
(g82
g63
NtRp737
(dp738
g66
(dp739
sg75
g725
sg68
(lp740
g61
(g62
g63
NtRp741
(dp742
g66
(dp743
g74
I3
ssg75
g737
sg68
(lp744
S''
asbasbasbag61
(g77
g63
NtRp745
(dp746
g66
(dp747
sg75
g641
sg68
(lp748
g61
(g82
g63
NtRp749
(dp750
g66
(dp751
g86
g87
ssg75
g745
sg68
(lp752
g380
asbag61
(g82
g63
NtRp753
(dp754
g66
(dp755
g93
g94
ssg75
g745
sg68
(lp756
S':'
asbag61
(g82
g63
NtRp757
(dp758
g66
(dp759
sg75
g745
sg68
(lp760
g61
(g62
g63
NtRp761
(dp762
g66
(dp763
g74
I3
ssg75
g757
sg68
(lp764
S''
asbasbasbag61
(g77
g63
NtRp765
(dp766
g66
(dp767
sg75
g641
sg68
(lp768
g61
(g82
g63
NtRp769
(dp770
g66
(dp771
g86
g87
ssg75
g765
sg68
(lp772
g401
asbag61
(g82
g63
NtRp773
(dp774
g66
(dp775
g93
g94
ssg75
g765
sg68
(lp776
S':'
asbag61
(g82
g63
NtRp777
(dp778
g66
(dp779
sg75
g765
sg68
(lp780
g61
(g62
g63
NtRp781
(dp782
g66
(dp783
g74
I3
ssg75
g777
sg68
(lp784
S''
asbasbasbag61
(g77
g63
NtRp785
(dp786
g66
(dp787
sg75
g641
sg68
(lp788
g61
(g82
g63
NtRp789
(dp790
g66
(dp791
g86
g87
ssg75
g785
sg68
(lp792
g422
asbag61
(g82
g63
NtRp793
(dp794
g66
(dp795
g93
g94
ssg75
g785
sg68
(lp796
S':'
asbag61
(g82
g63
NtRp797
(dp798
g66
(dp799
sg75
g785
sg68
(lp800
g61
(g62
g63
NtRp801
(dp802
g66
(dp803
g74
I3
ssg75
g797
sg68
(lp804
S''
asbasbasbasbasbasbasbag61
(g77
g63
NtRp805
(dp806
g66
(dp807
sg75
g238
sg68
(lp808
g61
(g82
g63
NtRp809
(dp810
g66
(dp811
g86
g87
ssg75
g805
sg68
(lp812
S'session_id_rdcdss'
p813
asbag61
(g82
g63
NtRp814
(dp815
g66
(dp816
g93
g94
ssg75
g805
sg68
(lp817
S':'
asbag61
(g82
g63
NtRp818
(dp819
g66
(dp820
sg75
g805
sg68
(lp821
g61
(g62
g63
NtRp822
(dp823
g66
(dp824
g74
I4
ssg75
g818
sg68
(lp825
g61
(g70
g63
NtRp826
(dp827
g66
(dp828
g74
I3
ssg75
Nsg68
(lp829
g61
(g77
g63
NtRp830
(dp831
g66
(dp832
sg75
g826
sg68
(lp833
g61
(g82
g63
NtRp834
(dp835
g66
(dp836
g86
g87
ssg75
g830
sg68
(lp837
g275
asbag61
(g82
g63
NtRp838
(dp839
g66
(dp840
g93
g94
ssg75
g830
sg68
(lp841
S':'
asbag61
(g82
g63
NtRp842
(dp843
g66
(dp844
sg75
g830
sg68
(lp845
g61
(g62
g63
NtRp846
(dp847
g66
(dp848
g74
I3
ssg75
g842
sg68
(lp849
S''
asbasbasbag61
(g77
g63
NtRp850
(dp851
g66
(dp852
sg75
g826
sg68
(lp853
g61
(g82
g63
NtRp854
(dp855
g66
(dp856
g86
g87
ssg75
g850
sg68
(lp857
g296
asbag61
(g82
g63
NtRp858
(dp859
g66
(dp860
g93
g94
ssg75
g850
sg68
(lp861
S':'
asbag61
(g82
g63
NtRp862
(dp863
g66
(dp864
sg75
g850
sg68
(lp865
g61
(g62
g63
NtRp866
(dp867
g66
(dp868
g74
I3
ssg75
g862
sg68
(lp869
S''
asbasbasbag61
(g77
g63
NtRp870
(dp871
g66
(dp872
sg75
g826
sg68
(lp873
g61
(g82
g63
NtRp874
(dp875
g66
(dp876
g86
g87
ssg75
g870
sg68
(lp877
g317
asbag61
(g82
g63
NtRp878
(dp879
g66
(dp880
g93
g94
ssg75
g870
sg68
(lp881
S':'
asbag61
(g82
g63
NtRp882
(dp883
g66
(dp884
sg75
g870
sg68
(lp885
g61
(g62
g63
NtRp886
(dp887
g66
(dp888
g74
I3
ssg75
g882
sg68
(lp889
S''
asbasbasbag61
(g77
g63
NtRp890
(dp891
g66
(dp892
sg75
g826
sg68
(lp893
g61
(g82
g63
NtRp894
(dp895
g66
(dp896
g86
g87
ssg75
g890
sg68
(lp897
g338
asbag61
(g82
g63
NtRp898
(dp899
g66
(dp900
g93
g94
ssg75
g890
sg68
(lp901
S':'
asbag61
(g82
g63
NtRp902
(dp903
g66
(dp904
sg75
g890
sg68
(lp905
g61
(g62
g63
NtRp906
(dp907
g66
(dp908
g74
I3
ssg75
g902
sg68
(lp909
S''
asbasbasbag61
(g77
g63
NtRp910
(dp911
g66
(dp912
sg75
g826
sg68
(lp913
g61
(g82
g63
NtRp914
(dp915
g66
(dp916
g86
g87
ssg75
g910
sg68
(lp917
g359
asbag61
(g82
g63
NtRp918
(dp919
g66
(dp920
g93
g94
ssg75
g910
sg68
(lp921
S':'
asbag61
(g82
g63
NtRp922
(dp923
g66
(dp924
sg75
g910
sg68
(lp925
g61
(g62
g63
NtRp926
(dp927
g66
(dp928
g74
I3
ssg75
g922
sg68
(lp929
S''
asbasbasbag61
(g77
g63
NtRp930
(dp931
g66
(dp932
sg75
g826
sg68
(lp933
g61
(g82
g63
NtRp934
(dp935
g66
(dp936
g86
g87
ssg75
g930
sg68
(lp937
g380
asbag61
(g82
g63
NtRp938
(dp939
g66
(dp940
g93
g94
ssg75
g930
sg68
(lp941
S':'
asbag61
(g82
g63
NtRp942
(dp943
g66
(dp944
sg75
g930
sg68
(lp945
g61
(g62
g63
NtRp946
(dp947
g66
(dp948
g74
I3
ssg75
g942
sg68
(lp949
S''
asbasbasbag61
(g77
g63
NtRp950
(dp951
g66
(dp952
sg75
g826
sg68
(lp953
g61
(g82
g63
NtRp954
(dp955
g66
(dp956
g86
g87
ssg75
g950
sg68
(lp957
g401
asbag61
(g82
g63
NtRp958
(dp959
g66
(dp960
g93
g94
ssg75
g950
sg68
(lp961
S':'
asbag61
(g82
g63
NtRp962
(dp963
g66
(dp964
sg75
g950
sg68
(lp965
g61
(g62
g63
NtRp966
(dp967
g66
(dp968
g74
I3
ssg75
g962
sg68
(lp969
S''
asbasbasbag61
(g77
g63
NtRp970
(dp971
g66
(dp972
sg75
g826
sg68
(lp973
g61
(g82
g63
NtRp974
(dp975
g66
(dp976
g86
g87
ssg75
g970
sg68
(lp977
g422
asbag61
(g82
g63
NtRp978
(dp979
g66
(dp980
g93
g94
ssg75
g970
sg68
(lp981
S':'
asbag61
(g82
g63
NtRp982
(dp983
g66
(dp984
sg75
g970
sg68
(lp985
g61
(g62
g63
NtRp986
(dp987
g66
(dp988
g74
I3
ssg75
g982
sg68
(lp989
S''
asbasbasbasbasbasbasbasbasbasbasbag61
(g77
g63
NtRp990
(dp991
g66
(dp992
sg75
g71
sg68
(lp993
g61
(g82
g63
NtRp994
(dp995
g66
(dp996
g86
g87
ssg75
g990
sg68
(lp997
S'env'
p998
asbag61
(g82
g63
NtRp999
(dp1000
g66
(dp1001
g93
g94
ssg75
g990
sg68
(lp1002
S':'
asbag61
(g82
g63
NtRp1003
(dp1004
g66
(dp1005
sg75
g990
sg68
(lp1006
g61
(g62
g63
NtRp1007
(dp1008
g66
(dp1009
g74
I5
ssg75
g1003
sg68
(lp1010
g61
(g70
g63
NtRp1011
(dp1012
g66
(dp1013
g74
I4
ssg75
Nsg68
(lp1014
g61
(g77
g63
NtRp1015
(dp1016
g66
(dp1017
sg75
g1011
sg68
(lp1018
g61
(g82
g63
NtRp1019
(dp1020
g66
(dp1021
g86
g87
ssg75
g1015
sg68
(lp1022
S'app_folders'
p1023
asbag61
(g82
g63
NtRp1024
(dp1025
g66
(dp1026
g93
g94
ssg75
g1015
sg68
(lp1027
S':'
asbag61
(g82
g63
NtRp1028
(dp1029
g66
(dp1030
sg75
g1015
sg68
(lp1031
g61
(g62
g63
NtRp1032
(dp1033
g66
(dp1034
g74
I4
ssg75
g1028
sg68
(lp1035
S"set(['/home/www-data/web2py/applications/RareDisSS_Stable/', '/home/www-data/web2py/applications/rdcdss/', '/home/www-data/web2py/applications/RareDisSS_Devel/', '/home/www-data/web2py/applications/examples/', '/home/www-data/web2py/applications/admin/'])"
p1036
asbasbasbag61
(g77
g63
NtRp1037
(dp1038
g66
(dp1039
sg75
g1011
sg68
(lp1040
g61
(g82
g63
NtRp1041
(dp1042
g66
(dp1043
g86
g87
ssg75
g1037
sg68
(lp1044
S'applications_parent'
p1045
asbag61
(g82
g63
NtRp1046
(dp1047
g66
(dp1048
g93
g94
ssg75
g1037
sg68
(lp1049
S':'
asbag61
(g82
g63
NtRp1050
(dp1051
g66
(dp1052
sg75
g1037
sg68
(lp1053
g61
(g62
g63
NtRp1054
(dp1055
g66
(dp1056
g74
I4
ssg75
g1050
sg68
(lp1057
S'/home/www-data/web2py'
p1058
asbasbasbag61
(g77
g63
NtRp1059
(dp1060
g66
(dp1061
sg75
g1011
sg68
(lp1062
g61
(g82
g63
NtRp1063
(dp1064
g66
(dp1065
g86
g87
ssg75
g1059
sg68
(lp1066
S'db_sessions'
p1067
asbag61
(g82
g63
NtRp1068
(dp1069
g66
(dp1070
g93
g94
ssg75
g1059
sg68
(lp1071
S':'
asbag61
(g82
g63
NtRp1072
(dp1073
g66
(dp1074
sg75
g1059
sg68
(lp1075
g61
(g62
g63
NtRp1076
(dp1077
g66
(dp1078
g74
I4
ssg75
g1072
sg68
(lp1079
S'set([])'
p1080
asbasbasbag61
(g77
g63
NtRp1081
(dp1082
g66
(dp1083
sg75
g1011
sg68
(lp1084
g61
(g82
g63
NtRp1085
(dp1086
g66
(dp1087
g86
g87
ssg75
g1081
sg68
(lp1088
S'debugging'
p1089
asbag61
(g82
g63
NtRp1090
(dp1091
g66
(dp1092
g93
g94
ssg75
g1081
sg68
(lp1093
S':'
asbag61
(g82
g63
NtRp1094
(dp1095
g66
(dp1096
sg75
g1081
sg68
(lp1097
g61
(g62
g63
NtRp1098
(dp1099
g66
(dp1100
g74
I4
ssg75
g1094
sg68
(lp1101
g104
asbasbasbag61
(g77
g63
NtRp1102
(dp1103
g66
(dp1104
sg75
g1011
sg68
(lp1105
g61
(g82
g63
NtRp1106
(dp1107
g66
(dp1108
g86
g87
ssg75
g1102
sg68
(lp1109
S'document_root'
p1110
asbag61
(g82
g63
NtRp1111
(dp1112
g66
(dp1113
g93
g94
ssg75
g1102
sg68
(lp1114
S':'
asbag61
(g82
g63
NtRp1115
(dp1116
g66
(dp1117
sg75
g1102
sg68
(lp1118
g61
(g62
g63
NtRp1119
(dp1120
g66
(dp1121
g74
I4
ssg75
g1115
sg68
(lp1122
S'/etc/apache2/htdocs'
p1123
asbasbasbag61
(g77
g63
NtRp1124
(dp1125
g66
(dp1126
sg75
g1011
sg68
(lp1127
g61
(g82
g63
NtRp1128
(dp1129
g66
(dp1130
g86
g87
ssg75
g1124
sg68
(lp1131
S'gateway_interface'
p1132
asbag61
(g82
g63
NtRp1133
(dp1134
g66
(dp1135
g93
g94
ssg75
g1124
sg68
(lp1136
S':'
asbag61
(g82
g63
NtRp1137
(dp1138
g66
(dp1139
sg75
g1124
sg68
(lp1140
g61
(g62
g63
NtRp1141
(dp1142
g66
(dp1143
g74
I4
ssg75
g1137
sg68
(lp1144
S'CGI/1.1'
p1145
asbasbasbag61
(g77
g63
NtRp1146
(dp1147
g66
(dp1148
sg75
g1011
sg68
(lp1149
g61
(g82
g63
NtRp1150
(dp1151
g66
(dp1152
g86
g87
ssg75
g1146
sg68
(lp1153
S'gluon_parent'
p1154
asbag61
(g82
g63
NtRp1155
(dp1156
g66
(dp1157
g93
g94
ssg75
g1146
sg68
(lp1158
S':'
asbag61
(g82
g63
NtRp1159
(dp1160
g66
(dp1161
sg75
g1146
sg68
(lp1162
g61
(g62
g63
NtRp1163
(dp1164
g66
(dp1165
g74
I4
ssg75
g1159
sg68
(lp1166
g1058
asbasbasbag61
(g77
g63
NtRp1167
(dp1168
g66
(dp1169
sg75
g1011
sg68
(lp1170
g61
(g82
g63
NtRp1171
(dp1172
g66
(dp1173
g86
g87
ssg75
g1167
sg68
(lp1174
S'http_accept'
p1175
asbag61
(g82
g63
NtRp1176
(dp1177
g66
(dp1178
g93
g94
ssg75
g1167
sg68
(lp1179
S':'
asbag61
(g82
g63
NtRp1180
(dp1181
g66
(dp1182
sg75
g1167
sg68
(lp1183
g61
(g62
g63
NtRp1184
(dp1185
g66
(dp1186
g74
I4
ssg75
g1180
sg68
(lp1187
S'text/html,application/xhtml+xml,application/xml;q=0.9,*/*;q=0.8'
p1188
asbasbasbag61
(g77
g63
NtRp1189
(dp1190
g66
(dp1191
sg75
g1011
sg68
(lp1192
g61
(g82
g63
NtRp1193
(dp1194
g66
(dp1195
g86
g87
ssg75
g1189
sg68
(lp1196
S'http_accept_charset'
p1197
asbag61
(g82
g63
NtRp1198
(dp1199
g66
(dp1200
g93
g94
ssg75
g1189
sg68
(lp1201
S':'
asbag61
(g82
g63
NtRp1202
(dp1203
g66
(dp1204
sg75
g1189
sg68
(lp1205
g61
(g62
g63
NtRp1206
(dp1207
g66
(dp1208
g74
I4
ssg75
g1202
sg68
(lp1209
S'ISO-8859-1,utf-8;q=0.7,*;q=0.3'
p1210
asbasbasbag61
(g77
g63
NtRp1211
(dp1212
g66
(dp1213
sg75
g1011
sg68
(lp1214
g61
(g82
g63
NtRp1215
(dp1216
g66
(dp1217
g86
g87
ssg75
g1211
sg68
(lp1218
S'http_accept_encoding'
p1219
asbag61
(g82
g63
NtRp1220
(dp1221
g66
(dp1222
g93
g94
ssg75
g1211
sg68
(lp1223
S':'
asbag61
(g82
g63
NtRp1224
(dp1225
g66
(dp1226
sg75
g1211
sg68
(lp1227
g61
(g62
g63
NtRp1228
(dp1229
g66
(dp1230
g74
I4
ssg75
g1224
sg68
(lp1231
S'gzip,deflate,sdch'
p1232
asbasbasbag61
(g77
g63
NtRp1233
(dp1234
g66
(dp1235
sg75
g1011
sg68
(lp1236
g61
(g82
g63
NtRp1237
(dp1238
g66
(dp1239
g86
g87
ssg75
g1233
sg68
(lp1240
S'http_accept_language'
p1241
asbag61
(g82
g63
NtRp1242
(dp1243
g66
(dp1244
g93
g94
ssg75
g1233
sg68
(lp1245
S':'
asbag61
(g82
g63
NtRp1246
(dp1247
g66
(dp1248
sg75
g1233
sg68
(lp1249
g61
(g62
g63
NtRp1250
(dp1251
g66
(dp1252
g74
I4
ssg75
g1246
sg68
(lp1253
S'en-US,en;q=0.8'
p1254
asbasbasbag61
(g77
g63
NtRp1255
(dp1256
g66
(dp1257
sg75
g1011
sg68
(lp1258
g61
(g82
g63
NtRp1259
(dp1260
g66
(dp1261
g86
g87
ssg75
g1255
sg68
(lp1262
S'http_connection'
p1263
asbag61
(g82
g63
NtRp1264
(dp1265
g66
(dp1266
g93
g94
ssg75
g1255
sg68
(lp1267
S':'
asbag61
(g82
g63
NtRp1268
(dp1269
g66
(dp1270
sg75
g1255
sg68
(lp1271
g61
(g62
g63
NtRp1272
(dp1273
g66
(dp1274
g74
I4
ssg75
g1268
sg68
(lp1275
S'keep-alive'
p1276
asbasbasbag61
(g77
g63
NtRp1277
(dp1278
g66
(dp1279
sg75
g1011
sg68
(lp1280
g61
(g82
g63
NtRp1281
(dp1282
g66
(dp1283
g86
g87
ssg75
g1277
sg68
(lp1284
S'http_cookie'
p1285
asbag61
(g82
g63
NtRp1286
(dp1287
g66
(dp1288
g93
g94
ssg75
g1277
sg68
(lp1289
S':'
asbag61
(g82
g63
NtRp1290
(dp1291
g66
(dp1292
sg75
g1277
sg68
(lp1293
g61
(g62
g63
NtRp1294
(dp1295
g66
(dp1296
g74
I4
ssg75
g1290
sg68
(lp1297
S'__utmz=123610009.1308848100.1.1.utmcsr=(direct)|utmccn=(direct)|utmcmd=(none); __utmz=231008458.1309612783.5.3.utmcsr=worldit.info|utmccn=(referral)|utmcmd=referral|utmcct=/articole/google-plus-primul-proiect-social-marca-google-de-la-a-la-z/; __utma=231008458.31146925.1301686846.1308821596.1309612783.5; session_id_raredisss_stable=89.123.39.111-b5474e3f-1e27-4a85-9029-f590c2fc56f7; __utma=123610009.1990170896.1308848100.1308848100.1309780245.2; __utmc=123610009; __utmb=123610009.2.10.1309780245; session_id_rdcdss=89.123.39.111-97c6888c-e310-48f9-83c5-3c554d897ae7; session_id_raredisss_devel=89.123.39.111-1424e64b-97a3-428f-b161-fe75c30bbad9; session_id_admin=89.123.39.111-ed9d9d9c-81f7-4a86-9bf9-fd597310a802'
p1298
asbasbasbag61
(g77
g63
NtRp1299
(dp1300
g66
(dp1301
sg75
g1011
sg68
(lp1302
g61
(g82
g63
NtRp1303
(dp1304
g66
(dp1305
g86
g87
ssg75
g1299
sg68
(lp1306
S'http_host'
p1307
asbag61
(g82
g63
NtRp1308
(dp1309
g66
(dp1310
g93
g94
ssg75
g1299
sg68
(lp1311
S':'
asbag61
(g82
g63
NtRp1312
(dp1313
g66
(dp1314
sg75
g1299
sg68
(lp1315
g61
(g62
g63
NtRp1316
(dp1317
g66
(dp1318
g74
I4
ssg75
g1312
sg68
(lp1319
S'costanza.dragusin.ro'
p1320
asbasbasbag61
(g77
g63
NtRp1321
(dp1322
g66
(dp1323
sg75
g1011
sg68
(lp1324
g61
(g82
g63
NtRp1325
(dp1326
g66
(dp1327
g86
g87
ssg75
g1321
sg68
(lp1328
S'http_user_agent'
p1329
asbag61
(g82
g63
NtRp1330
(dp1331
g66
(dp1332
g93
g94
ssg75
g1321
sg68
(lp1333
S':'
asbag61
(g82
g63
NtRp1334
(dp1335
g66
(dp1336
sg75
g1321
sg68
(lp1337
g61
(g62
g63
NtRp1338
(dp1339
g66
(dp1340
g74
I4
ssg75
g1334
sg68
(lp1341
S'Mozilla/5.0 (Macintosh; Intel Mac OS X 10_6_8) AppleWebKit/534.30 (KHTML, like Gecko) Chrome/12.0.742.112 Safari/534.30'
p1342
asbasbasbag61
(g77
g63
NtRp1343
(dp1344
g66
(dp1345
sg75
g1011
sg68
(lp1346
g61
(g82
g63
NtRp1347
(dp1348
g66
(dp1349
g86
g87
ssg75
g1343
sg68
(lp1350
S'https'
p1351
asbag61
(g82
g63
NtRp1352
(dp1353
g66
(dp1354
g93
g94
ssg75
g1343
sg68
(lp1355
S':'
asbag61
(g82
g63
NtRp1356
(dp1357
g66
(dp1358
sg75
g1343
sg68
(lp1359
g61
(g62
g63
NtRp1360
(dp1361
g66
(dp1362
g74
I4
ssg75
g1356
sg68
(lp1363
S'1'
asbasbasbag61
(g77
g63
NtRp1364
(dp1365
g66
(dp1366
sg75
g1011
sg68
(lp1367
g61
(g82
g63
NtRp1368
(dp1369
g66
(dp1370
g86
g87
ssg75
g1364
sg68
(lp1371
S'mod_wsgi_application_group'
p1372
asbag61
(g82
g63
NtRp1373
(dp1374
g66
(dp1375
g93
g94
ssg75
g1364
sg68
(lp1376
S':'
asbag61
(g82
g63
NtRp1377
(dp1378
g66
(dp1379
sg75
g1364
sg68
(lp1380
g61
(g62
g63
NtRp1381
(dp1382
g66
(dp1383
g74
I4
ssg75
g1377
sg68
(lp1384
S'109.169.46.204|'
p1385
asbasbasbag61
(g77
g63
NtRp1386
(dp1387
g66
(dp1388
sg75
g1011
sg68
(lp1389
g61
(g82
g63
NtRp1390
(dp1391
g66
(dp1392
g86
g87
ssg75
g1386
sg68
(lp1393
S'mod_wsgi_callable_object'
p1394
asbag61
(g82
g63
NtRp1395
(dp1396
g66
(dp1397
g93
g94
ssg75
g1386
sg68
(lp1398
S':'
asbag61
(g82
g63
NtRp1399
(dp1400
g66
(dp1401
sg75
g1386
sg68
(lp1402
g61
(g62
g63
NtRp1403
(dp1404
g66
(dp1405
g74
I4
ssg75
g1399
sg68
(lp1406
S'application'
p1407
asbasbasbag61
(g77
g63
NtRp1408
(dp1409
g66
(dp1410
sg75
g1011
sg68
(lp1411
g61
(g82
g63
NtRp1412
(dp1413
g66
(dp1414
g86
g87
ssg75
g1408
sg68
(lp1415
S'mod_wsgi_handler_script'
p1416
asbag61
(g82
g63
NtRp1417
(dp1418
g66
(dp1419
g93
g94
ssg75
g1408
sg68
(lp1420
S':'
asbag61
(g82
g63
NtRp1421
(dp1422
g66
(dp1423
sg75
g1408
sg68
(lp1424
g61
(g62
g63
NtRp1425
(dp1426
g66
(dp1427
g74
I4
ssg75
g1421
sg68
(lp1428
S''
asbasbasbag61
(g77
g63
NtRp1429
(dp1430
g66
(dp1431
sg75
g1011
sg68
(lp1432
g61
(g82
g63
NtRp1433
(dp1434
g66
(dp1435
g86
g87
ssg75
g1429
sg68
(lp1436
S'mod_wsgi_input_chunked'
p1437
asbag61
(g82
g63
NtRp1438
(dp1439
g66
(dp1440
g93
g94
ssg75
g1429
sg68
(lp1441
S':'
asbag61
(g82
g63
NtRp1442
(dp1443
g66
(dp1444
sg75
g1429
sg68
(lp1445
g61
(g62
g63
NtRp1446
(dp1447
g66
(dp1448
g74
I4
ssg75
g1442
sg68
(lp1449
S'0'
asbasbasbag61
(g77
g63
NtRp1450
(dp1451
g66
(dp1452
sg75
g1011
sg68
(lp1453
g61
(g82
g63
NtRp1454
(dp1455
g66
(dp1456
g86
g87
ssg75
g1450
sg68
(lp1457
S'mod_wsgi_listener_host'
p1458
asbag61
(g82
g63
NtRp1459
(dp1460
g66
(dp1461
g93
g94
ssg75
g1450
sg68
(lp1462
S':'
asbag61
(g82
g63
NtRp1463
(dp1464
g66
(dp1465
sg75
g1450
sg68
(lp1466
g61
(g62
g63
NtRp1467
(dp1468
g66
(dp1469
g74
I4
ssg75
g1463
sg68
(lp1470
S''
asbasbasbag61
(g77
g63
NtRp1471
(dp1472
g66
(dp1473
sg75
g1011
sg68
(lp1474
g61
(g82
g63
NtRp1475
(dp1476
g66
(dp1477
g86
g87
ssg75
g1471
sg68
(lp1478
S'mod_wsgi_listener_port'
p1479
asbag61
(g82
g63
NtRp1480
(dp1481
g66
(dp1482
g93
g94
ssg75
g1471
sg68
(lp1483
S':'
asbag61
(g82
g63
NtRp1484
(dp1485
g66
(dp1486
sg75
g1471
sg68
(lp1487
g61
(g62
g63
NtRp1488
(dp1489
g66
(dp1490
g74
I4
ssg75
g1484
sg68
(lp1491
S'443'
p1492
asbasbasbag61
(g77
g63
NtRp1493
(dp1494
g66
(dp1495
sg75
g1011
sg68
(lp1496
g61
(g82
g63
NtRp1497
(dp1498
g66
(dp1499
g86
g87
ssg75
g1493
sg68
(lp1500
S'mod_wsgi_process_group'
p1501
asbag61
(g82
g63
NtRp1502
(dp1503
g66
(dp1504
g93
g94
ssg75
g1493
sg68
(lp1505
S':'
asbag61
(g82
g63
NtRp1506
(dp1507
g66
(dp1508
sg75
g1493
sg68
(lp1509
g61
(g62
g63
NtRp1510
(dp1511
g66
(dp1512
g74
I4
ssg75
g1506
sg68
(lp1513
S'web2py'
p1514
asbasbasbag61
(g77
g63
NtRp1515
(dp1516
g66
(dp1517
sg75
g1011
sg68
(lp1518
g61
(g82
g63
NtRp1519
(dp1520
g66
(dp1521
g86
g87
ssg75
g1515
sg68
(lp1522
S'mod_wsgi_request_handler'
p1523
asbag61
(g82
g63
NtRp1524
(dp1525
g66
(dp1526
g93
g94
ssg75
g1515
sg68
(lp1527
S':'
asbag61
(g82
g63
NtRp1528
(dp1529
g66
(dp1530
sg75
g1515
sg68
(lp1531
g61
(g62
g63
NtRp1532
(dp1533
g66
(dp1534
g74
I4
ssg75
g1528
sg68
(lp1535
S'wsgi-script'
p1536
asbasbasbag61
(g77
g63
NtRp1537
(dp1538
g66
(dp1539
sg75
g1011
sg68
(lp1540
g61
(g82
g63
NtRp1541
(dp1542
g66
(dp1543
g86
g87
ssg75
g1537
sg68
(lp1544
S'mod_wsgi_script_reloading'
p1545
asbag61
(g82
g63
NtRp1546
(dp1547
g66
(dp1548
g93
g94
ssg75
g1537
sg68
(lp1549
S':'
asbag61
(g82
g63
NtRp1550
(dp1551
g66
(dp1552
sg75
g1537
sg68
(lp1553
g61
(g62
g63
NtRp1554
(dp1555
g66
(dp1556
g74
I4
ssg75
g1550
sg68
(lp1557
S'1'
asbasbasbag61
(g77
g63
NtRp1558
(dp1559
g66
(dp1560
sg75
g1011
sg68
(lp1561
g61
(g82
g63
NtRp1562
(dp1563
g66
(dp1564
g86
g87
ssg75
g1558
sg68
(lp1565
S'mod_wsgi_version'
p1566
asbag61
(g82
g63
NtRp1567
(dp1568
g66
(dp1569
g93
g94
ssg75
g1558
sg68
(lp1570
S':'
asbag61
(g82
g63
NtRp1571
(dp1572
g66
(dp1573
sg75
g1558
sg68
(lp1574
g61
(g62
g63
NtRp1575
(dp1576
g66
(dp1577
g74
I4
ssg75
g1571
sg68
(lp1578
g61
(g70
g63
NtRp1579
(dp1580
g66
(dp1581
g74
I3
ssg75
Nsg68
(lp1582
g61
(g77
g63
NtRp1583
(dp1584
g66
(dp1585
sg75
g1579
sg68
(lp1586
g61
(g82
g63
NtRp1587
(dp1588
g66
(dp1589
sg75
g1583
sg68
(lp1590
g61
(g62
g63
NtRp1591
(dp1592
g66
(dp1593
g74
I3
ssg75
g1587
sg68
(lp1594
S'3'
asbasbasbag61
(g77
g63
NtRp1595
(dp1596
g66
(dp1597
sg75
g1579
sg68
(lp1598
g61
(g82
g63
NtRp1599
(dp1600
g66
(dp1601
sg75
g1595
sg68
(lp1602
g61
(g62
g63
NtRp1603
(dp1604
g66
(dp1605
g74
I3
ssg75
g1599
sg68
(lp1606
S'2'
asbasbasbasbasbasbasbag61
(g77
g63
NtRp1607
(dp1608
g66
(dp1609
sg75
g1011
sg68
(lp1610
g61
(g82
g63
NtRp1611
(dp1612
g66
(dp1613
g86
g87
ssg75
g1607
sg68
(lp1614
S'path_info'
p1615
asbag61
(g82
g63
NtRp1616
(dp1617
g66
(dp1618
g93
g94
ssg75
g1607
sg68
(lp1619
S':'
asbag61
(g82
g63
NtRp1620
(dp1621
g66
(dp1622
sg75
g1607
sg68
(lp1623
g61
(g62
g63
NtRp1624
(dp1625
g66
(dp1626
g74
I4
ssg75
g1620
sg68
(lp1627
S'/rdcdss/default/index.xml'
p1628
asbasbasbag61
(g77
g63
NtRp1629
(dp1630
g66
(dp1631
sg75
g1011
sg68
(lp1632
g61
(g82
g63
NtRp1633
(dp1634
g66
(dp1635
g86
g87
ssg75
g1629
sg68
(lp1636
S'path_translated'
p1637
asbag61
(g82
g63
NtRp1638
(dp1639
g66
(dp1640
g93
g94
ssg75
g1629
sg68
(lp1641
S':'
asbag61
(g82
g63
NtRp1642
(dp1643
g66
(dp1644
sg75
g1629
sg68
(lp1645
g61
(g62
g63
NtRp1646
(dp1647
g66
(dp1648
g74
I4
ssg75
g1642
sg68
(lp1649
S'/home/www-data/web2py/wsgihandler.py/rdcdss/default/index.xml'
p1650
asbasbasbag61
(g77
g63
NtRp1651
(dp1652
g66
(dp1653
sg75
g1011
sg68
(lp1654
g61
(g82
g63
NtRp1655
(dp1656
g66
(dp1657
g86
g87
ssg75
g1651
sg68
(lp1658
S'query_string'
p1659
asbag61
(g82
g63
NtRp1660
(dp1661
g66
(dp1662
g93
g94
ssg75
g1651
sg68
(lp1663
S':'
asbag61
(g82
g63
NtRp1664
(dp1665
g66
(dp1666
sg75
g1651
sg68
(lp1667
g61
(g62
g63
NtRp1668
(dp1669
g66
(dp1670
g74
I4
ssg75
g1664
sg68
(lp1671
S'q=anemia'
p1672
asbasbasbag61
(g77
g63
NtRp1673
(dp1674
g66
(dp1675
sg75
g1011
sg68
(lp1676
g61
(g82
g63
NtRp1677
(dp1678
g66
(dp1679
g86
g87
ssg75
g1673
sg68
(lp1680
S'remote_addr'
p1681
asbag61
(g82
g63
NtRp1682
(dp1683
g66
(dp1684
g93
g94
ssg75
g1673
sg68
(lp1685
S':'
asbag61
(g82
g63
NtRp1686
(dp1687
g66
(dp1688
sg75
g1673
sg68
(lp1689
g61
(g62
g63
NtRp1690
(dp1691
g66
(dp1692
g74
I4
ssg75
g1686
sg68
(lp1693
g194
asbasbasbag61
(g77
g63
NtRp1694
(dp1695
g66
(dp1696
sg75
g1011
sg68
(lp1697
g61
(g82
g63
NtRp1698
(dp1699
g66
(dp1700
g86
g87
ssg75
g1694
sg68
(lp1701
S'remote_port'
p1702
asbag61
(g82
g63
NtRp1703
(dp1704
g66
(dp1705
g93
g94
ssg75
g1694
sg68
(lp1706
S':'
asbag61
(g82
g63
NtRp1707
(dp1708
g66
(dp1709
sg75
g1694
sg68
(lp1710
g61
(g62
g63
NtRp1711
(dp1712
g66
(dp1713
g74
I4
ssg75
g1707
sg68
(lp1714
S'63717'
p1715
asbasbasbag61
(g77
g63
NtRp1716
(dp1717
g66
(dp1718
sg75
g1011
sg68
(lp1719
g61
(g82
g63
NtRp1720
(dp1721
g66
(dp1722
g86
g87
ssg75
g1716
sg68
(lp1723
S'request_method'
p1724
asbag61
(g82
g63
NtRp1725
(dp1726
g66
(dp1727
g93
g94
ssg75
g1716
sg68
(lp1728
S':'
asbag61
(g82
g63
NtRp1729
(dp1730
g66
(dp1731
sg75
g1716
sg68
(lp1732
g61
(g62
g63
NtRp1733
(dp1734
g66
(dp1735
g74
I4
ssg75
g1729
sg68
(lp1736
S'GET'
p1737
asbasbasbag61
(g77
g63
NtRp1738
(dp1739
g66
(dp1740
sg75
g1011
sg68
(lp1741
g61
(g82
g63
NtRp1742
(dp1743
g66
(dp1744
g86
g87
ssg75
g1738
sg68
(lp1745
S'request_uri'
p1746
asbag61
(g82
g63
NtRp1747
(dp1748
g66
(dp1749
g93
g94
ssg75
g1738
sg68
(lp1750
S':'
asbag61
(g82
g63
NtRp1751
(dp1752
g66
(dp1753
sg75
g1738
sg68
(lp1754
g61
(g62
g63
NtRp1755
(dp1756
g66
(dp1757
g74
I4
ssg75
g1751
sg68
(lp1758
S'/rdcdss/default/index.xml?q=anemia'
p1759
asbasbasbag61
(g77
g63
NtRp1760
(dp1761
g66
(dp1762
sg75
g1011
sg68
(lp1763
g61
(g82
g63
NtRp1764
(dp1765
g66
(dp1766
g86
g87
ssg75
g1760
sg68
(lp1767
S'script_filename'
p1768
asbag61
(g82
g63
NtRp1769
(dp1770
g66
(dp1771
g93
g94
ssg75
g1760
sg68
(lp1772
S':'
asbag61
(g82
g63
NtRp1773
(dp1774
g66
(dp1775
sg75
g1760
sg68
(lp1776
g61
(g62
g63
NtRp1777
(dp1778
g66
(dp1779
g74
I4
ssg75
g1773
sg68
(lp1780
S'/home/www-data/web2py/wsgihandler.py'
p1781
asbasbasbag61
(g77
g63
NtRp1782
(dp1783
g66
(dp1784
sg75
g1011
sg68
(lp1785
g61
(g82
g63
NtRp1786
(dp1787
g66
(dp1788
g86
g87
ssg75
g1782
sg68
(lp1789
S'script_name'
p1790
asbag61
(g82
g63
NtRp1791
(dp1792
g66
(dp1793
g93
g94
ssg75
g1782
sg68
(lp1794
S':'
asbag61
(g82
g63
NtRp1795
(dp1796
g66
(dp1797
sg75
g1782
sg68
(lp1798
g61
(g62
g63
NtRp1799
(dp1800
g66
(dp1801
g74
I4
ssg75
g1795
sg68
(lp1802
S''
asbasbasbag61
(g77
g63
NtRp1803
(dp1804
g66
(dp1805
sg75
g1011
sg68
(lp1806
g61
(g82
g63
NtRp1807
(dp1808
g66
(dp1809
g86
g87
ssg75
g1803
sg68
(lp1810
S'server_addr'
p1811
asbag61
(g82
g63
NtRp1812
(dp1813
g66
(dp1814
g93
g94
ssg75
g1803
sg68
(lp1815
S':'
asbag61
(g82
g63
NtRp1816
(dp1817
g66
(dp1818
sg75
g1803
sg68
(lp1819
g61
(g62
g63
NtRp1820
(dp1821
g66
(dp1822
g74
I4
ssg75
g1816
sg68
(lp1823
S'109.169.46.204'
p1824
asbasbasbag61
(g77
g63
NtRp1825
(dp1826
g66
(dp1827
sg75
g1011
sg68
(lp1828
g61
(g82
g63
NtRp1829
(dp1830
g66
(dp1831
g86
g87
ssg75
g1825
sg68
(lp1832
S'server_admin'
p1833
asbag61
(g82
g63
NtRp1834
(dp1835
g66
(dp1836
g93
g94
ssg75
g1825
sg68
(lp1837
S':'
asbag61
(g82
g63
NtRp1838
(dp1839
g66
(dp1840
sg75
g1825
sg68
(lp1841
g61
(g62
g63
NtRp1842
(dp1843
g66
(dp1844
g74
I4
ssg75
g1838
sg68
(lp1845
S'[no address given]'
p1846
asbasbasbag61
(g77
g63
NtRp1847
(dp1848
g66
(dp1849
sg75
g1011
sg68
(lp1850
g61
(g82
g63
NtRp1851
(dp1852
g66
(dp1853
g86
g87
ssg75
g1847
sg68
(lp1854
S'server_name'
p1855
asbag61
(g82
g63
NtRp1856
(dp1857
g66
(dp1858
g93
g94
ssg75
g1847
sg68
(lp1859
S':'
asbag61
(g82
g63
NtRp1860
(dp1861
g66
(dp1862
sg75
g1847
sg68
(lp1863
g61
(g62
g63
NtRp1864
(dp1865
g66
(dp1866
g74
I4
ssg75
g1860
sg68
(lp1867
S'costanza.dragusin.ro'
p1868
asbasbasbag61
(g77
g63
NtRp1869
(dp1870
g66
(dp1871
sg75
g1011
sg68
(lp1872
g61
(g82
g63
NtRp1873
(dp1874
g66
(dp1875
g86
g87
ssg75
g1869
sg68
(lp1876
S'server_port'
p1877
asbag61
(g82
g63
NtRp1878
(dp1879
g66
(dp1880
g93
g94
ssg75
g1869
sg68
(lp1881
S':'
asbag61
(g82
g63
NtRp1882
(dp1883
g66
(dp1884
sg75
g1869
sg68
(lp1885
g61
(g62
g63
NtRp1886
(dp1887
g66
(dp1888
g74
I4
ssg75
g1882
sg68
(lp1889
S'443'
p1890
asbasbasbag61
(g77
g63
NtRp1891
(dp1892
g66
(dp1893
sg75
g1011
sg68
(lp1894
g61
(g82
g63
NtRp1895
(dp1896
g66
(dp1897
g86
g87
ssg75
g1891
sg68
(lp1898
S'server_protocol'
p1899
asbag61
(g82
g63
NtRp1900
(dp1901
g66
(dp1902
g93
g94
ssg75
g1891
sg68
(lp1903
S':'
asbag61
(g82
g63
NtRp1904
(dp1905
g66
(dp1906
sg75
g1891
sg68
(lp1907
g61
(g62
g63
NtRp1908
(dp1909
g66
(dp1910
g74
I4
ssg75
g1904
sg68
(lp1911
S'HTTP/1.1'
p1912
asbasbasbag61
(g77
g63
NtRp1913
(dp1914
g66
(dp1915
sg75
g1011
sg68
(lp1916
g61
(g82
g63
NtRp1917
(dp1918
g66
(dp1919
g86
g87
ssg75
g1913
sg68
(lp1920
S'server_signature'
p1921
asbag61
(g82
g63
NtRp1922
(dp1923
g66
(dp1924
g93
g94
ssg75
g1913
sg68
(lp1925
S':'
asbag61
(g82
g63
NtRp1926
(dp1927
g66
(dp1928
sg75
g1913
sg68
(lp1929
g61
(g62
g63
NtRp1930
(dp1931
g66
(dp1932
g74
I4
ssg75
g1926
sg68
(lp1933
S'<address>Apache/2.2.16 (Ubuntu) Server at costanza.dragusin.ro Port 443</address>\n'
p1934
asbasbasbag61
(g77
g63
NtRp1935
(dp1936
g66
(dp1937
sg75
g1011
sg68
(lp1938
g61
(g82
g63
NtRp1939
(dp1940
g66
(dp1941
g86
g87
ssg75
g1935
sg68
(lp1942
S'server_software'
p1943
asbag61
(g82
g63
NtRp1944
(dp1945
g66
(dp1946
g93
g94
ssg75
g1935
sg68
(lp1947
S':'
asbag61
(g82
g63
NtRp1948
(dp1949
g66
(dp1950
sg75
g1935
sg68
(lp1951
g61
(g62
g63
NtRp1952
(dp1953
g66
(dp1954
g74
I4
ssg75
g1948
sg68
(lp1955
S'Apache/2.2.16 (Ubuntu)'
p1956
asbasbasbag61
(g77
g63
NtRp1957
(dp1958
g66
(dp1959
sg75
g1011
sg68
(lp1960
g61
(g82
g63
NtRp1961
(dp1962
g66
(dp1963
g86
g87
ssg75
g1957
sg68
(lp1964
S'ssl_tls_sni'
p1965
asbag61
(g82
g63
NtRp1966
(dp1967
g66
(dp1968
g93
g94
ssg75
g1957
sg68
(lp1969
S':'
asbag61
(g82
g63
NtRp1970
(dp1971
g66
(dp1972
sg75
g1957
sg68
(lp1973
g61
(g62
g63
NtRp1974
(dp1975
g66
(dp1976
g74
I4
ssg75
g1970
sg68
(lp1977
S'costanza.dragusin.ro'
p1978
asbasbasbag61
(g77
g63
NtRp1979
(dp1980
g66
(dp1981
sg75
g1011
sg68
(lp1982
g61
(g82
g63
NtRp1983
(dp1984
g66
(dp1985
g86
g87
ssg75
g1979
sg68
(lp1986
S'web2py_path'
p1987
asbag61
(g82
g63
NtRp1988
(dp1989
g66
(dp1990
g93
g94
ssg75
g1979
sg68
(lp1991
S':'
asbag61
(g82
g63
NtRp1992
(dp1993
g66
(dp1994
sg75
g1979
sg68
(lp1995
g61
(g62
g63
NtRp1996
(dp1997
g66
(dp1998
g74
I4
ssg75
g1992
sg68
(lp1999
g1058
asbasbasbag61
(g77
g63
NtRp2000
(dp2001
g66
(dp2002
sg75
g1011
sg68
(lp2003
g61
(g82
g63
NtRp2004
(dp2005
g66
(dp2006
g86
g87
ssg75
g2000
sg68
(lp2007
S'web2py_version'
p2008
asbag61
(g82
g63
NtRp2009
(dp2010
g66
(dp2011
g93
g94
ssg75
g2000
sg68
(lp2012
S':'
asbag61
(g82
g63
NtRp2013
(dp2014
g66
(dp2015
sg75
g2000
sg68
(lp2016
g61
(g62
g63
NtRp2017
(dp2018
g66
(dp2019
g74
I4
ssg75
g2013
sg68
(lp2020
S'Version 1.95.1 (2011-04-25 15:04:14)\n'
p2021
asbasbasbag61
(g77
g63
NtRp2022
(dp2023
g66
(dp2024
sg75
g1011
sg68
(lp2025
g61
(g82
g63
NtRp2026
(dp2027
g66
(dp2028
g86
g87
ssg75
g2022
sg68
(lp2029
S'wsgi_errors'
p2030
asbag61
(g82
g63
NtRp2031
(dp2032
g66
(dp2033
g93
g94
ssg75
g2022
sg68
(lp2034
S':'
asbag61
(g82
g63
NtRp2035
(dp2036
g66
(dp2037
sg75
g2022
sg68
(lp2038
g61
(g62
g63
NtRp2039
(dp2040
g66
(dp2041
g74
I4
ssg75
g2035
sg68
(lp2042
S'<mod_wsgi.Log object at 0x2b50bfdc7db0>'
p2043
asbasbasbag61
(g77
g63
NtRp2044
(dp2045
g66
(dp2046
sg75
g1011
sg68
(lp2047
g61
(g82
g63
NtRp2048
(dp2049
g66
(dp2050
g86
g87
ssg75
g2044
sg68
(lp2051
S'wsgi_file_wrapper'
p2052
asbag61
(g82
g63
NtRp2053
(dp2054
g66
(dp2055
g93
g94
ssg75
g2044
sg68
(lp2056
S':'
asbag61
(g82
g63
NtRp2057
(dp2058
g66
(dp2059
sg75
g2044
sg68
(lp2060
g61
(g62
g63
NtRp2061
(dp2062
g66
(dp2063
g74
I4
ssg75
g2057
sg68
(lp2064
S'<built-in method file_wrapper of mod_wsgi.Adapter object at 0x2b50bf4bec60>'
p2065
asbasbasbag61
(g77
g63
NtRp2066
(dp2067
g66
(dp2068
sg75
g1011
sg68
(lp2069
g61
(g82
g63
NtRp2070
(dp2071
g66
(dp2072
g86
g87
ssg75
g2066
sg68
(lp2073
S'wsgi_input'
p2074
asbag61
(g82
g63
NtRp2075
(dp2076
g66
(dp2077
g93
g94
ssg75
g2066
sg68
(lp2078
S':'
asbag61
(g82
g63
NtRp2079
(dp2080
g66
(dp2081
sg75
g2066
sg68
(lp2082
g61
(g62
g63
NtRp2083
(dp2084
g66
(dp2085
g74
I4
ssg75
g2079
sg68
(lp2086
S'<mod_wsgi.Input object at 0x2b50bfd0fb30>'
p2087
asbasbasbag61
(g77
g63
NtRp2088
(dp2089
g66
(dp2090
sg75
g1011
sg68
(lp2091
g61
(g82
g63
NtRp2092
(dp2093
g66
(dp2094
g86
g87
ssg75
g2088
sg68
(lp2095
S'wsgi_multiprocess'
p2096
asbag61
(g82
g63
NtRp2097
(dp2098
g66
(dp2099
g93
g94
ssg75
g2088
sg68
(lp2100
S':'
asbag61
(g82
g63
NtRp2101
(dp2102
g66
(dp2103
sg75
g2088
sg68
(lp2104
g61
(g62
g63
NtRp2105
(dp2106
g66
(dp2107
g74
I4
ssg75
g2101
sg68
(lp2108
g104
asbasbasbag61
(g77
g63
NtRp2109
(dp2110
g66
(dp2111
sg75
g1011
sg68
(lp2112
g61
(g82
g63
NtRp2113
(dp2114
g66
(dp2115
g86
g87
ssg75
g2109
sg68
(lp2116
S'wsgi_multithread'
p2117
asbag61
(g82
g63
NtRp2118
(dp2119
g66
(dp2120
g93
g94
ssg75
g2109
sg68
(lp2121
S':'
asbag61
(g82
g63
NtRp2122
(dp2123
g66
(dp2124
sg75
g2109
sg68
(lp2125
g61
(g62
g63
NtRp2126
(dp2127
g66
(dp2128
g74
I4
ssg75
g2122
sg68
(lp2129
S'True'
p2130
asbasbasbag61
(g77
g63
NtRp2131
(dp2132
g66
(dp2133
sg75
g1011
sg68
(lp2134
g61
(g82
g63
NtRp2135
(dp2136
g66
(dp2137
g86
g87
ssg75
g2131
sg68
(lp2138
S'wsgi_run_once'
p2139
asbag61
(g82
g63
NtRp2140
(dp2141
g66
(dp2142
g93
g94
ssg75
g2131
sg68
(lp2143
S':'
asbag61
(g82
g63
NtRp2144
(dp2145
g66
(dp2146
sg75
g2131
sg68
(lp2147
g61
(g62
g63
NtRp2148
(dp2149
g66
(dp2150
g74
I4
ssg75
g2144
sg68
(lp2151
g104
asbasbasbag61
(g77
g63
NtRp2152
(dp2153
g66
(dp2154
sg75
g1011
sg68
(lp2155
g61
(g82
g63
NtRp2156
(dp2157
g66
(dp2158
g86
g87
ssg75
g2152
sg68
(lp2159
S'wsgi_url_scheme'
p2160
asbag61
(g82
g63
NtRp2161
(dp2162
g66
(dp2163
g93
g94
ssg75
g2152
sg68
(lp2164
S':'
asbag61
(g82
g63
NtRp2165
(dp2166
g66
(dp2167
sg75
g2152
sg68
(lp2168
g61
(g62
g63
NtRp2169
(dp2170
g66
(dp2171
g74
I4
ssg75
g2165
sg68
(lp2172
S'https'
p2173
asbasbasbag61
(g77
g63
NtRp2174
(dp2175
g66
(dp2176
sg75
g1011
sg68
(lp2177
g61
(g82
g63
NtRp2178
(dp2179
g66
(dp2180
g86
g87
ssg75
g2174
sg68
(lp2181
S'wsgi_version'
p2182
asbag61
(g82
g63
NtRp2183
(dp2184
g66
(dp2185
g93
g94
ssg75
g2174
sg68
(lp2186
S':'
asbag61
(g82
g63
NtRp2187
(dp2188
g66
(dp2189
sg75
g2174
sg68
(lp2190
g61
(g62
g63
NtRp2191
(dp2192
g66
(dp2193
g74
I4
ssg75
g2187
sg68
(lp2194
g61
(g70
g63
NtRp2195
(dp2196
g66
(dp2197
g74
I3
ssg75
Nsg68
(lp2198
g61
(g77
g63
NtRp2199
(dp2200
g66
(dp2201
sg75
g2195
sg68
(lp2202
g61
(g82
g63
NtRp2203
(dp2204
g66
(dp2205
sg75
g2199
sg68
(lp2206
g61
(g62
g63
NtRp2207
(dp2208
g66
(dp2209
g74
I3
ssg75
g2203
sg68
(lp2210
S'1'
asbasbasbag61
(g77
g63
NtRp2211
(dp2212
g66
(dp2213
sg75
g2195
sg68
(lp2214
g61
(g82
g63
NtRp2215
(dp2216
g66
(dp2217
sg75
g2211
sg68
(lp2218
g61
(g62
g63
NtRp2219
(dp2220
g66
(dp2221
g74
I3
ssg75
g2215
sg68
(lp2222
S'1'
asbasbasbasbasbasbasbasbasbasbasbag61
(g77
g63
NtRp2223
(dp2224
g66
(dp2225
sg75
g71
sg68
(lp2226
g61
(g82
g63
NtRp2227
(dp2228
g66
(dp2229
g86
g87
ssg75
g2223
sg68
(lp2230
S'extension'
p2231
asbag61
(g82
g63
NtRp2232
(dp2233
g66
(dp2234
g93
g94
ssg75
g2223
sg68
(lp2235
S':'
asbag61
(g82
g63
NtRp2236
(dp2237
g66
(dp2238
sg75
g2223
sg68
(lp2239
g61
(g62
g63
NtRp2240
(dp2241
g66
(dp2242
g74
I5
ssg75
g2236
sg68
(lp2243
S'xml'
p2244
asbasbasbag61
(g77
g63
NtRp2245
(dp2246
g66
(dp2247
sg75
g71
sg68
(lp2248
g61
(g82
g63
NtRp2249
(dp2250
g66
(dp2251
g86
g87
ssg75
g2245
sg68
(lp2252
S'folder'
p2253
asbag61
(g82
g63
NtRp2254
(dp2255
g66
(dp2256
g93
g94
ssg75
g2245
sg68
(lp2257
S':'
asbag61
(g82
g63
NtRp2258
(dp2259
g66
(dp2260
sg75
g2245
sg68
(lp2261
g61
(g62
g63
NtRp2262
(dp2263
g66
(dp2264
g74
I5
ssg75
g2258
sg68
(lp2265
S'/home/www-data/web2py/applications/rdcdss/'
p2266
asbasbasbag61
(g77
g63
NtRp2267
(dp2268
g66
(dp2269
sg75
g71
sg68
(lp2270
g61
(g82
g63
NtRp2271
(dp2272
g66
(dp2273
g86
g87
ssg75
g2267
sg68
(lp2274
S'function'
p2275
asbag61
(g82
g63
NtRp2276
(dp2277
g66
(dp2278
g93
g94
ssg75
g2267
sg68
(lp2279
S':'
asbag61
(g82
g63
NtRp2280
(dp2281
g66
(dp2282
sg75
g2267
sg68
(lp2283
g61
(g62
g63
NtRp2284
(dp2285
g66
(dp2286
g74
I5
ssg75
g2280
sg68
(lp2287
S'index'
p2288
asbasbasbag61
(g77
g63
NtRp2289
(dp2290
g66
(dp2291
sg75
g71
sg68
(lp2292
g61
(g82
g63
NtRp2293
(dp2294
g66
(dp2295
g86
g87
ssg75
g2289
sg68
(lp2296
S'get_vars'
p2297
asbag61
(g82
g63
NtRp2298
(dp2299
g66
(dp2300
g93
g94
ssg75
g2289
sg68
(lp2301
S':'
asbag61
(g82
g63
NtRp2302
(dp2303
g66
(dp2304
sg75
g2289
sg68
(lp2305
g61
(g62
g63
NtRp2306
(dp2307
g66
(dp2308
g74
I5
ssg75
g2302
sg68
(lp2309
g61
(g70
g63
NtRp2310
(dp2311
g66
(dp2312
g74
I4
ssg75
Nsg68
(lp2313
g61
(g77
g63
NtRp2314
(dp2315
g66
(dp2316
sg75
g2310
sg68
(lp2317
g61
(g82
g63
NtRp2318
(dp2319
g66
(dp2320
g86
g87
ssg75
g2314
sg68
(lp2321
S'q'
asbag61
(g82
g63
NtRp2322
(dp2323
g66
(dp2324
g93
g94
ssg75
g2314
sg68
(lp2325
S':'
asbag61
(g82
g63
NtRp2326
(dp2327
g66
(dp2328
sg75
g2314
sg68
(lp2329
g61
(g62
g63
NtRp2330
(dp2331
g66
(dp2332
g74
I4
ssg75
g2326
sg68
(lp2333
S'anemia'
p2334
asbasbasbasbasbasbasbag61
(g77
g63
NtRp2335
(dp2336
g66
(dp2337
sg75
g71
sg68
(lp2338
g61
(g82
g63
NtRp2339
(dp2340
g66
(dp2341
g86
g87
ssg75
g2335
sg68
(lp2342
S'is_restful'
p2343
asbag61
(g82
g63
NtRp2344
(dp2345
g66
(dp2346
g93
g94
ssg75
g2335
sg68
(lp2347
S':'
asbag61
(g82
g63
NtRp2348
(dp2349
g66
(dp2350
sg75
g2335
sg68
(lp2351
g61
(g62
g63
NtRp2352
(dp2353
g66
(dp2354
g74
I5
ssg75
g2348
sg68
(lp2355
g104
asbasbasbag61
(g77
g63
NtRp2356
(dp2357
g66
(dp2358
sg75
g71
sg68
(lp2359
g61
(g82
g63
NtRp2360
(dp2361
g66
(dp2362
g86
g87
ssg75
g2356
sg68
(lp2363
S'now'
p2364
asbag61
(g82
g63
NtRp2365
(dp2366
g66
(dp2367
g93
g94
ssg75
g2356
sg68
(lp2368
S':'
asbag61
(g82
g63
NtRp2369
(dp2370
g66
(dp2371
sg75
g2356
sg68
(lp2372
g61
(g62
g63
NtRp2373
(dp2374
g66
(dp2375
g74
I5
ssg75
g2369
sg68
(lp2376
S'datetime.datetime(2011, 7, 4, 16, 0, 55, 499024)'
p2377
asbasbasbag61
(g77
g63
NtRp2378
(dp2379
g66
(dp2380
sg75
g71
sg68
(lp2381
g61
(g82
g63
NtRp2382
(dp2383
g66
(dp2384
g86
g87
ssg75
g2378
sg68
(lp2385
S'post_vars'
p2386
asbag61
(g82
g63
NtRp2387
(dp2388
g66
(dp2389
g93
g94
ssg75
g2378
sg68
(lp2390
S':'
asbag61
(g82
g63
NtRp2391
(dp2392
g66
(dp2393
sg75
g2378
sg68
(lp2394
g61
(g62
g63
NtRp2395
(dp2396
g66
(dp2397
g74
I5
ssg75
g2391
sg68
(lp2398
g61
(g70
g63
NtRp2399
(dp2400
g66
(dp2401
g74
I4
ssg75
Nsg68
(lp2402
sbasbasbasbag61
(g77
g63
NtRp2403
(dp2404
g66
(dp2405
sg75
g71
sg68
(lp2406
g61
(g82
g63
NtRp2407
(dp2408
g66
(dp2409
g86
g87
ssg75
g2403
sg68
(lp2410
S'raw_extension'
p2411
asbag61
(g82
g63
NtRp2412
(dp2413
g66
(dp2414
g93
g94
ssg75
g2403
sg68
(lp2415
S':'
asbag61
(g82
g63
NtRp2416
(dp2417
g66
(dp2418
sg75
g2403
sg68
(lp2419
g61
(g62
g63
NtRp2420
(dp2421
g66
(dp2422
g74
I5
ssg75
g2416
sg68
(lp2423
g2244
asbasbasbag61
(g77
g63
NtRp2424
(dp2425
g66
(dp2426
sg75
g71
sg68
(lp2427
g61
(g82
g63
NtRp2428
(dp2429
g66
(dp2430
g86
g87
ssg75
g2424
sg68
(lp2431
S'url'
p2432
asbag61
(g82
g63
NtRp2433
(dp2434
g66
(dp2435
g93
g94
ssg75
g2424
sg68
(lp2436
S':'
asbag61
(g82
g63
NtRp2437
(dp2438
g66
(dp2439
sg75
g2424
sg68
(lp2440
g61
(g62
g63
NtRp2441
(dp2442
g66
(dp2443
g74
I5
ssg75
g2437
sg68
(lp2444
S'/rdcdss/default/index.xml'
p2445
asbasbasbag61
(g77
g63
NtRp2446
(dp2447
g66
(dp2448
sg75
g71
sg68
(lp2449
g61
(g82
g63
NtRp2450
(dp2451
g66
(dp2452
g86
g87
ssg75
g2446
sg68
(lp2453
S'uuid'
p2454
asbag61
(g82
g63
NtRp2455
(dp2456
g66
(dp2457
g93
g94
ssg75
g2446
sg68
(lp2458
S':'
asbag61
(g82
g63
NtRp2459
(dp2460
g66
(dp2461
sg75
g2446
sg68
(lp2462
g61
(g62
g63
NtRp2463
(dp2464
g66
(dp2465
g74
I5
ssg75
g2459
sg68
(lp2466
S'rdcdss/89.123.39.111.2011-07-04.16-00-55.f42b328b-2676-4b4f-80e0-4b73fa4a4896'
p2467
asbasbasbag61
(g77
g63
NtRp2468
(dp2469
g66
(dp2470
sg75
g71
sg68
(lp2471
g61
(g82
g63
NtRp2472
(dp2473
g66
(dp2474
g86
g87
ssg75
g2468
sg68
(lp2475
S'vars'
p2476
asbag61
(g82
g63
NtRp2477
(dp2478
g66
(dp2479
g93
g94
ssg75
g2468
sg68
(lp2480
S':'
asbag61
(g82
g63
NtRp2481
(dp2482
g66
(dp2483
sg75
g2468
sg68
(lp2484
g61
(g62
g63
NtRp2485
(dp2486
g66
(dp2487
g74
I5
ssg75
g2481
sg68
(lp2488
g61
(g70
g63
NtRp2489
(dp2490
g66
(dp2491
g74
I4
ssg75
Nsg68
(lp2492
g61
(g77
g63
NtRp2493
(dp2494
g66
(dp2495
sg75
g2489
sg68
(lp2496
g61
(g82
g63
NtRp2497
(dp2498
g66
(dp2499
g86
g87
ssg75
g2493
sg68
(lp2500
S'q'
asbag61
(g82
g63
NtRp2501
(dp2502
g66
(dp2503
g93
g94
ssg75
g2493
sg68
(lp2504
S':'
asbag61
(g82
g63
NtRp2505
(dp2506
g66
(dp2507
sg75
g2493
sg68
(lp2508
g61
(g62
g63
NtRp2509
(dp2510
g66
(dp2511
g74
I4
ssg75
g2505
sg68
(lp2512
g2334
asbasbasbasbasbasbasbag61
(g77
g63
NtRp2513
(dp2514
g66
(dp2515
sg75
g71
sg68
(lp2516
g61
(g82
g63
NtRp2517
(dp2518
g66
(dp2519
g86
g87
ssg75
g2513
sg68
(lp2520
S'wsgi'
p2521
asbag61
(g82
g63
NtRp2522
(dp2523
g66
(dp2524
g93
g94
ssg75
g2513
sg68
(lp2525
S':'
asbag61
(g82
g63
NtRp2526
(dp2527
g66
(dp2528
sg75
g2513
sg68
(lp2529
g61
(g62
g63
NtRp2530
(dp2531
g66
(dp2532
g74
I5
ssg75
g2526
sg68
(lp2533
g61
(g70
g63
NtRp2534
(dp2535
g66
(dp2536
g74
I4
ssg75
Nsg68
(lp2537
g61
(g77
g63
NtRp2538
(dp2539
g66
(dp2540
sg75
g2534
sg68
(lp2541
g61
(g82
g63
NtRp2542
(dp2543
g66
(dp2544
g86
g87
ssg75
g2538
sg68
(lp2545
S'environ'
p2546
asbag61
(g82
g63
NtRp2547
(dp2548
g66
(dp2549
g93
g94
ssg75
g2538
sg68
(lp2550
S':'
asbag61
(g82
g63
NtRp2551
(dp2552
g66
(dp2553
sg75
g2538
sg68
(lp2554
g61
(g62
g63
NtRp2555
(dp2556
g66
(dp2557
g74
I4
ssg75
g2551
sg68
(lp2558
g61
(g70
g63
NtRp2559
(dp2560
g66
(dp2561
g74
I3
ssg75
Nsg68
(lp2562
g61
(g77
g63
NtRp2563
(dp2564
g66
(dp2565
sg75
g2559
sg68
(lp2566
g61
(g82
g63
NtRp2567
(dp2568
g66
(dp2569
g86
g87
ssg75
g2563
sg68
(lp2570
S'DOCUMENT_ROOT'
p2571
asbag61
(g82
g63
NtRp2572
(dp2573
g66
(dp2574
g93
g94
ssg75
g2563
sg68
(lp2575
S':'
asbag61
(g82
g63
NtRp2576
(dp2577
g66
(dp2578
sg75
g2563
sg68
(lp2579
g61
(g62
g63
NtRp2580
(dp2581
g66
(dp2582
g74
I3
ssg75
g2576
sg68
(lp2583
g1123
asbasbasbag61
(g77
g63
NtRp2584
(dp2585
g66
(dp2586
sg75
g2559
sg68
(lp2587
g61
(g82
g63
NtRp2588
(dp2589
g66
(dp2590
g86
g87
ssg75
g2584
sg68
(lp2591
S'GATEWAY_INTERFACE'
p2592
asbag61
(g82
g63
NtRp2593
(dp2594
g66
(dp2595
g93
g94
ssg75
g2584
sg68
(lp2596
S':'
asbag61
(g82
g63
NtRp2597
(dp2598
g66
(dp2599
sg75
g2584
sg68
(lp2600
g61
(g62
g63
NtRp2601
(dp2602
g66
(dp2603
g74
I3
ssg75
g2597
sg68
(lp2604
g1145
asbasbasbag61
(g77
g63
NtRp2605
(dp2606
g66
(dp2607
sg75
g2559
sg68
(lp2608
g61
(g82
g63
NtRp2609
(dp2610
g66
(dp2611
g86
g87
ssg75
g2605
sg68
(lp2612
S'HTTPS'
p2613
asbag61
(g82
g63
NtRp2614
(dp2615
g66
(dp2616
g93
g94
ssg75
g2605
sg68
(lp2617
S':'
asbag61
(g82
g63
NtRp2618
(dp2619
g66
(dp2620
sg75
g2605
sg68
(lp2621
g61
(g62
g63
NtRp2622
(dp2623
g66
(dp2624
g74
I3
ssg75
g2618
sg68
(lp2625
S'1'
asbasbasbag61
(g77
g63
NtRp2626
(dp2627
g66
(dp2628
sg75
g2559
sg68
(lp2629
g61
(g82
g63
NtRp2630
(dp2631
g66
(dp2632
g86
g87
ssg75
g2626
sg68
(lp2633
S'HTTP_ACCEPT'
p2634
asbag61
(g82
g63
NtRp2635
(dp2636
g66
(dp2637
g93
g94
ssg75
g2626
sg68
(lp2638
S':'
asbag61
(g82
g63
NtRp2639
(dp2640
g66
(dp2641
sg75
g2626
sg68
(lp2642
g61
(g62
g63
NtRp2643
(dp2644
g66
(dp2645
g74
I3
ssg75
g2639
sg68
(lp2646
g1188
asbasbasbag61
(g77
g63
NtRp2647
(dp2648
g66
(dp2649
sg75
g2559
sg68
(lp2650
g61
(g82
g63
NtRp2651
(dp2652
g66
(dp2653
g86
g87
ssg75
g2647
sg68
(lp2654
S'HTTP_ACCEPT_CHARSET'
p2655
asbag61
(g82
g63
NtRp2656
(dp2657
g66
(dp2658
g93
g94
ssg75
g2647
sg68
(lp2659
S':'
asbag61
(g82
g63
NtRp2660
(dp2661
g66
(dp2662
sg75
g2647
sg68
(lp2663
g61
(g62
g63
NtRp2664
(dp2665
g66
(dp2666
g74
I3
ssg75
g2660
sg68
(lp2667
g1210
asbasbasbag61
(g77
g63
NtRp2668
(dp2669
g66
(dp2670
sg75
g2559
sg68
(lp2671
g61
(g82
g63
NtRp2672
(dp2673
g66
(dp2674
g86
g87
ssg75
g2668
sg68
(lp2675
S'HTTP_ACCEPT_ENCODING'
p2676
asbag61
(g82
g63
NtRp2677
(dp2678
g66
(dp2679
g93
g94
ssg75
g2668
sg68
(lp2680
S':'
asbag61
(g82
g63
NtRp2681
(dp2682
g66
(dp2683
sg75
g2668
sg68
(lp2684
g61
(g62
g63
NtRp2685
(dp2686
g66
(dp2687
g74
I3
ssg75
g2681
sg68
(lp2688
g1232
asbasbasbag61
(g77
g63
NtRp2689
(dp2690
g66
(dp2691
sg75
g2559
sg68
(lp2692
g61
(g82
g63
NtRp2693
(dp2694
g66
(dp2695
g86
g87
ssg75
g2689
sg68
(lp2696
S'HTTP_ACCEPT_LANGUAGE'
p2697
asbag61
(g82
g63
NtRp2698
(dp2699
g66
(dp2700
g93
g94
ssg75
g2689
sg68
(lp2701
S':'
asbag61
(g82
g63
NtRp2702
(dp2703
g66
(dp2704
sg75
g2689
sg68
(lp2705
g61
(g62
g63
NtRp2706
(dp2707
g66
(dp2708
g74
I3
ssg75
g2702
sg68
(lp2709
g1254
asbasbasbag61
(g77
g63
NtRp2710
(dp2711
g66
(dp2712
sg75
g2559
sg68
(lp2713
g61
(g82
g63
NtRp2714
(dp2715
g66
(dp2716
g86
g87
ssg75
g2710
sg68
(lp2717
S'HTTP_CONNECTION'
p2718
asbag61
(g82
g63
NtRp2719
(dp2720
g66
(dp2721
g93
g94
ssg75
g2710
sg68
(lp2722
S':'
asbag61
(g82
g63
NtRp2723
(dp2724
g66
(dp2725
sg75
g2710
sg68
(lp2726
g61
(g62
g63
NtRp2727
(dp2728
g66
(dp2729
g74
I3
ssg75
g2723
sg68
(lp2730
g1276
asbasbasbag61
(g77
g63
NtRp2731
(dp2732
g66
(dp2733
sg75
g2559
sg68
(lp2734
g61
(g82
g63
NtRp2735
(dp2736
g66
(dp2737
g86
g87
ssg75
g2731
sg68
(lp2738
S'HTTP_COOKIE'
p2739
asbag61
(g82
g63
NtRp2740
(dp2741
g66
(dp2742
g93
g94
ssg75
g2731
sg68
(lp2743
S':'
asbag61
(g82
g63
NtRp2744
(dp2745
g66
(dp2746
sg75
g2731
sg68
(lp2747
g61
(g62
g63
NtRp2748
(dp2749
g66
(dp2750
g74
I3
ssg75
g2744
sg68
(lp2751
g1298
asbasbasbag61
(g77
g63
NtRp2752
(dp2753
g66
(dp2754
sg75
g2559
sg68
(lp2755
g61
(g82
g63
NtRp2756
(dp2757
g66
(dp2758
g86
g87
ssg75
g2752
sg68
(lp2759
S'HTTP_HOST'
p2760
asbag61
(g82
g63
NtRp2761
(dp2762
g66
(dp2763
g93
g94
ssg75
g2752
sg68
(lp2764
S':'
asbag61
(g82
g63
NtRp2765
(dp2766
g66
(dp2767
sg75
g2752
sg68
(lp2768
g61
(g62
g63
NtRp2769
(dp2770
g66
(dp2771
g74
I3
ssg75
g2765
sg68
(lp2772
g1320
asbasbasbag61
(g77
g63
NtRp2773
(dp2774
g66
(dp2775
sg75
g2559
sg68
(lp2776
g61
(g82
g63
NtRp2777
(dp2778
g66
(dp2779
g86
g87
ssg75
g2773
sg68
(lp2780
S'HTTP_USER_AGENT'
p2781
asbag61
(g82
g63
NtRp2782
(dp2783
g66
(dp2784
g93
g94
ssg75
g2773
sg68
(lp2785
S':'
asbag61
(g82
g63
NtRp2786
(dp2787
g66
(dp2788
sg75
g2773
sg68
(lp2789
g61
(g62
g63
NtRp2790
(dp2791
g66
(dp2792
g74
I3
ssg75
g2786
sg68
(lp2793
g1342
asbasbasbag61
(g77
g63
NtRp2794
(dp2795
g66
(dp2796
sg75
g2559
sg68
(lp2797
g61
(g82
g63
NtRp2798
(dp2799
g66
(dp2800
g86
g87
ssg75
g2794
sg68
(lp2801
S'PATH_INFO'
p2802
asbag61
(g82
g63
NtRp2803
(dp2804
g66
(dp2805
g93
g94
ssg75
g2794
sg68
(lp2806
S':'
asbag61
(g82
g63
NtRp2807
(dp2808
g66
(dp2809
sg75
g2794
sg68
(lp2810
g61
(g62
g63
NtRp2811
(dp2812
g66
(dp2813
g74
I3
ssg75
g2807
sg68
(lp2814
g1628
asbasbasbag61
(g77
g63
NtRp2815
(dp2816
g66
(dp2817
sg75
g2559
sg68
(lp2818
g61
(g82
g63
NtRp2819
(dp2820
g66
(dp2821
g86
g87
ssg75
g2815
sg68
(lp2822
S'PATH_TRANSLATED'
p2823
asbag61
(g82
g63
NtRp2824
(dp2825
g66
(dp2826
g93
g94
ssg75
g2815
sg68
(lp2827
S':'
asbag61
(g82
g63
NtRp2828
(dp2829
g66
(dp2830
sg75
g2815
sg68
(lp2831
g61
(g62
g63
NtRp2832
(dp2833
g66
(dp2834
g74
I3
ssg75
g2828
sg68
(lp2835
g1650
asbasbasbag61
(g77
g63
NtRp2836
(dp2837
g66
(dp2838
sg75
g2559
sg68
(lp2839
g61
(g82
g63
NtRp2840
(dp2841
g66
(dp2842
g86
g87
ssg75
g2836
sg68
(lp2843
S'QUERY_STRING'
p2844
asbag61
(g82
g63
NtRp2845
(dp2846
g66
(dp2847
g93
g94
ssg75
g2836
sg68
(lp2848
S':'
asbag61
(g82
g63
NtRp2849
(dp2850
g66
(dp2851
sg75
g2836
sg68
(lp2852
g61
(g62
g63
NtRp2853
(dp2854
g66
(dp2855
g74
I3
ssg75
g2849
sg68
(lp2856
g1672
asbasbasbag61
(g77
g63
NtRp2857
(dp2858
g66
(dp2859
sg75
g2559
sg68
(lp2860
g61
(g82
g63
NtRp2861
(dp2862
g66
(dp2863
g86
g87
ssg75
g2857
sg68
(lp2864
S'REMOTE_ADDR'
p2865
asbag61
(g82
g63
NtRp2866
(dp2867
g66
(dp2868
g93
g94
ssg75
g2857
sg68
(lp2869
S':'
asbag61
(g82
g63
NtRp2870
(dp2871
g66
(dp2872
sg75
g2857
sg68
(lp2873
g61
(g62
g63
NtRp2874
(dp2875
g66
(dp2876
g74
I3
ssg75
g2870
sg68
(lp2877
g194
asbasbasbag61
(g77
g63
NtRp2878
(dp2879
g66
(dp2880
sg75
g2559
sg68
(lp2881
g61
(g82
g63
NtRp2882
(dp2883
g66
(dp2884
g86
g87
ssg75
g2878
sg68
(lp2885
S'REMOTE_PORT'
p2886
asbag61
(g82
g63
NtRp2887
(dp2888
g66
(dp2889
g93
g94
ssg75
g2878
sg68
(lp2890
S':'
asbag61
(g82
g63
NtRp2891
(dp2892
g66
(dp2893
sg75
g2878
sg68
(lp2894
g61
(g62
g63
NtRp2895
(dp2896
g66
(dp2897
g74
I3
ssg75
g2891
sg68
(lp2898
g1715
asbasbasbag61
(g77
g63
NtRp2899
(dp2900
g66
(dp2901
sg75
g2559
sg68
(lp2902
g61
(g82
g63
NtRp2903
(dp2904
g66
(dp2905
g86
g87
ssg75
g2899
sg68
(lp2906
S'REQUEST_METHOD'
p2907
asbag61
(g82
g63
NtRp2908
(dp2909
g66
(dp2910
g93
g94
ssg75
g2899
sg68
(lp2911
S':'
asbag61
(g82
g63
NtRp2912
(dp2913
g66
(dp2914
sg75
g2899
sg68
(lp2915
g61
(g62
g63
NtRp2916
(dp2917
g66
(dp2918
g74
I3
ssg75
g2912
sg68
(lp2919
g1737
asbasbasbag61
(g77
g63
NtRp2920
(dp2921
g66
(dp2922
sg75
g2559
sg68
(lp2923
g61
(g82
g63
NtRp2924
(dp2925
g66
(dp2926
g86
g87
ssg75
g2920
sg68
(lp2927
S'REQUEST_URI'
p2928
asbag61
(g82
g63
NtRp2929
(dp2930
g66
(dp2931
g93
g94
ssg75
g2920
sg68
(lp2932
S':'
asbag61
(g82
g63
NtRp2933
(dp2934
g66
(dp2935
sg75
g2920
sg68
(lp2936
g61
(g62
g63
NtRp2937
(dp2938
g66
(dp2939
g74
I3
ssg75
g2933
sg68
(lp2940
g1759
asbasbasbag61
(g77
g63
NtRp2941
(dp2942
g66
(dp2943
sg75
g2559
sg68
(lp2944
g61
(g82
g63
NtRp2945
(dp2946
g66
(dp2947
g86
g87
ssg75
g2941
sg68
(lp2948
S'SCRIPT_FILENAME'
p2949
asbag61
(g82
g63
NtRp2950
(dp2951
g66
(dp2952
g93
g94
ssg75
g2941
sg68
(lp2953
S':'
asbag61
(g82
g63
NtRp2954
(dp2955
g66
(dp2956
sg75
g2941
sg68
(lp2957
g61
(g62
g63
NtRp2958
(dp2959
g66
(dp2960
g74
I3
ssg75
g2954
sg68
(lp2961
g1781
asbasbasbag61
(g77
g63
NtRp2962
(dp2963
g66
(dp2964
sg75
g2559
sg68
(lp2965
g61
(g82
g63
NtRp2966
(dp2967
g66
(dp2968
g86
g87
ssg75
g2962
sg68
(lp2969
S'SCRIPT_NAME'
p2970
asbag61
(g82
g63
NtRp2971
(dp2972
g66
(dp2973
g93
g94
ssg75
g2962
sg68
(lp2974
S':'
asbag61
(g82
g63
NtRp2975
(dp2976
g66
(dp2977
sg75
g2962
sg68
(lp2978
g61
(g62
g63
NtRp2979
(dp2980
g66
(dp2981
g74
I3
ssg75
g2975
sg68
(lp2982
S''
asbasbasbag61
(g77
g63
NtRp2983
(dp2984
g66
(dp2985
sg75
g2559
sg68
(lp2986
g61
(g82
g63
NtRp2987
(dp2988
g66
(dp2989
g86
g87
ssg75
g2983
sg68
(lp2990
S'SERVER_ADDR'
p2991
asbag61
(g82
g63
NtRp2992
(dp2993
g66
(dp2994
g93
g94
ssg75
g2983
sg68
(lp2995
S':'
asbag61
(g82
g63
NtRp2996
(dp2997
g66
(dp2998
sg75
g2983
sg68
(lp2999
g61
(g62
g63
NtRp3000
(dp3001
g66
(dp3002
g74
I3
ssg75
g2996
sg68
(lp3003
g1824
asbasbasbag61
(g77
g63
NtRp3004
(dp3005
g66
(dp3006
sg75
g2559
sg68
(lp3007
g61
(g82
g63
NtRp3008
(dp3009
g66
(dp3010
g86
g87
ssg75
g3004
sg68
(lp3011
S'SERVER_ADMIN'
p3012
asbag61
(g82
g63
NtRp3013
(dp3014
g66
(dp3015
g93
g94
ssg75
g3004
sg68
(lp3016
S':'
asbag61
(g82
g63
NtRp3017
(dp3018
g66
(dp3019
sg75
g3004
sg68
(lp3020
g61
(g62
g63
NtRp3021
(dp3022
g66
(dp3023
g74
I3
ssg75
g3017
sg68
(lp3024
g1846
asbasbasbag61
(g77
g63
NtRp3025
(dp3026
g66
(dp3027
sg75
g2559
sg68
(lp3028
g61
(g82
g63
NtRp3029
(dp3030
g66
(dp3031
g86
g87
ssg75
g3025
sg68
(lp3032
S'SERVER_NAME'
p3033
asbag61
(g82
g63
NtRp3034
(dp3035
g66
(dp3036
g93
g94
ssg75
g3025
sg68
(lp3037
S':'
asbag61
(g82
g63
NtRp3038
(dp3039
g66
(dp3040
sg75
g3025
sg68
(lp3041
g61
(g62
g63
NtRp3042
(dp3043
g66
(dp3044
g74
I3
ssg75
g3038
sg68
(lp3045
g1868
asbasbasbag61
(g77
g63
NtRp3046
(dp3047
g66
(dp3048
sg75
g2559
sg68
(lp3049
g61
(g82
g63
NtRp3050
(dp3051
g66
(dp3052
g86
g87
ssg75
g3046
sg68
(lp3053
S'SERVER_PORT'
p3054
asbag61
(g82
g63
NtRp3055
(dp3056
g66
(dp3057
g93
g94
ssg75
g3046
sg68
(lp3058
S':'
asbag61
(g82
g63
NtRp3059
(dp3060
g66
(dp3061
sg75
g3046
sg68
(lp3062
g61
(g62
g63
NtRp3063
(dp3064
g66
(dp3065
g74
I3
ssg75
g3059
sg68
(lp3066
g1890
asbasbasbag61
(g77
g63
NtRp3067
(dp3068
g66
(dp3069
sg75
g2559
sg68
(lp3070
g61
(g82
g63
NtRp3071
(dp3072
g66
(dp3073
g86
g87
ssg75
g3067
sg68
(lp3074
S'SERVER_PROTOCOL'
p3075
asbag61
(g82
g63
NtRp3076
(dp3077
g66
(dp3078
g93
g94
ssg75
g3067
sg68
(lp3079
S':'
asbag61
(g82
g63
NtRp3080
(dp3081
g66
(dp3082
sg75
g3067
sg68
(lp3083
g61
(g62
g63
NtRp3084
(dp3085
g66
(dp3086
g74
I3
ssg75
g3080
sg68
(lp3087
g1912
asbasbasbag61
(g77
g63
NtRp3088
(dp3089
g66
(dp3090
sg75
g2559
sg68
(lp3091
g61
(g82
g63
NtRp3092
(dp3093
g66
(dp3094
g86
g87
ssg75
g3088
sg68
(lp3095
S'SERVER_SIGNATURE'
p3096
asbag61
(g82
g63
NtRp3097
(dp3098
g66
(dp3099
g93
g94
ssg75
g3088
sg68
(lp3100
S':'
asbag61
(g82
g63
NtRp3101
(dp3102
g66
(dp3103
sg75
g3088
sg68
(lp3104
g61
(g62
g63
NtRp3105
(dp3106
g66
(dp3107
g74
I3
ssg75
g3101
sg68
(lp3108
g1934
asbasbasbag61
(g77
g63
NtRp3109
(dp3110
g66
(dp3111
sg75
g2559
sg68
(lp3112
g61
(g82
g63
NtRp3113
(dp3114
g66
(dp3115
g86
g87
ssg75
g3109
sg68
(lp3116
S'SERVER_SOFTWARE'
p3117
asbag61
(g82
g63
NtRp3118
(dp3119
g66
(dp3120
g93
g94
ssg75
g3109
sg68
(lp3121
S':'
asbag61
(g82
g63
NtRp3122
(dp3123
g66
(dp3124
sg75
g3109
sg68
(lp3125
g61
(g62
g63
NtRp3126
(dp3127
g66
(dp3128
g74
I3
ssg75
g3122
sg68
(lp3129
g1956
asbasbasbag61
(g77
g63
NtRp3130
(dp3131
g66
(dp3132
sg75
g2559
sg68
(lp3133
g61
(g82
g63
NtRp3134
(dp3135
g66
(dp3136
g86
g87
ssg75
g3130
sg68
(lp3137
S'SSL_TLS_SNI'
p3138
asbag61
(g82
g63
NtRp3139
(dp3140
g66
(dp3141
g93
g94
ssg75
g3130
sg68
(lp3142
S':'
asbag61
(g82
g63
NtRp3143
(dp3144
g66
(dp3145
sg75
g3130
sg68
(lp3146
g61
(g62
g63
NtRp3147
(dp3148
g66
(dp3149
g74
I3
ssg75
g3143
sg68
(lp3150
g1978
asbasbasbag61
(g77
g63
NtRp3151
(dp3152
g66
(dp3153
sg75
g2559
sg68
(lp3154
g61
(g82
g63
NtRp3155
(dp3156
g66
(dp3157
g86
g87
ssg75
g3151
sg68
(lp3158
S'mod_wsgi.application_group'
p3159
asbag61
(g82
g63
NtRp3160
(dp3161
g66
(dp3162
g93
g94
ssg75
g3151
sg68
(lp3163
S':'
asbag61
(g82
g63
NtRp3164
(dp3165
g66
(dp3166
sg75
g3151
sg68
(lp3167
g61
(g62
g63
NtRp3168
(dp3169
g66
(dp3170
g74
I3
ssg75
g3164
sg68
(lp3171
g1385
asbasbasbag61
(g77
g63
NtRp3172
(dp3173
g66
(dp3174
sg75
g2559
sg68
(lp3175
g61
(g82
g63
NtRp3176
(dp3177
g66
(dp3178
g86
g87
ssg75
g3172
sg68
(lp3179
S'mod_wsgi.callable_object'
p3180
asbag61
(g82
g63
NtRp3181
(dp3182
g66
(dp3183
g93
g94
ssg75
g3172
sg68
(lp3184
S':'
asbag61
(g82
g63
NtRp3185
(dp3186
g66
(dp3187
sg75
g3172
sg68
(lp3188
g61
(g62
g63
NtRp3189
(dp3190
g66
(dp3191
g74
I3
ssg75
g3185
sg68
(lp3192
g1407
asbasbasbag61
(g77
g63
NtRp3193
(dp3194
g66
(dp3195
sg75
g2559
sg68
(lp3196
g61
(g82
g63
NtRp3197
(dp3198
g66
(dp3199
g86
g87
ssg75
g3193
sg68
(lp3200
S'mod_wsgi.handler_script'
p3201
asbag61
(g82
g63
NtRp3202
(dp3203
g66
(dp3204
g93
g94
ssg75
g3193
sg68
(lp3205
S':'
asbag61
(g82
g63
NtRp3206
(dp3207
g66
(dp3208
sg75
g3193
sg68
(lp3209
g61
(g62
g63
NtRp3210
(dp3211
g66
(dp3212
g74
I3
ssg75
g3206
sg68
(lp3213
S''
asbasbasbag61
(g77
g63
NtRp3214
(dp3215
g66
(dp3216
sg75
g2559
sg68
(lp3217
g61
(g82
g63
NtRp3218
(dp3219
g66
(dp3220
g86
g87
ssg75
g3214
sg68
(lp3221
S'mod_wsgi.input_chunked'
p3222
asbag61
(g82
g63
NtRp3223
(dp3224
g66
(dp3225
g93
g94
ssg75
g3214
sg68
(lp3226
S':'
asbag61
(g82
g63
NtRp3227
(dp3228
g66
(dp3229
sg75
g3214
sg68
(lp3230
g61
(g62
g63
NtRp3231
(dp3232
g66
(dp3233
g74
I3
ssg75
g3227
sg68
(lp3234
S'0'
asbasbasbag61
(g77
g63
NtRp3235
(dp3236
g66
(dp3237
sg75
g2559
sg68
(lp3238
g61
(g82
g63
NtRp3239
(dp3240
g66
(dp3241
g86
g87
ssg75
g3235
sg68
(lp3242
S'mod_wsgi.listener_host'
p3243
asbag61
(g82
g63
NtRp3244
(dp3245
g66
(dp3246
g93
g94
ssg75
g3235
sg68
(lp3247
S':'
asbag61
(g82
g63
NtRp3248
(dp3249
g66
(dp3250
sg75
g3235
sg68
(lp3251
g61
(g62
g63
NtRp3252
(dp3253
g66
(dp3254
g74
I3
ssg75
g3248
sg68
(lp3255
S''
asbasbasbag61
(g77
g63
NtRp3256
(dp3257
g66
(dp3258
sg75
g2559
sg68
(lp3259
g61
(g82
g63
NtRp3260
(dp3261
g66
(dp3262
g86
g87
ssg75
g3256
sg68
(lp3263
S'mod_wsgi.listener_port'
p3264
asbag61
(g82
g63
NtRp3265
(dp3266
g66
(dp3267
g93
g94
ssg75
g3256
sg68
(lp3268
S':'
asbag61
(g82
g63
NtRp3269
(dp3270
g66
(dp3271
sg75
g3256
sg68
(lp3272
g61
(g62
g63
NtRp3273
(dp3274
g66
(dp3275
g74
I3
ssg75
g3269
sg68
(lp3276
g1492
asbasbasbag61
(g77
g63
NtRp3277
(dp3278
g66
(dp3279
sg75
g2559
sg68
(lp3280
g61
(g82
g63
NtRp3281
(dp3282
g66
(dp3283
g86
g87
ssg75
g3277
sg68
(lp3284
S'mod_wsgi.process_group'
p3285
asbag61
(g82
g63
NtRp3286
(dp3287
g66
(dp3288
g93
g94
ssg75
g3277
sg68
(lp3289
S':'
asbag61
(g82
g63
NtRp3290
(dp3291
g66
(dp3292
sg75
g3277
sg68
(lp3293
g61
(g62
g63
NtRp3294
(dp3295
g66
(dp3296
g74
I3
ssg75
g3290
sg68
(lp3297
g1514
asbasbasbag61
(g77
g63
NtRp3298
(dp3299
g66
(dp3300
sg75
g2559
sg68
(lp3301
g61
(g82
g63
NtRp3302
(dp3303
g66
(dp3304
g86
g87
ssg75
g3298
sg68
(lp3305
S'mod_wsgi.request_handler'
p3306
asbag61
(g82
g63
NtRp3307
(dp3308
g66
(dp3309
g93
g94
ssg75
g3298
sg68
(lp3310
S':'
asbag61
(g82
g63
NtRp3311
(dp3312
g66
(dp3313
sg75
g3298
sg68
(lp3314
g61
(g62
g63
NtRp3315
(dp3316
g66
(dp3317
g74
I3
ssg75
g3311
sg68
(lp3318
g1536
asbasbasbag61
(g77
g63
NtRp3319
(dp3320
g66
(dp3321
sg75
g2559
sg68
(lp3322
g61
(g82
g63
NtRp3323
(dp3324
g66
(dp3325
g86
g87
ssg75
g3319
sg68
(lp3326
S'mod_wsgi.script_reloading'
p3327
asbag61
(g82
g63
NtRp3328
(dp3329
g66
(dp3330
g93
g94
ssg75
g3319
sg68
(lp3331
S':'
asbag61
(g82
g63
NtRp3332
(dp3333
g66
(dp3334
sg75
g3319
sg68
(lp3335
g61
(g62
g63
NtRp3336
(dp3337
g66
(dp3338
g74
I3
ssg75
g3332
sg68
(lp3339
S'1'
asbasbasbag61
(g77
g63
NtRp3340
(dp3341
g66
(dp3342
sg75
g2559
sg68
(lp3343
g61
(g82
g63
NtRp3344
(dp3345
g66
(dp3346
g86
g87
ssg75
g3340
sg68
(lp3347
S'mod_wsgi.version'
p3348
asbag61
(g82
g63
NtRp3349
(dp3350
g66
(dp3351
g93
g94
ssg75
g3340
sg68
(lp3352
S':'
asbag61
(g82
g63
NtRp3353
(dp3354
g66
(dp3355
sg75
g3340
sg68
(lp3356
g61
(g62
g63
NtRp3357
(dp3358
g66
(dp3359
g74
I3
ssg75
g3353
sg68
(lp3360
g61
(g70
g63
NtRp3361
(dp3362
g66
(dp3363
g74
I2
ssg75
Nsg68
(lp3364
g61
(g77
g63
NtRp3365
(dp3366
g66
(dp3367
sg75
g3361
sg68
(lp3368
g61
(g82
g63
NtRp3369
(dp3370
g66
(dp3371
sg75
g3365
sg68
(lp3372
g61
(g62
g63
NtRp3373
(dp3374
g66
(dp3375
g74
I2
ssg75
g3369
sg68
(lp3376
S'3'
asbasbasbag61
(g77
g63
NtRp3377
(dp3378
g66
(dp3379
sg75
g3361
sg68
(lp3380
g61
(g82
g63
NtRp3381
(dp3382
g66
(dp3383
sg75
g3377
sg68
(lp3384
g61
(g62
g63
NtRp3385
(dp3386
g66
(dp3387
g74
I2
ssg75
g3381
sg68
(lp3388
S'2'
asbasbasbasbasbasbasbag61
(g77
g63
NtRp3389
(dp3390
g66
(dp3391
sg75
g2559
sg68
(lp3392
g61
(g82
g63
NtRp3393
(dp3394
g66
(dp3395
g86
g87
ssg75
g3389
sg68
(lp3396
S'wsgi.errors'
p3397
asbag61
(g82
g63
NtRp3398
(dp3399
g66
(dp3400
g93
g94
ssg75
g3389
sg68
(lp3401
S':'
asbag61
(g82
g63
NtRp3402
(dp3403
g66
(dp3404
sg75
g3389
sg68
(lp3405
g61
(g62
g63
NtRp3406
(dp3407
g66
(dp3408
g74
I3
ssg75
g3402
sg68
(lp3409
S'<mod_wsgi.Log object at 0x2b50bfdc7db0>'
p3410
asbasbasbag61
(g77
g63
NtRp3411
(dp3412
g66
(dp3413
sg75
g2559
sg68
(lp3414
g61
(g82
g63
NtRp3415
(dp3416
g66
(dp3417
g86
g87
ssg75
g3411
sg68
(lp3418
S'wsgi.file_wrapper'
p3419
asbag61
(g82
g63
NtRp3420
(dp3421
g66
(dp3422
g93
g94
ssg75
g3411
sg68
(lp3423
S':'
asbag61
(g82
g63
NtRp3424
(dp3425
g66
(dp3426
sg75
g3411
sg68
(lp3427
g61
(g62
g63
NtRp3428
(dp3429
g66
(dp3430
g74
I3
ssg75
g3424
sg68
(lp3431
S'<built-in method file_wrapper of mod_wsgi.Adapter object at 0x2b50bf4bec60>'
p3432
asbasbasbag61
(g77
g63
NtRp3433
(dp3434
g66
(dp3435
sg75
g2559
sg68
(lp3436
g61
(g82
g63
NtRp3437
(dp3438
g66
(dp3439
g86
g87
ssg75
g3433
sg68
(lp3440
S'wsgi.input'
p3441
asbag61
(g82
g63
NtRp3442
(dp3443
g66
(dp3444
g93
g94
ssg75
g3433
sg68
(lp3445
S':'
asbag61
(g82
g63
NtRp3446
(dp3447
g66
(dp3448
sg75
g3433
sg68
(lp3449
g61
(g62
g63
NtRp3450
(dp3451
g66
(dp3452
g74
I3
ssg75
g3446
sg68
(lp3453
S'<cStringIO.StringO object at 0x2b50bfc210d8>'
p3454
asbasbasbag61
(g77
g63
NtRp3455
(dp3456
g66
(dp3457
sg75
g2559
sg68
(lp3458
g61
(g82
g63
NtRp3459
(dp3460
g66
(dp3461
g86
g87
ssg75
g3455
sg68
(lp3462
S'wsgi.multiprocess'
p3463
asbag61
(g82
g63
NtRp3464
(dp3465
g66
(dp3466
g93
g94
ssg75
g3455
sg68
(lp3467
S':'
asbag61
(g82
g63
NtRp3468
(dp3469
g66
(dp3470
sg75
g3455
sg68
(lp3471
g61
(g62
g63
NtRp3472
(dp3473
g66
(dp3474
g74
I3
ssg75
g3468
sg68
(lp3475
g104
asbasbasbag61
(g77
g63
NtRp3476
(dp3477
g66
(dp3478
sg75
g2559
sg68
(lp3479
g61
(g82
g63
NtRp3480
(dp3481
g66
(dp3482
g86
g87
ssg75
g3476
sg68
(lp3483
S'wsgi.multithread'
p3484
asbag61
(g82
g63
NtRp3485
(dp3486
g66
(dp3487
g93
g94
ssg75
g3476
sg68
(lp3488
S':'
asbag61
(g82
g63
NtRp3489
(dp3490
g66
(dp3491
sg75
g3476
sg68
(lp3492
g61
(g62
g63
NtRp3493
(dp3494
g66
(dp3495
g74
I3
ssg75
g3489
sg68
(lp3496
g2130
asbasbasbag61
(g77
g63
NtRp3497
(dp3498
g66
(dp3499
sg75
g2559
sg68
(lp3500
g61
(g82
g63
NtRp3501
(dp3502
g66
(dp3503
g86
g87
ssg75
g3497
sg68
(lp3504
S'wsgi.run_once'
p3505
asbag61
(g82
g63
NtRp3506
(dp3507
g66
(dp3508
g93
g94
ssg75
g3497
sg68
(lp3509
S':'
asbag61
(g82
g63
NtRp3510
(dp3511
g66
(dp3512
sg75
g3497
sg68
(lp3513
g61
(g62
g63
NtRp3514
(dp3515
g66
(dp3516
g74
I3
ssg75
g3510
sg68
(lp3517
g104
asbasbasbag61
(g77
g63
NtRp3518
(dp3519
g66
(dp3520
sg75
g2559
sg68
(lp3521
g61
(g82
g63
NtRp3522
(dp3523
g66
(dp3524
g86
g87
ssg75
g3518
sg68
(lp3525
S'wsgi.url_scheme'
p3526
asbag61
(g82
g63
NtRp3527
(dp3528
g66
(dp3529
g93
g94
ssg75
g3518
sg68
(lp3530
S':'
asbag61
(g82
g63
NtRp3531
(dp3532
g66
(dp3533
sg75
g3518
sg68
(lp3534
g61
(g62
g63
NtRp3535
(dp3536
g66
(dp3537
g74
I3
ssg75
g3531
sg68
(lp3538
g2173
asbasbasbag61
(g77
g63
NtRp3539
(dp3540
g66
(dp3541
sg75
g2559
sg68
(lp3542
g61
(g82
g63
NtRp3543
(dp3544
g66
(dp3545
g86
g87
ssg75
g3539
sg68
(lp3546
S'wsgi.version'
p3547
asbag61
(g82
g63
NtRp3548
(dp3549
g66
(dp3550
g93
g94
ssg75
g3539
sg68
(lp3551
S':'
asbag61
(g82
g63
NtRp3552
(dp3553
g66
(dp3554
sg75
g3539
sg68
(lp3555
g61
(g62
g63
NtRp3556
(dp3557
g66
(dp3558
g74
I3
ssg75
g3552
sg68
(lp3559
S'1'
asbasbasbasbasbasbasbasbasbasbasbasbasbsS'frames'
p3560
(lp3561
(dp3562
S'file'
p3563
S'/home/www-data/web2py/gluon/restricted.py'
p3564
sS'dump'
p3565
(dp3566
S'environment'
p3567
S"{'A': <class 'gluon.html.A'>, 'Auth': <class 'gluon.tools.Auth'>, 'B': <class 'gluon.html.B'>, 'BEAUTIFY': <class 'gluon.html.BEAUTIFY'>, 'BODY': <class 'gluon.html.BODY'>, 'BR': <class 'gluon.html.BR'>, 'CENTER': <class 'gluon.html.CENTER'>, 'CLEANUP': <class 'gluon.validators.CLEANUP'>, 'CODE': <class 'gluon.html.CODE'>, 'CRYPT': <class 'gluon.validators.CRYPT'>, ...}"
p3568
sS'ccode'
p3569
S'<code object <module> at 0x2b50bfee7dc8, file "/...ications/rdcdss/controllers/default.py", line 11>'
p3570
ssS'lnum'
p3571
I181
sS'lines'
p3572
(dp3573
I176
S'    try:'
p3574
sI177
S'        if type(code) == types.CodeType:'
p3575
sI178
S'            ccode = code'
p3576
sI179
S'        else:'
p3577
sI180
S'            ccode = compile2(code,layer)'
p3578
sI181
S'        exec ccode in environment'
p3579
sI182
S'    except HTTP:'
p3580
sI183
S'        raise'
p3581
sI184
S'    except Exception:'
p3582
sI185
S'        # XXX Show exception in Wing IDE if running in debugger'
p3583
ssS'call'
p3584
S"(code='# -*- coding: utf-8 -*- \\n# this file is released...ervice()\\n\\nresponse._vars=response._caller(index)\\n', environment={'A': <class 'gluon.html.A'>, 'Auth': <class 'gluon.tools.Auth'>, 'B': <class 'gluon.html.B'>, 'BEAUTIFY': <class 'gluon.html.BEAUTIFY'>, 'BODY': <class 'gluon.html.BODY'>, 'BR': <class 'gluon.html.BR'>, 'CENTER': <class 'gluon.html.CENTER'>, 'CLEANUP': <class 'gluon.validators.CLEANUP'>, 'CODE': <class 'gluon.html.CODE'>, 'CRYPT': <class 'gluon.validators.CRYPT'>, ...}, layer='/home/www-data/web2py/applications/rdcdss/controllers/default.py')"
p3585
sS'func'
p3586
S'restricted'
p3587
sa(dp3588
g3563
S'/home/www-data/web2py/applications/rdcdss/controllers/default.py'
p3589
sg3565
(dp3590
sg3571
I233
sg3572
(dp3591
I224
S'    """'
p3592
sI225
S'    exposes services. for example:'
p3593
sI226
S'    http://..../[app]/default/call/jsonrpc'
p3594
sI227
S'    decorate with @services.jsonrpc the functions to expose'
p3595
sI228
S'    supports xml, json, xmlrpc, jsonrpc, amfrpc, rss, csv'
p3596
sI229
S'    """'
p3597
sI230
S'    session.forget()'
p3598
sI231
S'    return service()'
p3599
sI222
S''
sI223
S'def call():'
p3600
ssg3584
S'()'
p3601
sg3586
S'<module>'
p3602
sa(dp3603
g3563
S'/home/www-data/web2py/gluon/globals.py'
p3604
sg3565
(dp3605
S'self'
p3606
S'undefined'
p3607
sS'f'
S'<function index>'
p3608
ssg3571
I133
sg3572
(dp3609
I128
S"        self.flash = ''           # used by the default view layout"
p3610
sI129
S'        self.meta = Storage()     # used by web2py_ajax.html'
p3611
sI130
S'        self.menu = []            # used by the default view layout'
p3612
sI131
S'        self.files = []           # used by web2py_ajax.html'
p3613
sI132
S'        self._vars = None'
p3614
sI133
S'        self._caller = lambda f: f()'
p3615
sI134
S'        self._view_environment = None'
p3616
sI135
S'        self._custom_commit = None'
p3617
sI136
S'        self._custom_rollback = None'
p3618
sI137
S''
ssg3584
S'(f=<function index>)'
p3619
sg3586
S'<lambda>'
p3620
sa(dp3621
g3563
S'/home/www-data/web2py/applications/rdcdss/controllers/default.py'
p3622
sg3565
(dp3623
S'db.t_resdis.import_from_csv_file'
p3624
S"<bound method Table.import_from_csv_file of <Tab...d': <gluon.dal.Field object at 0x2b50bfe97950>}>>"
p3625
sS'db.t_resdis'
p3626
S"<Table {'ALL': <gluon.dal.SQLALL object at 0x2b5...id': <gluon.dal.Field object at 0x2b50bfe97950>}>"
p3627
sS'hashstring'
p3628
S"'b74fa88554d13dc39c5da7d455cf5c3d'"
p3629
sS'builtinopen'
p3630
S'<built-in function open>'
p3631
sS'global os'
p3632
S"<module 'os' from '/usr/lib/python2.6/os.pyc'>"
p3633
sS'global db'
p3634
S"<DAL {'auth_event': <Table {'origin': <gluon.dal...': <gluon.dal.Field object at 0x2b50bfd234d0>}>}>"
p3635
sS'os.getcwd'
p3636
S'<built-in function getcwd>'
p3637
ssg3571
I49
sg3572
(dp3638
I44
S'            hashstring = hashlib.md5(request.vars.q+"index_rare"+str(time.time())).hexdigest()'
p3639
sI45
S'            collection = ""'
p3640
sI46
S'            os.system(\'sh \'+RUNQUERYPATH+\'runQueryDiseases.sh "\'+request.vars.q+\'" index_rare \'+hashstring)'
p3641
sI47
S'            diseases = "CHECKED"'
p3642
sI48
S'        db.t_resdis.truncate()'
p3643
sI49
S"        db.t_resdis.import_from_csv_file(open(os.getcwd()+'/results/'+hashstring+'.dis','r'))"
p3644
sI50
S'        session.data["response"]={"query":query,"raregenet":checked, "session_id":response.session_id, "results":[]}'
p3645
sI51
S'        rows = []'
p3646
sI52
S'        for row in db().select(db.t_resdis.ALL):'
p3647
sI53
S'            session.data["response"]["results"].append({"rank":row.f_rank,"disease":row.f_disease,"score":row.f_freq,"docs":row.f_docnos})'
p3648
ssg3584
S'()'
p3649
sg3586
S'index'
p3650
sasS'pyver'
p3651
S'Python 2.6.6: /usr/bin/python'
p3652
sS'session'
p3653
g61
(g62
g63
NtRp3654
(dp3655
g66
(dp3656
sg68
(lp3657
g61
(g70
g63
NtRp3658
(dp3659
g66
(dp3660
g74
I5
ssg75
Nsg68
(lp3661
g61
(g77
g63
NtRp3662
(dp3663
g66
(dp3664
sg75
g3658
sg68
(lp3665
g61
(g82
g63
NtRp3666
(dp3667
g66
(dp3668
g86
g87
ssg75
g3662
sg68
(lp3669
S'data'
p3670
asbag61
(g82
g63
NtRp3671
(dp3672
g66
(dp3673
g93
g94
ssg75
g3662
sg68
(lp3674
S':'
asbag61
(g82
g63
NtRp3675
(dp3676
g66
(dp3677
sg75
g3662
sg68
(lp3678
g61
(g62
g63
NtRp3679
(dp3680
g66
(dp3681
g74
I5
ssg75
g3675
sg68
(lp3682
g61
(g70
g63
NtRp3683
(dp3684
g66
(dp3685
g74
I4
ssg75
Nsg68
(lp3686
sbasbasbasbag61
(g77
g63
NtRp3687
(dp3688
g66
(dp3689
sg75
g3658
sg68
(lp3690
g61
(g82
g63
NtRp3691
(dp3692
g66
(dp3693
g86
g87
ssg75
g3687
sg68
(lp3694
S'query'
p3695
asbag61
(g82
g63
NtRp3696
(dp3697
g66
(dp3698
g93
g94
ssg75
g3687
sg68
(lp3699
S':'
asbag61
(g82
g63
NtRp3700
(dp3701
g66
(dp3702
sg75
g3687
sg68
(lp3703
g61
(g62
g63
NtRp3704
(dp3705
g66
(dp3706
g74
I5
ssg75
g3700
sg68
(lp3707
S''
asbasbasbasbasbsS'etype'
p3708
S"<type 'exceptions.IOError'>"
p3709
sS'date'
p3710
S'Mon Jul  4 16:00:56 2011'
p3711
sS'response'
p3712
g61
(g62
g63
NtRp3713
(dp3714
g66
(dp3715
sg68
(lp3716
g61
(g70
g63
NtRp3717
(dp3718
g66
(dp3719
g74
I5
ssg75
Nsg68
(lp3720
g61
(g77
g63
NtRp3721
(dp3722
g66
(dp3723
sg75
g3717
sg68
(lp3724
g61
(g82
g63
NtRp3725
(dp3726
g66
(dp3727
g86
g87
ssg75
g3721
sg68
(lp3728
g159
asbag61
(g82
g63
NtRp3729
(dp3730
g66
(dp3731
g93
g94
ssg75
g3721
sg68
(lp3732
S':'
asbag61
(g82
g63
NtRp3733
(dp3734
g66
(dp3735
sg75
g3721
sg68
(lp3736
g61
(g62
g63
NtRp3737
(dp3738
g66
(dp3739
g74
I5
ssg75
g3733
sg68
(lp3740
S'<cStringIO.StringO object at 0x2b50bfc22f80>'
p3741
asbasbasbag61
(g77
g63
NtRp3742
(dp3743
g66
(dp3744
sg75
g3717
sg68
(lp3745
g61
(g82
g63
NtRp3746
(dp3747
g66
(dp3748
g86
g87
ssg75
g3742
sg68
(lp3749
g225
asbag61
(g82
g63
NtRp3750
(dp3751
g66
(dp3752
g93
g94
ssg75
g3742
sg68
(lp3753
S':'
asbag61
(g82
g63
NtRp3754
(dp3755
g66
(dp3756
sg75
g3742
sg68
(lp3757
g61
(g62
g63
NtRp3758
(dp3759
g66
(dp3760
g74
I5
ssg75
g3754
sg68
(lp3761
g61
(g70
g63
NtRp3762
(dp3763
g66
(dp3764
g74
I4
ssg75
Nsg68
(lp3765
g61
(g77
g63
NtRp3766
(dp3767
g66
(dp3768
sg75
g3762
sg68
(lp3769
g61
(g82
g63
NtRp3770
(dp3771
g66
(dp3772
g86
g87
ssg75
g3766
sg68
(lp3773
S'session_id_rdcdss'
p3774
asbag61
(g82
g63
NtRp3775
(dp3776
g66
(dp3777
g93
g94
ssg75
g3766
sg68
(lp3778
S':'
asbag61
(g82
g63
NtRp3779
(dp3780
g66
(dp3781
sg75
g3766
sg68
(lp3782
g61
(g62
g63
NtRp3783
(dp3784
g66
(dp3785
g74
I4
ssg75
g3779
sg68
(lp3786
g61
(g70
g63
NtRp3787
(dp3788
g66
(dp3789
g74
I3
ssg75
Nsg68
(lp3790
g61
(g77
g63
NtRp3791
(dp3792
g66
(dp3793
sg75
g3787
sg68
(lp3794
g61
(g82
g63
NtRp3795
(dp3796
g66
(dp3797
g86
g87
ssg75
g3791
sg68
(lp3798
g275
asbag61
(g82
g63
NtRp3799
(dp3800
g66
(dp3801
g93
g94
ssg75
g3791
sg68
(lp3802
S':'
asbag61
(g82
g63
NtRp3803
(dp3804
g66
(dp3805
sg75
g3791
sg68
(lp3806
g61
(g62
g63
NtRp3807
(dp3808
g66
(dp3809
g74
I3
ssg75
g3803
sg68
(lp3810
S''
asbasbasbag61
(g77
g63
NtRp3811
(dp3812
g66
(dp3813
sg75
g3787
sg68
(lp3814
g61
(g82
g63
NtRp3815
(dp3816
g66
(dp3817
g86
g87
ssg75
g3811
sg68
(lp3818
g296
asbag61
(g82
g63
NtRp3819
(dp3820
g66
(dp3821
g93
g94
ssg75
g3811
sg68
(lp3822
S':'
asbag61
(g82
g63
NtRp3823
(dp3824
g66
(dp3825
sg75
g3811
sg68
(lp3826
g61
(g62
g63
NtRp3827
(dp3828
g66
(dp3829
g74
I3
ssg75
g3823
sg68
(lp3830
S''
asbasbasbag61
(g77
g63
NtRp3831
(dp3832
g66
(dp3833
sg75
g3787
sg68
(lp3834
g61
(g82
g63
NtRp3835
(dp3836
g66
(dp3837
g86
g87
ssg75
g3831
sg68
(lp3838
g317
asbag61
(g82
g63
NtRp3839
(dp3840
g66
(dp3841
g93
g94
ssg75
g3831
sg68
(lp3842
S':'
asbag61
(g82
g63
NtRp3843
(dp3844
g66
(dp3845
sg75
g3831
sg68
(lp3846
g61
(g62
g63
NtRp3847
(dp3848
g66
(dp3849
g74
I3
ssg75
g3843
sg68
(lp3850
S''
asbasbasbag61
(g77
g63
NtRp3851
(dp3852
g66
(dp3853
sg75
g3787
sg68
(lp3854
g61
(g82
g63
NtRp3855
(dp3856
g66
(dp3857
g86
g87
ssg75
g3851
sg68
(lp3858
g338
asbag61
(g82
g63
NtRp3859
(dp3860
g66
(dp3861
g93
g94
ssg75
g3851
sg68
(lp3862
S':'
asbag61
(g82
g63
NtRp3863
(dp3864
g66
(dp3865
sg75
g3851
sg68
(lp3866
g61
(g62
g63
NtRp3867
(dp3868
g66
(dp3869
g74
I3
ssg75
g3863
sg68
(lp3870
S''
asbasbasbag61
(g77
g63
NtRp3871
(dp3872
g66
(dp3873
sg75
g3787
sg68
(lp3874
g61
(g82
g63
NtRp3875
(dp3876
g66
(dp3877
g86
g87
ssg75
g3871
sg68
(lp3878
g359
asbag61
(g82
g63
NtRp3879
(dp3880
g66
(dp3881
g93
g94
ssg75
g3871
sg68
(lp3882
S':'
asbag61
(g82
g63
NtRp3883
(dp3884
g66
(dp3885
sg75
g3871
sg68
(lp3886
g61
(g62
g63
NtRp3887
(dp3888
g66
(dp3889
g74
I3
ssg75
g3883
sg68
(lp3890
S''
asbasbasbag61
(g77
g63
NtRp3891
(dp3892
g66
(dp3893
sg75
g3787
sg68
(lp3894
g61
(g82
g63
NtRp3895
(dp3896
g66
(dp3897
g86
g87
ssg75
g3891
sg68
(lp3898
g380
asbag61
(g82
g63
NtRp3899
(dp3900
g66
(dp3901
g93
g94
ssg75
g3891
sg68
(lp3902
S':'
asbag61
(g82
g63
NtRp3903
(dp3904
g66
(dp3905
sg75
g3891
sg68
(lp3906
g61
(g62
g63
NtRp3907
(dp3908
g66
(dp3909
g74
I3
ssg75
g3903
sg68
(lp3910
S'/'
asbasbasbag61
(g77
g63
NtRp3911
(dp3912
g66
(dp3913
sg75
g3787
sg68
(lp3914
g61
(g82
g63
NtRp3915
(dp3916
g66
(dp3917
g86
g87
ssg75
g3911
sg68
(lp3918
g401
asbag61
(g82
g63
NtRp3919
(dp3920
g66
(dp3921
g93
g94
ssg75
g3911
sg68
(lp3922
S':'
asbag61
(g82
g63
NtRp3923
(dp3924
g66
(dp3925
sg75
g3911
sg68
(lp3926
g61
(g62
g63
NtRp3927
(dp3928
g66
(dp3929
g74
I3
ssg75
g3923
sg68
(lp3930
S''
asbasbasbag61
(g77
g63
NtRp3931
(dp3932
g66
(dp3933
sg75
g3787
sg68
(lp3934
g61
(g82
g63
NtRp3935
(dp3936
g66
(dp3937
g86
g87
ssg75
g3931
sg68
(lp3938
g422
asbag61
(g82
g63
NtRp3939
(dp3940
g66
(dp3941
g93
g94
ssg75
g3931
sg68
(lp3942
S':'
asbag61
(g82
g63
NtRp3943
(dp3944
g66
(dp3945
sg75
g3931
sg68
(lp3946
g61
(g62
g63
NtRp3947
(dp3948
g66
(dp3949
g74
I3
ssg75
g3943
sg68
(lp3950
S''
asbasbasbasbasbasbasbasbasbasbasbag61
(g77
g63
NtRp3951
(dp3952
g66
(dp3953
sg75
g3717
sg68
(lp3954
g61
(g82
g63
NtRp3955
(dp3956
g66
(dp3957
g86
g87
ssg75
g3951
sg68
(lp3958
S'files'
p3959
asbag61
(g82
g63
NtRp3960
(dp3961
g66
(dp3962
g93
g94
ssg75
g3951
sg68
(lp3963
S':'
asbag61
(g82
g63
NtRp3964
(dp3965
g66
(dp3966
sg75
g3951
sg68
(lp3967
g61
(g62
g63
NtRp3968
(dp3969
g66
(dp3970
g74
I5
ssg75
g3964
sg68
(lp3971
g61
(g70
g63
NtRp3972
(dp3973
g66
(dp3974
g74
I4
ssg75
Nsg68
(lp3975
sbasbasbasbag61
(g77
g63
NtRp3976
(dp3977
g66
(dp3978
sg75
g3717
sg68
(lp3979
g61
(g82
g63
NtRp3980
(dp3981
g66
(dp3982
g86
g87
ssg75
g3976
sg68
(lp3983
S'flash'
p3984
asbag61
(g82
g63
NtRp3985
(dp3986
g66
(dp3987
g93
g94
ssg75
g3976
sg68
(lp3988
S':'
asbag61
(g82
g63
NtRp3989
(dp3990
g66
(dp3991
sg75
g3976
sg68
(lp3992
g61
(g62
g63
NtRp3993
(dp3994
g66
(dp3995
g74
I5
ssg75
g3989
sg68
(lp3996
S''
asbasbasbag61
(g77
g63
NtRp3997
(dp3998
g66
(dp3999
sg75
g3717
sg68
(lp4000
g61
(g82
g63
NtRp4001
(dp4002
g66
(dp4003
g86
g87
ssg75
g3997
sg68
(lp4004
S'headers'
p4005
asbag61
(g82
g63
NtRp4006
(dp4007
g66
(dp4008
g93
g94
ssg75
g3997
sg68
(lp4009
S':'
asbag61
(g82
g63
NtRp4010
(dp4011
g66
(dp4012
sg75
g3997
sg68
(lp4013
g61
(g62
g63
NtRp4014
(dp4015
g66
(dp4016
g74
I5
ssg75
g4010
sg68
(lp4017
g61
(g70
g63
NtRp4018
(dp4019
g66
(dp4020
g74
I4
ssg75
Nsg68
(lp4021
g61
(g77
g63
NtRp4022
(dp4023
g66
(dp4024
sg75
g4018
sg68
(lp4025
g61
(g82
g63
NtRp4026
(dp4027
g66
(dp4028
g86
g87
ssg75
g4022
sg68
(lp4029
S'Cache-Control'
p4030
asbag61
(g82
g63
NtRp4031
(dp4032
g66
(dp4033
g93
g94
ssg75
g4022
sg68
(lp4034
S':'
asbag61
(g82
g63
NtRp4035
(dp4036
g66
(dp4037
sg75
g4022
sg68
(lp4038
g61
(g62
g63
NtRp4039
(dp4040
g66
(dp4041
g74
I4
ssg75
g4035
sg68
(lp4042
S'no-store, no-cache, must-revalidate, post-check=0, pre-check=0'
p4043
asbasbasbag61
(g77
g63
NtRp4044
(dp4045
g66
(dp4046
sg75
g4018
sg68
(lp4047
g61
(g82
g63
NtRp4048
(dp4049
g66
(dp4050
g86
g87
ssg75
g4044
sg68
(lp4051
S'Content-Type'
p4052
asbag61
(g82
g63
NtRp4053
(dp4054
g66
(dp4055
g93
g94
ssg75
g4044
sg68
(lp4056
S':'
asbag61
(g82
g63
NtRp4057
(dp4058
g66
(dp4059
sg75
g4044
sg68
(lp4060
g61
(g62
g63
NtRp4061
(dp4062
g66
(dp4063
g74
I4
ssg75
g4057
sg68
(lp4064
S'application/xml'
p4065
asbasbasbag61
(g77
g63
NtRp4066
(dp4067
g66
(dp4068
sg75
g4018
sg68
(lp4069
g61
(g82
g63
NtRp4070
(dp4071
g66
(dp4072
g86
g87
ssg75
g4066
sg68
(lp4073
S'Expires'
p4074
asbag61
(g82
g63
NtRp4075
(dp4076
g66
(dp4077
g93
g94
ssg75
g4066
sg68
(lp4078
S':'
asbag61
(g82
g63
NtRp4079
(dp4080
g66
(dp4081
sg75
g4066
sg68
(lp4082
g61
(g62
g63
NtRp4083
(dp4084
g66
(dp4085
g74
I4
ssg75
g4079
sg68
(lp4086
S'Mon, 04 Jul 2011 12:00:55 GMT'
p4087
asbasbasbag61
(g77
g63
NtRp4088
(dp4089
g66
(dp4090
sg75
g4018
sg68
(lp4091
g61
(g82
g63
NtRp4092
(dp4093
g66
(dp4094
g86
g87
ssg75
g4088
sg68
(lp4095
S'Pragma'
p4096
asbag61
(g82
g63
NtRp4097
(dp4098
g66
(dp4099
g93
g94
ssg75
g4088
sg68
(lp4100
S':'
asbag61
(g82
g63
NtRp4101
(dp4102
g66
(dp4103
sg75
g4088
sg68
(lp4104
g61
(g62
g63
NtRp4105
(dp4106
g66
(dp4107
g74
I4
ssg75
g4101
sg68
(lp4108
S'no-cache'
p4109
asbasbasbasbasbasbasbag61
(g77
g63
NtRp4110
(dp4111
g66
(dp4112
sg75
g3717
sg68
(lp4113
g61
(g82
g63
NtRp4114
(dp4115
g66
(dp4116
g86
g87
ssg75
g4110
sg68
(lp4117
S'menu'
p4118
asbag61
(g82
g63
NtRp4119
(dp4120
g66
(dp4121
g93
g94
ssg75
g4110
sg68
(lp4122
S':'
asbag61
(g82
g63
NtRp4123
(dp4124
g66
(dp4125
sg75
g4110
sg68
(lp4126
g61
(g62
g63
NtRp4127
(dp4128
g66
(dp4129
g74
I5
ssg75
g4123
sg68
(lp4130
g61
(g70
g63
NtRp4131
(dp4132
g66
(dp4133
g74
I4
ssg75
Nsg68
(lp4134
g61
(g77
g63
NtRp4135
(dp4136
g66
(dp4137
sg75
g4131
sg68
(lp4138
g61
(g82
g63
NtRp4139
(dp4140
g66
(dp4141
sg75
g4135
sg68
(lp4142
g61
(g62
g63
NtRp4143
(dp4144
g66
(dp4145
g74
I4
ssg75
g4139
sg68
(lp4146
g61
(g70
g63
NtRp4147
(dp4148
g66
(dp4149
g74
I3
ssg75
Nsg68
(lp4150
g61
(g77
g63
NtRp4151
(dp4152
g66
(dp4153
sg75
g4147
sg68
(lp4154
g61
(g82
g63
NtRp4155
(dp4156
g66
(dp4157
sg75
g4151
sg68
(lp4158
g61
(g62
g63
NtRp4159
(dp4160
g66
(dp4161
g74
I3
ssg75
g4155
sg68
(lp4162
cgluon.languages
lazyT_unpickle
p4163
(S's\x04\x00\x00\x00Home'
tRp4164
asbasbasbag61
(g77
g63
NtRp4165
(dp4166
g66
(dp4167
sg75
g4147
sg68
(lp4168
g61
(g82
g63
NtRp4169
(dp4170
g66
(dp4171
sg75
g4165
sg68
(lp4172
g61
(g62
g63
NtRp4173
(dp4174
g66
(dp4175
g74
I3
ssg75
g4169
sg68
(lp4176
g104
asbasbasbag61
(g77
g63
NtRp4177
(dp4178
g66
(dp4179
sg75
g4147
sg68
(lp4180
g61
(g82
g63
NtRp4181
(dp4182
g66
(dp4183
sg75
g4177
sg68
(lp4184
g61
(g62
g63
NtRp4185
(dp4186
g66
(dp4187
g74
I3
ssg75
g4181
sg68
(lp4188
S'/rdcdss/default/index'
p4189
asbasbasbag61
(g77
g63
NtRp4190
(dp4191
g66
(dp4192
sg75
g4147
sg68
(lp4193
g61
(g82
g63
NtRp4194
(dp4195
g66
(dp4196
sg75
g4190
sg68
(lp4197
g61
(g62
g63
NtRp4198
(dp4199
g66
(dp4200
g74
I3
ssg75
g4194
sg68
(lp4201
g61
(g70
g63
NtRp4202
(dp4203
g66
(dp4204
g74
I2
ssg75
Nsg68
(lp4205
sbasbasbasbasbasbasbasbag61
(g77
g63
NtRp4206
(dp4207
g66
(dp4208
sg75
g4131
sg68
(lp4209
g61
(g82
g63
NtRp4210
(dp4211
g66
(dp4212
sg75
g4206
sg68
(lp4213
g61
(g62
g63
NtRp4214
(dp4215
g66
(dp4216
g74
I4
ssg75
g4210
sg68
(lp4217
g61
(g70
g63
NtRp4218
(dp4219
g66
(dp4220
g74
I3
ssg75
Nsg68
(lp4221
g61
(g77
g63
NtRp4222
(dp4223
g66
(dp4224
sg75
g4218
sg68
(lp4225
g61
(g82
g63
NtRp4226
(dp4227
g66
(dp4228
sg75
g4222
sg68
(lp4229
g61
(g62
g63
NtRp4230
(dp4231
g66
(dp4232
g74
I3
ssg75
g4226
sg68
(lp4233
g4163
(S's\x08\x00\x00\x00This App'
tRp4234
asbasbasbag61
(g77
g63
NtRp4235
(dp4236
g66
(dp4237
sg75
g4218
sg68
(lp4238
g61
(g82
g63
NtRp4239
(dp4240
g66
(dp4241
sg75
g4235
sg68
(lp4242
g61
(g62
g63
NtRp4243
(dp4244
g66
(dp4245
g74
I3
ssg75
g4239
sg68
(lp4246
g104
asbasbasbag61
(g77
g63
NtRp4247
(dp4248
g66
(dp4249
sg75
g4218
sg68
(lp4250
g61
(g82
g63
NtRp4251
(dp4252
g66
(dp4253
sg75
g4247
sg68
(lp4254
g61
(g62
g63
NtRp4255
(dp4256
g66
(dp4257
g74
I3
ssg75
g4251
sg68
(lp4258
S'/admin/default/design/rdcdss'
p4259
asbasbasbag61
(g77
g63
NtRp4260
(dp4261
g66
(dp4262
sg75
g4218
sg68
(lp4263
g61
(g82
g63
NtRp4264
(dp4265
g66
(dp4266
sg75
g4260
sg68
(lp4267
g61
(g62
g63
NtRp4268
(dp4269
g66
(dp4270
g74
I3
ssg75
g4264
sg68
(lp4271
g61
(g70
g63
NtRp4272
(dp4273
g66
(dp4274
g74
I2
ssg75
Nsg68
(lp4275
g61
(g77
g63
NtRp4276
(dp4277
g66
(dp4278
sg75
g4272
sg68
(lp4279
g61
(g82
g63
NtRp4280
(dp4281
g66
(dp4282
sg75
g4276
sg68
(lp4283
g61
(g62
g63
NtRp4284
(dp4285
g66
(dp4286
g74
I2
ssg75
g4280
sg68
(lp4287
g61
(g70
g63
NtRp4288
(dp4289
g66
(dp4290
g74
I1
ssg75
Nsg68
(lp4291
g61
(g77
g63
NtRp4292
(dp4293
g66
(dp4294
sg75
g4288
sg68
(lp4295
g61
(g82
g63
NtRp4296
(dp4297
g66
(dp4298
sg75
g4292
sg68
(lp4299
g61
(g62
g63
NtRp4300
(dp4301
g66
(dp4302
g74
I1
ssg75
g4296
sg68
(lp4303
g4163
(S's\n\x00\x00\x00Controller'
tRp4304
asbasbasbag61
(g77
g63
NtRp4305
(dp4306
g66
(dp4307
sg75
g4288
sg68
(lp4308
g61
(g82
g63
NtRp4309
(dp4310
g66
(dp4311
sg75
g4305
sg68
(lp4312
g61
(g62
g63
NtRp4313
(dp4314
g66
(dp4315
g74
I1
ssg75
g4309
sg68
(lp4316
I00
asbasbasbag61
(g77
g63
NtRp4317
(dp4318
g66
(dp4319
sg75
g4288
sg68
(lp4320
g61
(g82
g63
NtRp4321
(dp4322
g66
(dp4323
sg75
g4317
sg68
(lp4324
g61
(g62
g63
NtRp4325
(dp4326
g66
(dp4327
g74
I1
ssg75
g4321
sg68
(lp4328
S'/admin/default/edit/rdcdss/controllers/default.py'
p4329
asbasbasbasbasbasbasbag61
(g77
g63
NtRp4330
(dp4331
g66
(dp4332
sg75
g4272
sg68
(lp4333
g61
(g82
g63
NtRp4334
(dp4335
g66
(dp4336
sg75
g4330
sg68
(lp4337
g61
(g62
g63
NtRp4338
(dp4339
g66
(dp4340
g74
I2
ssg75
g4334
sg68
(lp4341
g61
(g70
g63
NtRp4342
(dp4343
g66
(dp4344
g74
I1
ssg75
Nsg68
(lp4345
g61
(g77
g63
NtRp4346
(dp4347
g66
(dp4348
sg75
g4342
sg68
(lp4349
g61
(g82
g63
NtRp4350
(dp4351
g66
(dp4352
sg75
g4346
sg68
(lp4353
g61
(g62
g63
NtRp4354
(dp4355
g66
(dp4356
g74
I1
ssg75
g4350
sg68
(lp4357
g4163
(S's\x04\x00\x00\x00View'
tRp4358
asbasbasbag61
(g77
g63
NtRp4359
(dp4360
g66
(dp4361
sg75
g4342
sg68
(lp4362
g61
(g82
g63
NtRp4363
(dp4364
g66
(dp4365
sg75
g4359
sg68
(lp4366
g61
(g62
g63
NtRp4367
(dp4368
g66
(dp4369
g74
I1
ssg75
g4363
sg68
(lp4370
I00
asbasbasbag61
(g77
g63
NtRp4371
(dp4372
g66
(dp4373
sg75
g4342
sg68
(lp4374
g61
(g82
g63
NtRp4375
(dp4376
g66
(dp4377
sg75
g4371
sg68
(lp4378
g61
(g62
g63
NtRp4379
(dp4380
g66
(dp4381
g74
I1
ssg75
g4375
sg68
(lp4382
S'/admin/default/edit/rdcdss/views/default/index.xml'
p4383
asbasbasbasbasbasbasbag61
(g77
g63
NtRp4384
(dp4385
g66
(dp4386
sg75
g4272
sg68
(lp4387
g61
(g82
g63
NtRp4388
(dp4389
g66
(dp4390
sg75
g4384
sg68
(lp4391
g61
(g62
g63
NtRp4392
(dp4393
g66
(dp4394
g74
I2
ssg75
g4388
sg68
(lp4395
g61
(g70
g63
NtRp4396
(dp4397
g66
(dp4398
g74
I1
ssg75
Nsg68
(lp4399
g61
(g77
g63
NtRp4400
(dp4401
g66
(dp4402
sg75
g4396
sg68
(lp4403
g61
(g82
g63
NtRp4404
(dp4405
g66
(dp4406
sg75
g4400
sg68
(lp4407
g61
(g62
g63
NtRp4408
(dp4409
g66
(dp4410
g74
I1
ssg75
g4404
sg68
(lp4411
g4163
(S's\x06\x00\x00\x00Layout'
tRp4412
asbasbasbag61
(g77
g63
NtRp4413
(dp4414
g66
(dp4415
sg75
g4396
sg68
(lp4416
g61
(g82
g63
NtRp4417
(dp4418
g66
(dp4419
sg75
g4413
sg68
(lp4420
g61
(g62
g63
NtRp4421
(dp4422
g66
(dp4423
g74
I1
ssg75
g4417
sg68
(lp4424
I00
asbasbasbag61
(g77
g63
NtRp4425
(dp4426
g66
(dp4427
sg75
g4396
sg68
(lp4428
g61
(g82
g63
NtRp4429
(dp4430
g66
(dp4431
sg75
g4425
sg68
(lp4432
g61
(g62
g63
NtRp4433
(dp4434
g66
(dp4435
g74
I1
ssg75
g4429
sg68
(lp4436
S'/admin/default/edit/rdcdss/views/layout.html'
p4437
asbasbasbasbasbasbasbag61
(g77
g63
NtRp4438
(dp4439
g66
(dp4440
sg75
g4272
sg68
(lp4441
g61
(g82
g63
NtRp4442
(dp4443
g66
(dp4444
sg75
g4438
sg68
(lp4445
g61
(g62
g63
NtRp4446
(dp4447
g66
(dp4448
g74
I2
ssg75
g4442
sg68
(lp4449
g61
(g70
g63
NtRp4450
(dp4451
g66
(dp4452
g74
I1
ssg75
Nsg68
(lp4453
g61
(g77
g63
NtRp4454
(dp4455
g66
(dp4456
sg75
g4450
sg68
(lp4457
g61
(g82
g63
NtRp4458
(dp4459
g66
(dp4460
sg75
g4454
sg68
(lp4461
g61
(g62
g63
NtRp4462
(dp4463
g66
(dp4464
g74
I1
ssg75
g4458
sg68
(lp4465
g4163
(S's\n\x00\x00\x00Stylesheet'
tRp4466
asbasbasbag61
(g77
g63
NtRp4467
(dp4468
g66
(dp4469
sg75
g4450
sg68
(lp4470
g61
(g82
g63
NtRp4471
(dp4472
g66
(dp4473
sg75
g4467
sg68
(lp4474
g61
(g62
g63
NtRp4475
(dp4476
g66
(dp4477
g74
I1
ssg75
g4471
sg68
(lp4478
I00
asbasbasbag61
(g77
g63
NtRp4479
(dp4480
g66
(dp4481
sg75
g4450
sg68
(lp4482
g61
(g82
g63
NtRp4483
(dp4484
g66
(dp4485
sg75
g4479
sg68
(lp4486
g61
(g62
g63
NtRp4487
(dp4488
g66
(dp4489
g74
I1
ssg75
g4483
sg68
(lp4490
S'/admin/default/edit/rdcdss/static/base.css'
p4491
asbasbasbasbasbasbasbag61
(g77
g63
NtRp4492
(dp4493
g66
(dp4494
sg75
g4272
sg68
(lp4495
g61
(g82
g63
NtRp4496
(dp4497
g66
(dp4498
sg75
g4492
sg68
(lp4499
g61
(g62
g63
NtRp4500
(dp4501
g66
(dp4502
g74
I2
ssg75
g4496
sg68
(lp4503
g61
(g70
g63
NtRp4504
(dp4505
g66
(dp4506
g74
I1
ssg75
Nsg68
(lp4507
g61
(g77
g63
NtRp4508
(dp4509
g66
(dp4510
sg75
g4504
sg68
(lp4511
g61
(g82
g63
NtRp4512
(dp4513
g66
(dp4514
sg75
g4508
sg68
(lp4515
g61
(g62
g63
NtRp4516
(dp4517
g66
(dp4518
g74
I1
ssg75
g4512
sg68
(lp4519
g4163
(S's\x08\x00\x00\x00DB Model'
tRp4520
asbasbasbag61
(g77
g63
NtRp4521
(dp4522
g66
(dp4523
sg75
g4504
sg68
(lp4524
g61
(g82
g63
NtRp4525
(dp4526
g66
(dp4527
sg75
g4521
sg68
(lp4528
g61
(g62
g63
NtRp4529
(dp4530
g66
(dp4531
g74
I1
ssg75
g4525
sg68
(lp4532
I00
asbasbasbag61
(g77
g63
NtRp4533
(dp4534
g66
(dp4535
sg75
g4504
sg68
(lp4536
g61
(g82
g63
NtRp4537
(dp4538
g66
(dp4539
sg75
g4533
sg68
(lp4540
g61
(g62
g63
NtRp4541
(dp4542
g66
(dp4543
g74
I1
ssg75
g4537
sg68
(lp4544
S'/admin/default/edit/rdcdss/models/db.py'
p4545
asbasbasbasbasbasbasbag61
(g77
g63
NtRp4546
(dp4547
g66
(dp4548
sg75
g4272
sg68
(lp4549
g61
(g82
g63
NtRp4550
(dp4551
g66
(dp4552
sg75
g4546
sg68
(lp4553
g61
(g62
g63
NtRp4554
(dp4555
g66
(dp4556
g74
I2
ssg75
g4550
sg68
(lp4557
g61
(g70
g63
NtRp4558
(dp4559
g66
(dp4560
g74
I1
ssg75
Nsg68
(lp4561
g61
(g77
g63
NtRp4562
(dp4563
g66
(dp4564
sg75
g4558
sg68
(lp4565
g61
(g82
g63
NtRp4566
(dp4567
g66
(dp4568
sg75
g4562
sg68
(lp4569
g61
(g62
g63
NtRp4570
(dp4571
g66
(dp4572
g74
I1
ssg75
g4566
sg68
(lp4573
g4163
(S's\n\x00\x00\x00Menu Model'
tRp4574
asbasbasbag61
(g77
g63
NtRp4575
(dp4576
g66
(dp4577
sg75
g4558
sg68
(lp4578
g61
(g82
g63
NtRp4579
(dp4580
g66
(dp4581
sg75
g4575
sg68
(lp4582
g61
(g62
g63
NtRp4583
(dp4584
g66
(dp4585
g74
I1
ssg75
g4579
sg68
(lp4586
I00
asbasbasbag61
(g77
g63
NtRp4587
(dp4588
g66
(dp4589
sg75
g4558
sg68
(lp4590
g61
(g82
g63
NtRp4591
(dp4592
g66
(dp4593
sg75
g4587
sg68
(lp4594
g61
(g62
g63
NtRp4595
(dp4596
g66
(dp4597
g74
I1
ssg75
g4591
sg68
(lp4598
S'/admin/default/edit/rdcdss/models/menu.py'
p4599
asbasbasbasbasbasbasbag61
(g77
g63
NtRp4600
(dp4601
g66
(dp4602
sg75
g4272
sg68
(lp4603
g61
(g82
g63
NtRp4604
(dp4605
g66
(dp4606
sg75
g4600
sg68
(lp4607
g61
(g62
g63
NtRp4608
(dp4609
g66
(dp4610
g74
I2
ssg75
g4604
sg68
(lp4611
g61
(g70
g63
NtRp4612
(dp4613
g66
(dp4614
g74
I1
ssg75
Nsg68
(lp4615
g61
(g77
g63
NtRp4616
(dp4617
g66
(dp4618
sg75
g4612
sg68
(lp4619
g61
(g82
g63
NtRp4620
(dp4621
g66
(dp4622
sg75
g4616
sg68
(lp4623
g61
(g62
g63
NtRp4624
(dp4625
g66
(dp4626
g74
I1
ssg75
g4620
sg68
(lp4627
g4163
(S's\x08\x00\x00\x00Database'
tRp4628
asbasbasbag61
(g77
g63
NtRp4629
(dp4630
g66
(dp4631
sg75
g4612
sg68
(lp4632
g61
(g82
g63
NtRp4633
(dp4634
g66
(dp4635
sg75
g4629
sg68
(lp4636
g61
(g62
g63
NtRp4637
(dp4638
g66
(dp4639
g74
I1
ssg75
g4633
sg68
(lp4640
I00
asbasbasbag61
(g77
g63
NtRp4641
(dp4642
g66
(dp4643
sg75
g4612
sg68
(lp4644
g61
(g82
g63
NtRp4645
(dp4646
g66
(dp4647
sg75
g4641
sg68
(lp4648
g61
(g62
g63
NtRp4649
(dp4650
g66
(dp4651
g74
I1
ssg75
g4645
sg68
(lp4652
S'/rdcdss/appadmin/index'
p4653
asbasbasbasbasbasbasbag61
(g77
g63
NtRp4654
(dp4655
g66
(dp4656
sg75
g4272
sg68
(lp4657
g61
(g82
g63
NtRp4658
(dp4659
g66
(dp4660
sg75
g4654
sg68
(lp4661
g61
(g62
g63
NtRp4662
(dp4663
g66
(dp4664
g74
I2
ssg75
g4658
sg68
(lp4665
g61
(g70
g63
NtRp4666
(dp4667
g66
(dp4668
g74
I1
ssg75
Nsg68
(lp4669
g61
(g77
g63
NtRp4670
(dp4671
g66
(dp4672
sg75
g4666
sg68
(lp4673
g61
(g82
g63
NtRp4674
(dp4675
g66
(dp4676
sg75
g4670
sg68
(lp4677
g61
(g62
g63
NtRp4678
(dp4679
g66
(dp4680
g74
I1
ssg75
g4674
sg68
(lp4681
g4163
(S's\x06\x00\x00\x00Errors'
tRp4682
asbasbasbag61
(g77
g63
NtRp4683
(dp4684
g66
(dp4685
sg75
g4666
sg68
(lp4686
g61
(g82
g63
NtRp4687
(dp4688
g66
(dp4689
sg75
g4683
sg68
(lp4690
g61
(g62
g63
NtRp4691
(dp4692
g66
(dp4693
g74
I1
ssg75
g4687
sg68
(lp4694
I00
asbasbasbag61
(g77
g63
NtRp4695
(dp4696
g66
(dp4697
sg75
g4666
sg68
(lp4698
g61
(g82
g63
NtRp4699
(dp4700
g66
(dp4701
sg75
g4695
sg68
(lp4702
g61
(g62
g63
NtRp4703
(dp4704
g66
(dp4705
g74
I1
ssg75
g4699
sg68
(lp4706
S'/admin/default/errors/rdcdss'
p4707
asbasbasbasbasbasbasbag61
(g77
g63
NtRp4708
(dp4709
g66
(dp4710
sg75
g4272
sg68
(lp4711
g61
(g82
g63
NtRp4712
(dp4713
g66
(dp4714
sg75
g4708
sg68
(lp4715
g61
(g62
g63
NtRp4716
(dp4717
g66
(dp4718
g74
I2
ssg75
g4712
sg68
(lp4719
g61
(g70
g63
NtRp4720
(dp4721
g66
(dp4722
g74
I1
ssg75
Nsg68
(lp4723
g61
(g77
g63
NtRp4724
(dp4725
g66
(dp4726
sg75
g4720
sg68
(lp4727
g61
(g82
g63
NtRp4728
(dp4729
g66
(dp4730
sg75
g4724
sg68
(lp4731
g61
(g62
g63
NtRp4732
(dp4733
g66
(dp4734
g74
I1
ssg75
g4728
sg68
(lp4735
g4163
(S's\x05\x00\x00\x00About'
tRp4736
asbasbasbag61
(g77
g63
NtRp4737
(dp4738
g66
(dp4739
sg75
g4720
sg68
(lp4740
g61
(g82
g63
NtRp4741
(dp4742
g66
(dp4743
sg75
g4737
sg68
(lp4744
g61
(g62
g63
NtRp4745
(dp4746
g66
(dp4747
g74
I1
ssg75
g4741
sg68
(lp4748
I00
asbasbasbag61
(g77
g63
NtRp4749
(dp4750
g66
(dp4751
sg75
g4720
sg68
(lp4752
g61
(g82
g63
NtRp4753
(dp4754
g66
(dp4755
sg75
g4749
sg68
(lp4756
g61
(g62
g63
NtRp4757
(dp4758
g66
(dp4759
g74
I1
ssg75
g4753
sg68
(lp4760
S'/admin/default/about/rdcdss'
p4761
asbasbasbasbasbasbasbasbasbasbasbasbasbasbasbag61
(g77
g63
NtRp4762
(dp4763
g66
(dp4764
sg75
g4131
sg68
(lp4765
g61
(g82
g63
NtRp4766
(dp4767
g66
(dp4768
sg75
g4762
sg68
(lp4769
g61
(g62
g63
NtRp4770
(dp4771
g66
(dp4772
g74
I4
ssg75
g4766
sg68
(lp4773
g61
(g70
g63
NtRp4774
(dp4775
g66
(dp4776
g74
I3
ssg75
Nsg68
(lp4777
g61
(g77
g63
NtRp4778
(dp4779
g66
(dp4780
sg75
g4774
sg68
(lp4781
g61
(g82
g63
NtRp4782
(dp4783
g66
(dp4784
sg75
g4778
sg68
(lp4785
g61
(g62
g63
NtRp4786
(dp4787
g66
(dp4788
g74
I3
ssg75
g4782
sg68
(lp4789
g4163
(S's\t\x00\x00\x00Resources'
tRp4790
asbasbasbag61
(g77
g63
NtRp4791
(dp4792
g66
(dp4793
sg75
g4774
sg68
(lp4794
g61
(g82
g63
NtRp4795
(dp4796
g66
(dp4797
sg75
g4791
sg68
(lp4798
g61
(g62
g63
NtRp4799
(dp4800
g66
(dp4801
g74
I3
ssg75
g4795
sg68
(lp4802
g104
asbasbasbag61
(g77
g63
NtRp4803
(dp4804
g66
(dp4805
sg75
g4774
sg68
(lp4806
g61
(g82
g63
NtRp4807
(dp4808
g66
(dp4809
sg75
g4803
sg68
(lp4810
g61
(g62
g63
NtRp4811
(dp4812
g66
(dp4813
g74
I3
ssg75
g4807
sg68
(lp4814
S'None'
p4815
asbasbasbag61
(g77
g63
NtRp4816
(dp4817
g66
(dp4818
sg75
g4774
sg68
(lp4819
g61
(g82
g63
NtRp4820
(dp4821
g66
(dp4822
sg75
g4816
sg68
(lp4823
g61
(g62
g63
NtRp4824
(dp4825
g66
(dp4826
g74
I3
ssg75
g4820
sg68
(lp4827
g61
(g70
g63
NtRp4828
(dp4829
g66
(dp4830
g74
I2
ssg75
Nsg68
(lp4831
g61
(g77
g63
NtRp4832
(dp4833
g66
(dp4834
sg75
g4828
sg68
(lp4835
g61
(g82
g63
NtRp4836
(dp4837
g66
(dp4838
sg75
g4832
sg68
(lp4839
g61
(g62
g63
NtRp4840
(dp4841
g66
(dp4842
g74
I2
ssg75
g4836
sg68
(lp4843
g61
(g70
g63
NtRp4844
(dp4845
g66
(dp4846
g74
I1
ssg75
Nsg68
(lp4847
g61
(g77
g63
NtRp4848
(dp4849
g66
(dp4850
sg75
g4844
sg68
(lp4851
g61
(g82
g63
NtRp4852
(dp4853
g66
(dp4854
sg75
g4848
sg68
(lp4855
g61
(g62
g63
NtRp4856
(dp4857
g66
(dp4858
g74
I1
ssg75
g4852
sg68
(lp4859
g4163
(S's\r\x00\x00\x00Documentation'
tRp4860
asbasbasbag61
(g77
g63
NtRp4861
(dp4862
g66
(dp4863
sg75
g4844
sg68
(lp4864
g61
(g82
g63
NtRp4865
(dp4866
g66
(dp4867
sg75
g4861
sg68
(lp4868
g61
(g62
g63
NtRp4869
(dp4870
g66
(dp4871
g74
I1
ssg75
g4865
sg68
(lp4872
I00
asbasbasbag61
(g77
g63
NtRp4873
(dp4874
g66
(dp4875
sg75
g4844
sg68
(lp4876
g61
(g82
g63
NtRp4877
(dp4878
g66
(dp4879
sg75
g4873
sg68
(lp4880
g61
(g62
g63
NtRp4881
(dp4882
g66
(dp4883
g74
I1
ssg75
g4877
sg68
(lp4884
S'http://www.web2py.com/book'
p4885
asbasbasbag61
(g77
g63
NtRp4886
(dp4887
g66
(dp4888
sg75
g4844
sg68
(lp4889
g61
(g82
g63
NtRp4890
(dp4891
g66
(dp4892
sg75
g4886
sg68
(lp4893
g61
(g62
g63
NtRp4894
(dp4895
g66
(dp4896
g74
I1
ssg75
g4890
sg68
(lp4897
(lp4898
(g4163
(S's\x07\x00\x00\x00Preface'
tRp4899
I00
S'http://www.web2py.com/book/default/chapter/00'
tp4900
a(g4163
(S's\x0c\x00\x00\x00Introduction'
tRp4901
I00
S'http://www.web2py.com/book/default/chapter/01'
tp4902
a(g4163
(S's\x06\x00\x00\x00Python'
tRp4903
I00
S'http://www.web2py.com/book/default/chapter/02'
tp4904
a(g4163
(S's\x08\x00\x00\x00Overview'
tRp4905
I00
S'http://www.web2py.com/book/default/chapter/03'
tp4906
a(g4163
(S's\x08\x00\x00\x00The Core'
tRp4907
I00
S'http://www.web2py.com/book/default/chapter/04'
tp4908
a(g4163
(S's\t\x00\x00\x00The Views'
tRp4909
I00
S'http://www.web2py.com/book/default/chapter/05'
tp4910
a(g4163
(S's\x08\x00\x00\x00Database'
tRp4911
I00
S'http://www.web2py.com/book/default/chapter/06'
tp4912
a(g4163
(S's\x14\x00\x00\x00Forms and Validators'
tRp4913
I00
S'http://www.web2py.com/book/default/chapter/07'
tp4914
a(g4163
(S's\x0e\x00\x00\x00Access Control'
tRp4915
I00
S'http://www.web2py.com/book/default/chapter/08'
tp4916
a(g4163
(S's\x08\x00\x00\x00Services'
tRp4917
I00
S'http://www.web2py.com/book/default/chapter/09'
tp4918
a(g4163
(S's\x0c\x00\x00\x00Ajax Recipes'
tRp4919
I00
S'http://www.web2py.com/book/default/chapter/10'
tp4920
a(g4163
(S's\x12\x00\x00\x00Deployment Recipes'
tRp4921
I00
S'http://www.web2py.com/book/default/chapter/11'
tp4922
a(g4163
(S's\r\x00\x00\x00Other Recipes'
tRp4923
I00
S'http://www.web2py.com/book/default/chapter/12'
tp4924
a(g4163
(S's\r\x00\x00\x00Buy this book'
tRp4925
I00
S'http://stores.lulu.com/web2py'
tp4926
aasbasbasbasbasbasbasbag61
(g77
g63
NtRp4927
(dp4928
g66
(dp4929
sg75
g4828
sg68
(lp4930
g61
(g82
g63
NtRp4931
(dp4932
g66
(dp4933
sg75
g4927
sg68
(lp4934
g61
(g62
g63
NtRp4935
(dp4936
g66
(dp4937
g74
I2
ssg75
g4931
sg68
(lp4938
g61
(g70
g63
NtRp4939
(dp4940
g66
(dp4941
g74
I1
ssg75
Nsg68
(lp4942
g61
(g77
g63
NtRp4943
(dp4944
g66
(dp4945
sg75
g4939
sg68
(lp4946
g61
(g82
g63
NtRp4947
(dp4948
g66
(dp4949
sg75
g4943
sg68
(lp4950
g61
(g62
g63
NtRp4951
(dp4952
g66
(dp4953
g74
I1
ssg75
g4947
sg68
(lp4954
g4163
(S's\t\x00\x00\x00Community'
tRp4955
asbasbasbag61
(g77
g63
NtRp4956
(dp4957
g66
(dp4958
sg75
g4939
sg68
(lp4959
g61
(g82
g63
NtRp4960
(dp4961
g66
(dp4962
sg75
g4956
sg68
(lp4963
g61
(g62
g63
NtRp4964
(dp4965
g66
(dp4966
g74
I1
ssg75
g4960
sg68
(lp4967
I00
asbasbasbag61
(g77
g63
NtRp4968
(dp4969
g66
(dp4970
sg75
g4939
sg68
(lp4971
g61
(g82
g63
NtRp4972
(dp4973
g66
(dp4974
sg75
g4968
sg68
(lp4975
g61
(g62
g63
NtRp4976
(dp4977
g66
(dp4978
g74
I1
ssg75
g4972
sg68
(lp4979
Nasbasbasbag61
(g77
g63
NtRp4980
(dp4981
g66
(dp4982
sg75
g4939
sg68
(lp4983
g61
(g82
g63
NtRp4984
(dp4985
g66
(dp4986
sg75
g4980
sg68
(lp4987
g61
(g62
g63
NtRp4988
(dp4989
g66
(dp4990
g74
I1
ssg75
g4984
sg68
(lp4991
(lp4992
(g4163
(S's\x06\x00\x00\x00Groups'
tRp4993
I00
S'http://www.web2py.com/examples/default/usergroups'
tp4994
a(g4163
(S's\x07\x00\x00\x00Twitter'
tRp4995
I00
S'http://twitter.com/web2py'
tp4996
a(g4163
(S's\t\x00\x00\x00Live chat'
tRp4997
I00
S'http://mibbit.com/?channel=%23web2py&server=irc.mibbit.net'
tp4998
a(g4163
(S's\n\x00\x00\x00User Voice'
tRp4999
I00
S'http://web2py.uservoice.com/'
tp5000
aasbasbasbasbasbasbasbag61
(g77
g63
NtRp5001
(dp5002
g66
(dp5003
sg75
g4828
sg68
(lp5004
g61
(g82
g63
NtRp5005
(dp5006
g66
(dp5007
sg75
g5001
sg68
(lp5008
g61
(g62
g63
NtRp5009
(dp5010
g66
(dp5011
g74
I2
ssg75
g5005
sg68
(lp5012
g61
(g70
g63
NtRp5013
(dp5014
g66
(dp5015
g74
I1
ssg75
Nsg68
(lp5016
g61
(g77
g63
NtRp5017
(dp5018
g66
(dp5019
sg75
g5013
sg68
(lp5020
g61
(g82
g63
NtRp5021
(dp5022
g66
(dp5023
sg75
g5017
sg68
(lp5024
g61
(g62
g63
NtRp5025
(dp5026
g66
(dp5027
g74
I1
ssg75
g5021
sg68
(lp5028
g4163
(S's\x06\x00\x00\x00Web2py'
tRp5029
asbasbasbag61
(g77
g63
NtRp5030
(dp5031
g66
(dp5032
sg75
g5013
sg68
(lp5033
g61
(g82
g63
NtRp5034
(dp5035
g66
(dp5036
sg75
g5030
sg68
(lp5037
g61
(g62
g63
NtRp5038
(dp5039
g66
(dp5040
g74
I1
ssg75
g5034
sg68
(lp5041
I00
asbasbasbag61
(g77
g63
NtRp5042
(dp5043
g66
(dp5044
sg75
g5013
sg68
(lp5045
g61
(g82
g63
NtRp5046
(dp5047
g66
(dp5048
sg75
g5042
sg68
(lp5049
g61
(g62
g63
NtRp5050
(dp5051
g66
(dp5052
g74
I1
ssg75
g5046
sg68
(lp5053
S'http://www.web2py.com'
p5054
asbasbasbag61
(g77
g63
NtRp5055
(dp5056
g66
(dp5057
sg75
g5013
sg68
(lp5058
g61
(g82
g63
NtRp5059
(dp5060
g66
(dp5061
sg75
g5055
sg68
(lp5062
g61
(g62
g63
NtRp5063
(dp5064
g66
(dp5065
g74
I1
ssg75
g5059
sg68
(lp5066
(lp5067
(g4163
(S's\x08\x00\x00\x00Download'
tRp5068
I00
S'http://www.web2py.com/examples/default/download'
tp5069
a(g4163
(S's\x07\x00\x00\x00Support'
tRp5070
I00
S'http://www.web2py.com/examples/default/support'
tp5071
a(g4163
(S's\x0e\x00\x00\x00Quick Examples'
tRp5072
I00
S'http://web2py.com/examples/default/examples'
tp5073
a(g4163
(S's\x03\x00\x00\x00FAQ'
tRp5074
I00
S'http://web2py.com/AlterEgo'
tp5075
a(g4163
(S's\x11\x00\x00\x00Free Applications'
tRp5076
I00
S'http://web2py.com/appliances'
tp5077
a(g4163
(S's\x07\x00\x00\x00Plugins'
tRp5078
I00
S'http://web2py.com/plugins'
tp5079
a(g4163
(S's\x07\x00\x00\x00Recipes'
tRp5080
I00
S'http://web2pyslices.com/'
tp5081
a(g4163
(S's\x04\x00\x00\x00Demo'
tRp5082
I00
S'http://web2py.com/demo_admin'
tp5083
a(g4163
(S's\x08\x00\x00\x00Semantic'
tRp5084
I00
S'http://web2py.com/semantic'
tp5085
a(g4163
(S's\x07\x00\x00\x00Layouts'
tRp5086
I00
S'http://web2py.com/layouts'
tp5087
a(g4163
(S's\x06\x00\x00\x00Videos'
tRp5088
I00
S'http://www.web2py.com/examples/default/videos/'
tp5089
aasbasbasbasbasbasbasbasbasbasbasbasbasbasbasbasbasbasbasbag61
(g77
g63
NtRp5090
(dp5091
g66
(dp5092
sg75
g3717
sg68
(lp5093
g61
(g82
g63
NtRp5094
(dp5095
g66
(dp5096
g86
g87
ssg75
g5090
sg68
(lp5097
S'meta'
p5098
asbag61
(g82
g63
NtRp5099
(dp5100
g66
(dp5101
g93
g94
ssg75
g5090
sg68
(lp5102
S':'
asbag61
(g82
g63
NtRp5103
(dp5104
g66
(dp5105
sg75
g5090
sg68
(lp5106
g61
(g62
g63
NtRp5107
(dp5108
g66
(dp5109
g74
I5
ssg75
g5103
sg68
(lp5110
g61
(g70
g63
NtRp5111
(dp5112
g66
(dp5113
g74
I4
ssg75
Nsg68
(lp5114
g61
(g77
g63
NtRp5115
(dp5116
g66
(dp5117
sg75
g5111
sg68
(lp5118
g61
(g82
g63
NtRp5119
(dp5120
g66
(dp5121
g86
g87
ssg75
g5115
sg68
(lp5122
S'author'
p5123
asbag61
(g82
g63
NtRp5124
(dp5125
g66
(dp5126
g93
g94
ssg75
g5115
sg68
(lp5127
S':'
asbag61
(g82
g63
NtRp5128
(dp5129
g66
(dp5130
sg75
g5115
sg68
(lp5131
g61
(g62
g63
NtRp5132
(dp5133
g66
(dp5134
g74
I4
ssg75
g5128
sg68
(lp5135
S'you'
p5136
asbasbasbag61
(g77
g63
NtRp5137
(dp5138
g66
(dp5139
sg75
g5111
sg68
(lp5140
g61
(g82
g63
NtRp5141
(dp5142
g66
(dp5143
g86
g87
ssg75
g5137
sg68
(lp5144
S'copyright'
p5145
asbag61
(g82
g63
NtRp5146
(dp5147
g66
(dp5148
g93
g94
ssg75
g5137
sg68
(lp5149
S':'
asbag61
(g82
g63
NtRp5150
(dp5151
g66
(dp5152
sg75
g5137
sg68
(lp5153
g61
(g62
g63
NtRp5154
(dp5155
g66
(dp5156
g74
I4
ssg75
g5150
sg68
(lp5157
S'Copyright 2007-2010'
p5158
asbasbasbag61
(g77
g63
NtRp5159
(dp5160
g66
(dp5161
sg75
g5111
sg68
(lp5162
g61
(g82
g63
NtRp5163
(dp5164
g66
(dp5165
g86
g87
ssg75
g5159
sg68
(lp5166
S'description'
p5167
asbag61
(g82
g63
NtRp5168
(dp5169
g66
(dp5170
g93
g94
ssg75
g5159
sg68
(lp5171
S':'
asbag61
(g82
g63
NtRp5172
(dp5173
g66
(dp5174
sg75
g5159
sg68
(lp5175
g61
(g62
g63
NtRp5176
(dp5177
g66
(dp5178
g74
I4
ssg75
g5172
sg68
(lp5179
S'Free and open source full-stack enterprise framework for agile development of fast, scalable, secure and portable database-driven web-based applications. Written and programmable in Python'
p5180
asbasbasbag61
(g77
g63
NtRp5181
(dp5182
g66
(dp5183
sg75
g5111
sg68
(lp5184
g61
(g82
g63
NtRp5185
(dp5186
g66
(dp5187
g86
g87
ssg75
g5181
sg68
(lp5188
S'generator'
p5189
asbag61
(g82
g63
NtRp5190
(dp5191
g66
(dp5192
g93
g94
ssg75
g5181
sg68
(lp5193
S':'
asbag61
(g82
g63
NtRp5194
(dp5195
g66
(dp5196
sg75
g5181
sg68
(lp5197
g61
(g62
g63
NtRp5198
(dp5199
g66
(dp5200
g74
I4
ssg75
g5194
sg68
(lp5201
S'Web2py Enterprise Framework'
p5202
asbasbasbag61
(g77
g63
NtRp5203
(dp5204
g66
(dp5205
sg75
g5111
sg68
(lp5206
g61
(g82
g63
NtRp5207
(dp5208
g66
(dp5209
g86
g87
ssg75
g5203
sg68
(lp5210
S'keywords'
p5211
asbag61
(g82
g63
NtRp5212
(dp5213
g66
(dp5214
g93
g94
ssg75
g5203
sg68
(lp5215
S':'
asbag61
(g82
g63
NtRp5216
(dp5217
g66
(dp5218
sg75
g5203
sg68
(lp5219
g61
(g62
g63
NtRp5220
(dp5221
g66
(dp5222
g74
I4
ssg75
g5216
sg68
(lp5223
S'web2py, python, framework'
p5224
asbasbasbasbasbasbasbag61
(g77
g63
NtRp5225
(dp5226
g66
(dp5227
sg75
g3717
sg68
(lp5228
g61
(g82
g63
NtRp5229
(dp5230
g66
(dp5231
g86
g87
ssg75
g5225
sg68
(lp5232
S'postprocessing'
p5233
asbag61
(g82
g63
NtRp5234
(dp5235
g66
(dp5236
g93
g94
ssg75
g5225
sg68
(lp5237
S':'
asbag61
(g82
g63
NtRp5238
(dp5239
g66
(dp5240
sg75
g5225
sg68
(lp5241
g61
(g62
g63
NtRp5242
(dp5243
g66
(dp5244
g74
I5
ssg75
g5238
sg68
(lp5245
g61
(g70
g63
NtRp5246
(dp5247
g66
(dp5248
g74
I4
ssg75
Nsg68
(lp5249
sbasbasbasbag61
(g77
g63
NtRp5250
(dp5251
g66
(dp5252
sg75
g3717
sg68
(lp5253
g61
(g82
g63
NtRp5254
(dp5255
g66
(dp5256
g86
g87
ssg75
g5250
sg68
(lp5257
S'session_file'
p5258
asbag61
(g82
g63
NtRp5259
(dp5260
g66
(dp5261
g93
g94
ssg75
g5250
sg68
(lp5262
S':'
asbag61
(g82
g63
NtRp5263
(dp5264
g66
(dp5265
sg75
g5250
sg68
(lp5266
g61
(g62
g63
NtRp5267
(dp5268
g66
(dp5269
g74
I5
ssg75
g5263
sg68
(lp5270
S"<open file '/home/www-data/web2py/applications/rdcdss/sessions/89.123.39.111-97c6888c-e310-48f9-83c5-3c554d897ae7', mode 'rb+' at 0x2b50bfe18c90>"
p5271
asbasbasbag61
(g77
g63
NtRp5272
(dp5273
g66
(dp5274
sg75
g3717
sg68
(lp5275
g61
(g82
g63
NtRp5276
(dp5277
g66
(dp5278
g86
g87
ssg75
g5272
sg68
(lp5279
S'session_filename'
p5280
asbag61
(g82
g63
NtRp5281
(dp5282
g66
(dp5283
g93
g94
ssg75
g5272
sg68
(lp5284
S':'
asbag61
(g82
g63
NtRp5285
(dp5286
g66
(dp5287
sg75
g5272
sg68
(lp5288
g61
(g62
g63
NtRp5289
(dp5290
g66
(dp5291
g74
I5
ssg75
g5285
sg68
(lp5292
S'/home/www-data/web2py/applications/rdcdss/sessions/89.123.39.111-97c6888c-e310-48f9-83c5-3c554d897ae7'
p5293
asbasbasbag61
(g77
g63
NtRp5294
(dp5295
g66
(dp5296
sg75
g3717
sg68
(lp5297
g61
(g82
g63
NtRp5298
(dp5299
g66
(dp5300
g86
g87
ssg75
g5294
sg68
(lp5301
S'session_id'
p5302
asbag61
(g82
g63
NtRp5303
(dp5304
g66
(dp5305
g93
g94
ssg75
g5294
sg68
(lp5306
S':'
asbag61
(g82
g63
NtRp5307
(dp5308
g66
(dp5309
sg75
g5294
sg68
(lp5310
g61
(g62
g63
NtRp5311
(dp5312
g66
(dp5313
g74
I5
ssg75
g5307
sg68
(lp5314
S'89.123.39.111-97c6888c-e310-48f9-83c5-3c554d897ae7'
p5315
asbasbasbag61
(g77
g63
NtRp5316
(dp5317
g66
(dp5318
sg75
g3717
sg68
(lp5319
g61
(g82
g63
NtRp5320
(dp5321
g66
(dp5322
g86
g87
ssg75
g5316
sg68
(lp5323
S'session_id_name'
p5324
asbag61
(g82
g63
NtRp5325
(dp5326
g66
(dp5327
g93
g94
ssg75
g5316
sg68
(lp5328
S':'
asbag61
(g82
g63
NtRp5329
(dp5330
g66
(dp5331
sg75
g5316
sg68
(lp5332
g61
(g62
g63
NtRp5333
(dp5334
g66
(dp5335
g74
I5
ssg75
g5329
sg68
(lp5336
g3774
asbasbasbag61
(g77
g63
NtRp5337
(dp5338
g66
(dp5339
sg75
g3717
sg68
(lp5340
g61
(g82
g63
NtRp5341
(dp5342
g66
(dp5343
g86
g87
ssg75
g5337
sg68
(lp5344
S'session_locked'
p5345
asbag61
(g82
g63
NtRp5346
(dp5347
g66
(dp5348
g93
g94
ssg75
g5337
sg68
(lp5349
S':'
asbag61
(g82
g63
NtRp5350
(dp5351
g66
(dp5352
sg75
g5337
sg68
(lp5353
g61
(g62
g63
NtRp5354
(dp5355
g66
(dp5356
g74
I5
ssg75
g5350
sg68
(lp5357
g2130
asbasbasbag61
(g77
g63
NtRp5358
(dp5359
g66
(dp5360
sg75
g3717
sg68
(lp5361
g61
(g82
g63
NtRp5362
(dp5363
g66
(dp5364
g86
g87
ssg75
g5358
sg68
(lp5365
S'session_new'
p5366
asbag61
(g82
g63
NtRp5367
(dp5368
g66
(dp5369
g93
g94
ssg75
g5358
sg68
(lp5370
S':'
asbag61
(g82
g63
NtRp5371
(dp5372
g66
(dp5373
sg75
g5358
sg68
(lp5374
g61
(g62
g63
NtRp5375
(dp5376
g66
(dp5377
g74
I5
ssg75
g5371
sg68
(lp5378
g104
asbasbasbag61
(g77
g63
NtRp5379
(dp5380
g66
(dp5381
sg75
g3717
sg68
(lp5382
g61
(g82
g63
NtRp5383
(dp5384
g66
(dp5385
g86
g87
ssg75
g5379
sg68
(lp5386
S'status'
p5387
asbag61
(g82
g63
NtRp5388
(dp5389
g66
(dp5390
g93
g94
ssg75
g5379
sg68
(lp5391
S':'
asbag61
(g82
g63
NtRp5392
(dp5393
g66
(dp5394
sg75
g5379
sg68
(lp5395
g61
(g62
g63
NtRp5396
(dp5397
g66
(dp5398
g74
I5
ssg75
g5392
sg68
(lp5399
S'200'
p5400
asbasbasbag61
(g77
g63
NtRp5401
(dp5402
g66
(dp5403
sg75
g3717
sg68
(lp5404
g61
(g82
g63
NtRp5405
(dp5406
g66
(dp5407
g86
g87
ssg75
g5401
sg68
(lp5408
S'subtitle'
p5409
asbag61
(g82
g63
NtRp5410
(dp5411
g66
(dp5412
g93
g94
ssg75
g5401
sg68
(lp5413
S':'
asbag61
(g82
g63
NtRp5414
(dp5415
g66
(dp5416
sg75
g5401
sg68
(lp5417
g61
(g62
g63
NtRp5418
(dp5419
g66
(dp5420
g74
I5
ssg75
g5414
sg68
(lp5421
g4163
(S's\r\x00\x00\x00customize me!'
tRp5422
asbasbasbag61
(g77
g63
NtRp5423
(dp5424
g66
(dp5425
sg75
g3717
sg68
(lp5426
g61
(g82
g63
NtRp5427
(dp5428
g66
(dp5429
g86
g87
ssg75
g5423
sg68
(lp5430
S'title'
p5431
asbag61
(g82
g63
NtRp5432
(dp5433
g66
(dp5434
g93
g94
ssg75
g5423
sg68
(lp5435
S':'
asbag61
(g82
g63
NtRp5436
(dp5437
g66
(dp5438
sg75
g5423
sg68
(lp5439
g61
(g62
g63
NtRp5440
(dp5441
g66
(dp5442
g74
I5
ssg75
g5436
sg68
(lp5443
g126
asbasbasbag61
(g77
g63
NtRp5444
(dp5445
g66
(dp5446
sg75
g3717
sg68
(lp5447
g61
(g82
g63
NtRp5448
(dp5449
g66
(dp5450
g86
g87
ssg75
g5444
sg68
(lp5451
g2454
asbag61
(g82
g63
NtRp5452
(dp5453
g66
(dp5454
g93
g94
ssg75
g5444
sg68
(lp5455
S':'
asbag61
(g82
g63
NtRp5456
(dp5457
g66
(dp5458
sg75
g5444
sg68
(lp5459
g61
(g62
g63
NtRp5460
(dp5461
g66
(dp5462
g74
I5
ssg75
g5456
sg68
(lp5463
g2467
asbasbasbag61
(g77
g63
NtRp5464
(dp5465
g66
(dp5466
sg75
g3717
sg68
(lp5467
g61
(g82
g63
NtRp5468
(dp5469
g66
(dp5470
g86
g87
ssg75
g5464
sg68
(lp5471
S'view'
p5472
asbag61
(g82
g63
NtRp5473
(dp5474
g66
(dp5475
g93
g94
ssg75
g5464
sg68
(lp5476
S':'
asbag61
(g82
g63
NtRp5477
(dp5478
g66
(dp5479
sg75
g5464
sg68
(lp5480
g61
(g62
g63
NtRp5481
(dp5482
g66
(dp5483
g74
I5
ssg75
g5477
sg68
(lp5484
S'default/index.xml'
p5485
asbasbasbasbasbsS'locals'
p5486
(dp5487
S'distable'
p5488
S"''"
p5489
sS'RUNQUERYPATH'
p5490
S"'../master/code/runQuery/'"
p5491
sS'checked'
p5492
S'None'
p5493
sS'diseases'
p5494
S"'CHECKED'"
p5495
sS'hashstring'
p5496
S"'b74fa88554d13dc39c5da7d455cf5c3d'"
p5497
sS'timer'
p5498
S"''"
p5499
sS't0'
p5500
S'2.3599999999999999'
p5501
sS'table'
p5502
S"''"
p5503
sS'collection'
p5504
S"''"
p5505
sS'query'
p5506
S"'anemia'"
p5507
sS'logfile'
p5508
S"<open file 'logs/89.123.39.111-97c6888c-e310-48f9-83c5-3c554d897ae7', mode 'a'>"
p5509
sssS'traceback'
p5510
S'Traceback (most recent call last):\n  File "/home/www-data/web2py/gluon/restricted.py", line 181, in restricted\n    exec ccode in environment\n  File "/home/www-data/web2py/applications/rdcdss/controllers/default.py", line 233, in <module>\n  File "/home/www-data/web2py/gluon/globals.py", line 133, in <lambda>\n    self._caller = lambda f: f()\n  File "/home/www-data/web2py/applications/rdcdss/controllers/default.py", line 49, in index\n    db.t_resdis.import_from_csv_file(open(os.getcwd()+\'/results/\'+hashstring+\'.dis\',\'r\'))\nIOError: [Errno 2] No such file or directory: \'/home/www-data/web2py/results/b74fa88554d13dc39c5da7d455cf5c3d.dis\'\n'
p5511
s.