(dp1
S'output'
p2
S''
sS'layer'
p3
S'/home/www-data/web2py/applications/rdcdss/views/generic.pdf'
p4
sS'code'
p5
S'import re\nfrom gluon.contrib.markmin.markmin2pdf import markmin2pdf\ndef markmin_serializer(text,tag=None,attr={}):\n    if tag==None: return re.sub(\'\\s+\',\' \',text)\n    if tag==\'br\': return \'\\n\\n\'\n    if tag==\'h1\': return \'# \'+text+\'\\n\\n\'\n    if tag==\'h2\': return \'#\'*2+\' \'+text+\'\\n\\n\'\n    if tag==\'h3\': return \'#\'*3+\' \'+text+\'\\n\\n\'\n    if tag==\'h4\': return \'#\'*4+\' \'+text+\'\\n\\n\'\n    if tag==\'p\': return text+\'\\n\\n\'\n    if tag==\'li\': return \'\\n- \'+text.replace(\'\\n\',\' \')\n    if tag==\'tr\': return text[3:].replace(\'\\n\',\' \')+\'\\n\'\n    if tag in [\'table\',\'blockquote\']: return \'\\n-----\\n\'+text+\'\\n------\\n\'\n    if tag in [\'td\',\'th\']: return \' | \'+text\n    if tag in [\'b\',\'strong\',\'label\']: return \'**%s**\' % text\n    if tag in [\'em\',\'i\']: return "\'\'%s\'\'" % text\n    if tag in [\'tt\',\'code\']: return \'``%s``\' % text\n    if tag==\'a\': return \'[[%s %s]]\' % (text,attr.get(\'_href\',\'\'))\n    return text\nhtml=response.render(\'%s/%s.html\' % (request.controller,request.function))\nmarkmin=TAG(html).element(\'#content\').flatten(markmin_serializer)\npdf,warnings,errors=markmin2pdf(markmin)\nif errors:\n    response.headers[\'Content-Type\']=\'text\'\n    response.write(HTML(BODY(H1(\'errors\'),LU(*errors),H1(\'warnings\'),LU(*warnings))))\nelse:\n    response.headers[\'Content-Type\']=\'application/pdf\'\n    response.write(pdf,escape=False)\n    pass\nresponse.write(\'\\n\', escape=False)'
p6
sS'snapshot'
p7
(dp8
S'exception'
p9
(dp10
S'__hash__'
p11
S"<method-wrapper '__hash__' of exceptions.RuntimeError object>"
p12
sS'__setattr__'
p13
S"<method-wrapper '__setattr__' of exceptions.RuntimeError object>"
p14
sS'__reduce_ex__'
p15
S'<built-in method __reduce_ex__ of exceptions.RuntimeError object>'
p16
sS'__getslice__'
p17
S"<method-wrapper '__getslice__' of exceptions.RuntimeError object>"
p18
sS'__getitem__'
p19
S"<method-wrapper '__getitem__' of exceptions.RuntimeError object>"
p20
sS'__setstate__'
p21
S'<built-in method __setstate__ of exceptions.RuntimeError object>'
p22
sS'args'
p23
S"('unable to balance tag script',)"
p24
sS'__reduce__'
p25
S'<built-in method __reduce__ of exceptions.RuntimeError object>'
p26
sS'__str__'
p27
S"<method-wrapper '__str__' of exceptions.RuntimeError object>"
p28
sS'__format__'
p29
S'<built-in method __format__ of exceptions.RuntimeError object>'
p30
sS'__getattribute__'
p31
S"<method-wrapper '__getattribute__' of exceptions.RuntimeError object>"
p32
sS'__class__'
p33
S"<type 'exceptions.RuntimeError'>"
p34
sS'__unicode__'
p35
S'<built-in method __unicode__ of exceptions.RuntimeError object>'
p36
sS'__delattr__'
p37
S"<method-wrapper '__delattr__' of exceptions.RuntimeError object>"
p38
sS'__subclasshook__'
p39
S'<built-in method __subclasshook__ of type object>'
p40
sS'__repr__'
p41
S"<method-wrapper '__repr__' of exceptions.RuntimeError object>"
p42
sS'__dict__'
p43
S'{}'
p44
sS'__sizeof__'
p45
S'<built-in method __sizeof__ of exceptions.RuntimeError object>'
p46
sS'__doc__'
p47
S"'Unspecified run-time error.'"
p48
sS'__init__'
p49
S"<method-wrapper '__init__' of exceptions.RuntimeError object>"
p50
sS'__new__'
p51
S'<built-in method __new__ of type object>'
p52
ssS'evalue'
p53
S'unable to balance tag script'
p54
sS'request'
p55
ccopy_reg
_reconstructor
p56
(cgluon.html
BEAUTIFY
p57
c__builtin__
object
p58
NtRp59
(dp60
S'attributes'
p61
(dp62
sS'components'
p63
(lp64
g56
(cgluon.html
TABLE
p65
g58
NtRp66
(dp67
g61
(dp68
S'level'
p69
I5
ssS'parent'
p70
Nsg63
(lp71
g56
(cgluon.html
TR
p72
g58
NtRp73
(dp74
g61
(dp75
sg70
g66
sg63
(lp76
g56
(cgluon.html
TD
p77
g58
NtRp78
(dp79
g61
(dp80
S'_style'
p81
S'font-weight:bold;'
p82
ssg70
g73
sg63
(lp83
S'ajax'
p84
asbag56
(g77
g58
NtRp85
(dp86
g61
(dp87
S'_valign'
p88
S'top'
p89
ssg70
g73
sg63
(lp90
S':'
asbag56
(g77
g58
NtRp91
(dp92
g61
(dp93
sg70
g73
sg63
(lp94
g56
(g57
g58
NtRp95
(dp96
g61
(dp97
g69
I5
ssg70
g91
sg63
(lp98
S'False'
p99
asbasbasbag56
(g72
g58
NtRp100
(dp101
g61
(dp102
sg70
g66
sg63
(lp103
g56
(g77
g58
NtRp104
(dp105
g61
(dp106
g81
g82
ssg70
g100
sg63
(lp107
S'application'
p108
asbag56
(g77
g58
NtRp109
(dp110
g61
(dp111
g88
g89
ssg70
g100
sg63
(lp112
S':'
asbag56
(g77
g58
NtRp113
(dp114
g61
(dp115
sg70
g100
sg63
(lp116
g56
(g57
g58
NtRp117
(dp118
g61
(dp119
g69
I5
ssg70
g113
sg63
(lp120
S'rdcdss'
p121
asbasbasbag56
(g72
g58
NtRp122
(dp123
g61
(dp124
sg70
g66
sg63
(lp125
g56
(g77
g58
NtRp126
(dp127
g61
(dp128
g81
g82
ssg70
g122
sg63
(lp129
g23
asbag56
(g77
g58
NtRp130
(dp131
g61
(dp132
g88
g89
ssg70
g122
sg63
(lp133
S':'
asbag56
(g77
g58
NtRp134
(dp135
g61
(dp136
sg70
g122
sg63
(lp137
g56
(g57
g58
NtRp138
(dp139
g61
(dp140
g69
I5
ssg70
g134
sg63
(lp141
g56
(g65
g58
NtRp142
(dp143
g61
(dp144
g69
I4
ssg70
Nsg63
(lp145
sbasbasbasbag56
(g72
g58
NtRp146
(dp147
g61
(dp148
sg70
g66
sg63
(lp149
g56
(g77
g58
NtRp150
(dp151
g61
(dp152
g81
g82
ssg70
g146
sg63
(lp153
S'body'
p154
asbag56
(g77
g58
NtRp155
(dp156
g61
(dp157
g88
g89
ssg70
g146
sg63
(lp158
S':'
asbag56
(g77
g58
NtRp159
(dp160
g61
(dp161
sg70
g146
sg63
(lp162
g56
(g57
g58
NtRp163
(dp164
g61
(dp165
g69
I5
ssg70
g159
sg63
(lp166
S'<cStringIO.StringO object at 0x2b9be123d180>'
p167
asbasbasbag56
(g72
g58
NtRp168
(dp169
g61
(dp170
sg70
g66
sg63
(lp171
g56
(g77
g58
NtRp172
(dp173
g61
(dp174
g81
g82
ssg70
g168
sg63
(lp175
S'client'
p176
asbag56
(g77
g58
NtRp177
(dp178
g61
(dp179
g88
g89
ssg70
g168
sg63
(lp180
S':'
asbag56
(g77
g58
NtRp181
(dp182
g61
(dp183
sg70
g168
sg63
(lp184
g56
(g57
g58
NtRp185
(dp186
g61
(dp187
g69
I5
ssg70
g181
sg63
(lp188
S'89.123.2.193'
p189
asbasbasbag56
(g72
g58
NtRp190
(dp191
g61
(dp192
sg70
g66
sg63
(lp193
g56
(g77
g58
NtRp194
(dp195
g61
(dp196
g81
g82
ssg70
g190
sg63
(lp197
S'controller'
p198
asbag56
(g77
g58
NtRp199
(dp200
g61
(dp201
g88
g89
ssg70
g190
sg63
(lp202
S':'
asbag56
(g77
g58
NtRp203
(dp204
g61
(dp205
sg70
g190
sg63
(lp206
g56
(g57
g58
NtRp207
(dp208
g61
(dp209
g69
I5
ssg70
g203
sg63
(lp210
S'default'
p211
asbasbasbag56
(g72
g58
NtRp212
(dp213
g61
(dp214
sg70
g66
sg63
(lp215
g56
(g77
g58
NtRp216
(dp217
g61
(dp218
g81
g82
ssg70
g212
sg63
(lp219
S'cookies'
p220
asbag56
(g77
g58
NtRp221
(dp222
g61
(dp223
g88
g89
ssg70
g212
sg63
(lp224
S':'
asbag56
(g77
g58
NtRp225
(dp226
g61
(dp227
sg70
g212
sg63
(lp228
g56
(g57
g58
NtRp229
(dp230
g61
(dp231
g69
I5
ssg70
g225
sg63
(lp232
g56
(g65
g58
NtRp233
(dp234
g61
(dp235
g69
I4
ssg70
Nsg63
(lp236
g56
(g72
g58
NtRp237
(dp238
g61
(dp239
sg70
g233
sg63
(lp240
g56
(g77
g58
NtRp241
(dp242
g61
(dp243
g81
g82
ssg70
g237
sg63
(lp244
S'session_id_admin'
p245
asbag56
(g77
g58
NtRp246
(dp247
g61
(dp248
g88
g89
ssg70
g237
sg63
(lp249
S':'
asbag56
(g77
g58
NtRp250
(dp251
g61
(dp252
sg70
g237
sg63
(lp253
g56
(g57
g58
NtRp254
(dp255
g61
(dp256
g69
I4
ssg70
g250
sg63
(lp257
g56
(g65
g58
NtRp258
(dp259
g61
(dp260
g69
I3
ssg70
Nsg63
(lp261
g56
(g72
g58
NtRp262
(dp263
g61
(dp264
sg70
g258
sg63
(lp265
g56
(g77
g58
NtRp266
(dp267
g61
(dp268
g81
g82
ssg70
g262
sg63
(lp269
S'comment'
p270
asbag56
(g77
g58
NtRp271
(dp272
g61
(dp273
g88
g89
ssg70
g262
sg63
(lp274
S':'
asbag56
(g77
g58
NtRp275
(dp276
g61
(dp277
sg70
g262
sg63
(lp278
g56
(g57
g58
NtRp279
(dp280
g61
(dp281
g69
I3
ssg70
g275
sg63
(lp282
S''
asbasbasbag56
(g72
g58
NtRp283
(dp284
g61
(dp285
sg70
g258
sg63
(lp286
g56
(g77
g58
NtRp287
(dp288
g61
(dp289
g81
g82
ssg70
g283
sg63
(lp290
S'domain'
p291
asbag56
(g77
g58
NtRp292
(dp293
g61
(dp294
g88
g89
ssg70
g283
sg63
(lp295
S':'
asbag56
(g77
g58
NtRp296
(dp297
g61
(dp298
sg70
g283
sg63
(lp299
g56
(g57
g58
NtRp300
(dp301
g61
(dp302
g69
I3
ssg70
g296
sg63
(lp303
S''
asbasbasbag56
(g72
g58
NtRp304
(dp305
g61
(dp306
sg70
g258
sg63
(lp307
g56
(g77
g58
NtRp308
(dp309
g61
(dp310
g81
g82
ssg70
g304
sg63
(lp311
S'expires'
p312
asbag56
(g77
g58
NtRp313
(dp314
g61
(dp315
g88
g89
ssg70
g304
sg63
(lp316
S':'
asbag56
(g77
g58
NtRp317
(dp318
g61
(dp319
sg70
g304
sg63
(lp320
g56
(g57
g58
NtRp321
(dp322
g61
(dp323
g69
I3
ssg70
g317
sg63
(lp324
S''
asbasbasbag56
(g72
g58
NtRp325
(dp326
g61
(dp327
sg70
g258
sg63
(lp328
g56
(g77
g58
NtRp329
(dp330
g61
(dp331
g81
g82
ssg70
g325
sg63
(lp332
S'httponly'
p333
asbag56
(g77
g58
NtRp334
(dp335
g61
(dp336
g88
g89
ssg70
g325
sg63
(lp337
S':'
asbag56
(g77
g58
NtRp338
(dp339
g61
(dp340
sg70
g325
sg63
(lp341
g56
(g57
g58
NtRp342
(dp343
g61
(dp344
g69
I3
ssg70
g338
sg63
(lp345
S''
asbasbasbag56
(g72
g58
NtRp346
(dp347
g61
(dp348
sg70
g258
sg63
(lp349
g56
(g77
g58
NtRp350
(dp351
g61
(dp352
g81
g82
ssg70
g346
sg63
(lp353
S'max-age'
p354
asbag56
(g77
g58
NtRp355
(dp356
g61
(dp357
g88
g89
ssg70
g346
sg63
(lp358
S':'
asbag56
(g77
g58
NtRp359
(dp360
g61
(dp361
sg70
g346
sg63
(lp362
g56
(g57
g58
NtRp363
(dp364
g61
(dp365
g69
I3
ssg70
g359
sg63
(lp366
S''
asbasbasbag56
(g72
g58
NtRp367
(dp368
g61
(dp369
sg70
g258
sg63
(lp370
g56
(g77
g58
NtRp371
(dp372
g61
(dp373
g81
g82
ssg70
g367
sg63
(lp374
S'path'
p375
asbag56
(g77
g58
NtRp376
(dp377
g61
(dp378
g88
g89
ssg70
g367
sg63
(lp379
S':'
asbag56
(g77
g58
NtRp380
(dp381
g61
(dp382
sg70
g367
sg63
(lp383
g56
(g57
g58
NtRp384
(dp385
g61
(dp386
g69
I3
ssg70
g380
sg63
(lp387
S''
asbasbasbag56
(g72
g58
NtRp388
(dp389
g61
(dp390
sg70
g258
sg63
(lp391
g56
(g77
g58
NtRp392
(dp393
g61
(dp394
g81
g82
ssg70
g388
sg63
(lp395
S'secure'
p396
asbag56
(g77
g58
NtRp397
(dp398
g61
(dp399
g88
g89
ssg70
g388
sg63
(lp400
S':'
asbag56
(g77
g58
NtRp401
(dp402
g61
(dp403
sg70
g388
sg63
(lp404
g56
(g57
g58
NtRp405
(dp406
g61
(dp407
g69
I3
ssg70
g401
sg63
(lp408
S''
asbasbasbag56
(g72
g58
NtRp409
(dp410
g61
(dp411
sg70
g258
sg63
(lp412
g56
(g77
g58
NtRp413
(dp414
g61
(dp415
g81
g82
ssg70
g409
sg63
(lp416
S'version'
p417
asbag56
(g77
g58
NtRp418
(dp419
g61
(dp420
g88
g89
ssg70
g409
sg63
(lp421
S':'
asbag56
(g77
g58
NtRp422
(dp423
g61
(dp424
sg70
g409
sg63
(lp425
g56
(g57
g58
NtRp426
(dp427
g61
(dp428
g69
I3
ssg70
g422
sg63
(lp429
S''
asbasbasbasbasbasbasbag56
(g72
g58
NtRp430
(dp431
g61
(dp432
sg70
g233
sg63
(lp433
g56
(g77
g58
NtRp434
(dp435
g61
(dp436
g81
g82
ssg70
g430
sg63
(lp437
S'session_id_raredisss_devel'
p438
asbag56
(g77
g58
NtRp439
(dp440
g61
(dp441
g88
g89
ssg70
g430
sg63
(lp442
S':'
asbag56
(g77
g58
NtRp443
(dp444
g61
(dp445
sg70
g430
sg63
(lp446
g56
(g57
g58
NtRp447
(dp448
g61
(dp449
g69
I4
ssg70
g443
sg63
(lp450
g56
(g65
g58
NtRp451
(dp452
g61
(dp453
g69
I3
ssg70
Nsg63
(lp454
g56
(g72
g58
NtRp455
(dp456
g61
(dp457
sg70
g451
sg63
(lp458
g56
(g77
g58
NtRp459
(dp460
g61
(dp461
g81
g82
ssg70
g455
sg63
(lp462
g270
asbag56
(g77
g58
NtRp463
(dp464
g61
(dp465
g88
g89
ssg70
g455
sg63
(lp466
S':'
asbag56
(g77
g58
NtRp467
(dp468
g61
(dp469
sg70
g455
sg63
(lp470
g56
(g57
g58
NtRp471
(dp472
g61
(dp473
g69
I3
ssg70
g467
sg63
(lp474
S''
asbasbasbag56
(g72
g58
NtRp475
(dp476
g61
(dp477
sg70
g451
sg63
(lp478
g56
(g77
g58
NtRp479
(dp480
g61
(dp481
g81
g82
ssg70
g475
sg63
(lp482
g291
asbag56
(g77
g58
NtRp483
(dp484
g61
(dp485
g88
g89
ssg70
g475
sg63
(lp486
S':'
asbag56
(g77
g58
NtRp487
(dp488
g61
(dp489
sg70
g475
sg63
(lp490
g56
(g57
g58
NtRp491
(dp492
g61
(dp493
g69
I3
ssg70
g487
sg63
(lp494
S''
asbasbasbag56
(g72
g58
NtRp495
(dp496
g61
(dp497
sg70
g451
sg63
(lp498
g56
(g77
g58
NtRp499
(dp500
g61
(dp501
g81
g82
ssg70
g495
sg63
(lp502
g312
asbag56
(g77
g58
NtRp503
(dp504
g61
(dp505
g88
g89
ssg70
g495
sg63
(lp506
S':'
asbag56
(g77
g58
NtRp507
(dp508
g61
(dp509
sg70
g495
sg63
(lp510
g56
(g57
g58
NtRp511
(dp512
g61
(dp513
g69
I3
ssg70
g507
sg63
(lp514
S''
asbasbasbag56
(g72
g58
NtRp515
(dp516
g61
(dp517
sg70
g451
sg63
(lp518
g56
(g77
g58
NtRp519
(dp520
g61
(dp521
g81
g82
ssg70
g515
sg63
(lp522
g333
asbag56
(g77
g58
NtRp523
(dp524
g61
(dp525
g88
g89
ssg70
g515
sg63
(lp526
S':'
asbag56
(g77
g58
NtRp527
(dp528
g61
(dp529
sg70
g515
sg63
(lp530
g56
(g57
g58
NtRp531
(dp532
g61
(dp533
g69
I3
ssg70
g527
sg63
(lp534
S''
asbasbasbag56
(g72
g58
NtRp535
(dp536
g61
(dp537
sg70
g451
sg63
(lp538
g56
(g77
g58
NtRp539
(dp540
g61
(dp541
g81
g82
ssg70
g535
sg63
(lp542
g354
asbag56
(g77
g58
NtRp543
(dp544
g61
(dp545
g88
g89
ssg70
g535
sg63
(lp546
S':'
asbag56
(g77
g58
NtRp547
(dp548
g61
(dp549
sg70
g535
sg63
(lp550
g56
(g57
g58
NtRp551
(dp552
g61
(dp553
g69
I3
ssg70
g547
sg63
(lp554
S''
asbasbasbag56
(g72
g58
NtRp555
(dp556
g61
(dp557
sg70
g451
sg63
(lp558
g56
(g77
g58
NtRp559
(dp560
g61
(dp561
g81
g82
ssg70
g555
sg63
(lp562
g375
asbag56
(g77
g58
NtRp563
(dp564
g61
(dp565
g88
g89
ssg70
g555
sg63
(lp566
S':'
asbag56
(g77
g58
NtRp567
(dp568
g61
(dp569
sg70
g555
sg63
(lp570
g56
(g57
g58
NtRp571
(dp572
g61
(dp573
g69
I3
ssg70
g567
sg63
(lp574
S''
asbasbasbag56
(g72
g58
NtRp575
(dp576
g61
(dp577
sg70
g451
sg63
(lp578
g56
(g77
g58
NtRp579
(dp580
g61
(dp581
g81
g82
ssg70
g575
sg63
(lp582
g396
asbag56
(g77
g58
NtRp583
(dp584
g61
(dp585
g88
g89
ssg70
g575
sg63
(lp586
S':'
asbag56
(g77
g58
NtRp587
(dp588
g61
(dp589
sg70
g575
sg63
(lp590
g56
(g57
g58
NtRp591
(dp592
g61
(dp593
g69
I3
ssg70
g587
sg63
(lp594
S''
asbasbasbag56
(g72
g58
NtRp595
(dp596
g61
(dp597
sg70
g451
sg63
(lp598
g56
(g77
g58
NtRp599
(dp600
g61
(dp601
g81
g82
ssg70
g595
sg63
(lp602
g417
asbag56
(g77
g58
NtRp603
(dp604
g61
(dp605
g88
g89
ssg70
g595
sg63
(lp606
S':'
asbag56
(g77
g58
NtRp607
(dp608
g61
(dp609
sg70
g595
sg63
(lp610
g56
(g57
g58
NtRp611
(dp612
g61
(dp613
g69
I3
ssg70
g607
sg63
(lp614
S''
asbasbasbasbasbasbasbag56
(g72
g58
NtRp615
(dp616
g61
(dp617
sg70
g233
sg63
(lp618
g56
(g77
g58
NtRp619
(dp620
g61
(dp621
g81
g82
ssg70
g615
sg63
(lp622
S'session_id_rdcdss'
p623
asbag56
(g77
g58
NtRp624
(dp625
g61
(dp626
g88
g89
ssg70
g615
sg63
(lp627
S':'
asbag56
(g77
g58
NtRp628
(dp629
g61
(dp630
sg70
g615
sg63
(lp631
g56
(g57
g58
NtRp632
(dp633
g61
(dp634
g69
I4
ssg70
g628
sg63
(lp635
g56
(g65
g58
NtRp636
(dp637
g61
(dp638
g69
I3
ssg70
Nsg63
(lp639
g56
(g72
g58
NtRp640
(dp641
g61
(dp642
sg70
g636
sg63
(lp643
g56
(g77
g58
NtRp644
(dp645
g61
(dp646
g81
g82
ssg70
g640
sg63
(lp647
g270
asbag56
(g77
g58
NtRp648
(dp649
g61
(dp650
g88
g89
ssg70
g640
sg63
(lp651
S':'
asbag56
(g77
g58
NtRp652
(dp653
g61
(dp654
sg70
g640
sg63
(lp655
g56
(g57
g58
NtRp656
(dp657
g61
(dp658
g69
I3
ssg70
g652
sg63
(lp659
S''
asbasbasbag56
(g72
g58
NtRp660
(dp661
g61
(dp662
sg70
g636
sg63
(lp663
g56
(g77
g58
NtRp664
(dp665
g61
(dp666
g81
g82
ssg70
g660
sg63
(lp667
g291
asbag56
(g77
g58
NtRp668
(dp669
g61
(dp670
g88
g89
ssg70
g660
sg63
(lp671
S':'
asbag56
(g77
g58
NtRp672
(dp673
g61
(dp674
sg70
g660
sg63
(lp675
g56
(g57
g58
NtRp676
(dp677
g61
(dp678
g69
I3
ssg70
g672
sg63
(lp679
S''
asbasbasbag56
(g72
g58
NtRp680
(dp681
g61
(dp682
sg70
g636
sg63
(lp683
g56
(g77
g58
NtRp684
(dp685
g61
(dp686
g81
g82
ssg70
g680
sg63
(lp687
g312
asbag56
(g77
g58
NtRp688
(dp689
g61
(dp690
g88
g89
ssg70
g680
sg63
(lp691
S':'
asbag56
(g77
g58
NtRp692
(dp693
g61
(dp694
sg70
g680
sg63
(lp695
g56
(g57
g58
NtRp696
(dp697
g61
(dp698
g69
I3
ssg70
g692
sg63
(lp699
S''
asbasbasbag56
(g72
g58
NtRp700
(dp701
g61
(dp702
sg70
g636
sg63
(lp703
g56
(g77
g58
NtRp704
(dp705
g61
(dp706
g81
g82
ssg70
g700
sg63
(lp707
g333
asbag56
(g77
g58
NtRp708
(dp709
g61
(dp710
g88
g89
ssg70
g700
sg63
(lp711
S':'
asbag56
(g77
g58
NtRp712
(dp713
g61
(dp714
sg70
g700
sg63
(lp715
g56
(g57
g58
NtRp716
(dp717
g61
(dp718
g69
I3
ssg70
g712
sg63
(lp719
S''
asbasbasbag56
(g72
g58
NtRp720
(dp721
g61
(dp722
sg70
g636
sg63
(lp723
g56
(g77
g58
NtRp724
(dp725
g61
(dp726
g81
g82
ssg70
g720
sg63
(lp727
g354
asbag56
(g77
g58
NtRp728
(dp729
g61
(dp730
g88
g89
ssg70
g720
sg63
(lp731
S':'
asbag56
(g77
g58
NtRp732
(dp733
g61
(dp734
sg70
g720
sg63
(lp735
g56
(g57
g58
NtRp736
(dp737
g61
(dp738
g69
I3
ssg70
g732
sg63
(lp739
S''
asbasbasbag56
(g72
g58
NtRp740
(dp741
g61
(dp742
sg70
g636
sg63
(lp743
g56
(g77
g58
NtRp744
(dp745
g61
(dp746
g81
g82
ssg70
g740
sg63
(lp747
g375
asbag56
(g77
g58
NtRp748
(dp749
g61
(dp750
g88
g89
ssg70
g740
sg63
(lp751
S':'
asbag56
(g77
g58
NtRp752
(dp753
g61
(dp754
sg70
g740
sg63
(lp755
g56
(g57
g58
NtRp756
(dp757
g61
(dp758
g69
I3
ssg70
g752
sg63
(lp759
S''
asbasbasbag56
(g72
g58
NtRp760
(dp761
g61
(dp762
sg70
g636
sg63
(lp763
g56
(g77
g58
NtRp764
(dp765
g61
(dp766
g81
g82
ssg70
g760
sg63
(lp767
g396
asbag56
(g77
g58
NtRp768
(dp769
g61
(dp770
g88
g89
ssg70
g760
sg63
(lp771
S':'
asbag56
(g77
g58
NtRp772
(dp773
g61
(dp774
sg70
g760
sg63
(lp775
g56
(g57
g58
NtRp776
(dp777
g61
(dp778
g69
I3
ssg70
g772
sg63
(lp779
S''
asbasbasbag56
(g72
g58
NtRp780
(dp781
g61
(dp782
sg70
g636
sg63
(lp783
g56
(g77
g58
NtRp784
(dp785
g61
(dp786
g81
g82
ssg70
g780
sg63
(lp787
g417
asbag56
(g77
g58
NtRp788
(dp789
g61
(dp790
g88
g89
ssg70
g780
sg63
(lp791
S':'
asbag56
(g77
g58
NtRp792
(dp793
g61
(dp794
sg70
g780
sg63
(lp795
g56
(g57
g58
NtRp796
(dp797
g61
(dp798
g69
I3
ssg70
g792
sg63
(lp799
S''
asbasbasbasbasbasbasbag56
(g72
g58
NtRp800
(dp801
g61
(dp802
sg70
g233
sg63
(lp803
g56
(g77
g58
NtRp804
(dp805
g61
(dp806
g81
g82
ssg70
g800
sg63
(lp807
S'session_id_welcome'
p808
asbag56
(g77
g58
NtRp809
(dp810
g61
(dp811
g88
g89
ssg70
g800
sg63
(lp812
S':'
asbag56
(g77
g58
NtRp813
(dp814
g61
(dp815
sg70
g800
sg63
(lp816
g56
(g57
g58
NtRp817
(dp818
g61
(dp819
g69
I4
ssg70
g813
sg63
(lp820
g56
(g65
g58
NtRp821
(dp822
g61
(dp823
g69
I3
ssg70
Nsg63
(lp824
g56
(g72
g58
NtRp825
(dp826
g61
(dp827
sg70
g821
sg63
(lp828
g56
(g77
g58
NtRp829
(dp830
g61
(dp831
g81
g82
ssg70
g825
sg63
(lp832
g270
asbag56
(g77
g58
NtRp833
(dp834
g61
(dp835
g88
g89
ssg70
g825
sg63
(lp836
S':'
asbag56
(g77
g58
NtRp837
(dp838
g61
(dp839
sg70
g825
sg63
(lp840
g56
(g57
g58
NtRp841
(dp842
g61
(dp843
g69
I3
ssg70
g837
sg63
(lp844
S''
asbasbasbag56
(g72
g58
NtRp845
(dp846
g61
(dp847
sg70
g821
sg63
(lp848
g56
(g77
g58
NtRp849
(dp850
g61
(dp851
g81
g82
ssg70
g845
sg63
(lp852
g291
asbag56
(g77
g58
NtRp853
(dp854
g61
(dp855
g88
g89
ssg70
g845
sg63
(lp856
S':'
asbag56
(g77
g58
NtRp857
(dp858
g61
(dp859
sg70
g845
sg63
(lp860
g56
(g57
g58
NtRp861
(dp862
g61
(dp863
g69
I3
ssg70
g857
sg63
(lp864
S''
asbasbasbag56
(g72
g58
NtRp865
(dp866
g61
(dp867
sg70
g821
sg63
(lp868
g56
(g77
g58
NtRp869
(dp870
g61
(dp871
g81
g82
ssg70
g865
sg63
(lp872
g312
asbag56
(g77
g58
NtRp873
(dp874
g61
(dp875
g88
g89
ssg70
g865
sg63
(lp876
S':'
asbag56
(g77
g58
NtRp877
(dp878
g61
(dp879
sg70
g865
sg63
(lp880
g56
(g57
g58
NtRp881
(dp882
g61
(dp883
g69
I3
ssg70
g877
sg63
(lp884
S''
asbasbasbag56
(g72
g58
NtRp885
(dp886
g61
(dp887
sg70
g821
sg63
(lp888
g56
(g77
g58
NtRp889
(dp890
g61
(dp891
g81
g82
ssg70
g885
sg63
(lp892
g333
asbag56
(g77
g58
NtRp893
(dp894
g61
(dp895
g88
g89
ssg70
g885
sg63
(lp896
S':'
asbag56
(g77
g58
NtRp897
(dp898
g61
(dp899
sg70
g885
sg63
(lp900
g56
(g57
g58
NtRp901
(dp902
g61
(dp903
g69
I3
ssg70
g897
sg63
(lp904
S''
asbasbasbag56
(g72
g58
NtRp905
(dp906
g61
(dp907
sg70
g821
sg63
(lp908
g56
(g77
g58
NtRp909
(dp910
g61
(dp911
g81
g82
ssg70
g905
sg63
(lp912
g354
asbag56
(g77
g58
NtRp913
(dp914
g61
(dp915
g88
g89
ssg70
g905
sg63
(lp916
S':'
asbag56
(g77
g58
NtRp917
(dp918
g61
(dp919
sg70
g905
sg63
(lp920
g56
(g57
g58
NtRp921
(dp922
g61
(dp923
g69
I3
ssg70
g917
sg63
(lp924
S''
asbasbasbag56
(g72
g58
NtRp925
(dp926
g61
(dp927
sg70
g821
sg63
(lp928
g56
(g77
g58
NtRp929
(dp930
g61
(dp931
g81
g82
ssg70
g925
sg63
(lp932
g375
asbag56
(g77
g58
NtRp933
(dp934
g61
(dp935
g88
g89
ssg70
g925
sg63
(lp936
S':'
asbag56
(g77
g58
NtRp937
(dp938
g61
(dp939
sg70
g925
sg63
(lp940
g56
(g57
g58
NtRp941
(dp942
g61
(dp943
g69
I3
ssg70
g937
sg63
(lp944
S''
asbasbasbag56
(g72
g58
NtRp945
(dp946
g61
(dp947
sg70
g821
sg63
(lp948
g56
(g77
g58
NtRp949
(dp950
g61
(dp951
g81
g82
ssg70
g945
sg63
(lp952
g396
asbag56
(g77
g58
NtRp953
(dp954
g61
(dp955
g88
g89
ssg70
g945
sg63
(lp956
S':'
asbag56
(g77
g58
NtRp957
(dp958
g61
(dp959
sg70
g945
sg63
(lp960
g56
(g57
g58
NtRp961
(dp962
g61
(dp963
g69
I3
ssg70
g957
sg63
(lp964
S''
asbasbasbag56
(g72
g58
NtRp965
(dp966
g61
(dp967
sg70
g821
sg63
(lp968
g56
(g77
g58
NtRp969
(dp970
g61
(dp971
g81
g82
ssg70
g965
sg63
(lp972
g417
asbag56
(g77
g58
NtRp973
(dp974
g61
(dp975
g88
g89
ssg70
g965
sg63
(lp976
S':'
asbag56
(g77
g58
NtRp977
(dp978
g61
(dp979
sg70
g965
sg63
(lp980
g56
(g57
g58
NtRp981
(dp982
g61
(dp983
g69
I3
ssg70
g977
sg63
(lp984
S''
asbasbasbasbasbasbasbasbasbasbasbag56
(g72
g58
NtRp985
(dp986
g61
(dp987
sg70
g66
sg63
(lp988
g56
(g77
g58
NtRp989
(dp990
g61
(dp991
g81
g82
ssg70
g985
sg63
(lp992
S'env'
p993
asbag56
(g77
g58
NtRp994
(dp995
g61
(dp996
g88
g89
ssg70
g985
sg63
(lp997
S':'
asbag56
(g77
g58
NtRp998
(dp999
g61
(dp1000
sg70
g985
sg63
(lp1001
g56
(g57
g58
NtRp1002
(dp1003
g61
(dp1004
g69
I5
ssg70
g998
sg63
(lp1005
g56
(g65
g58
NtRp1006
(dp1007
g61
(dp1008
g69
I4
ssg70
Nsg63
(lp1009
g56
(g72
g58
NtRp1010
(dp1011
g61
(dp1012
sg70
g1006
sg63
(lp1013
g56
(g77
g58
NtRp1014
(dp1015
g61
(dp1016
g81
g82
ssg70
g1010
sg63
(lp1017
S'app_folders'
p1018
asbag56
(g77
g58
NtRp1019
(dp1020
g61
(dp1021
g88
g89
ssg70
g1010
sg63
(lp1022
S':'
asbag56
(g77
g58
NtRp1023
(dp1024
g61
(dp1025
sg70
g1010
sg63
(lp1026
g56
(g57
g58
NtRp1027
(dp1028
g61
(dp1029
g69
I4
ssg70
g1023
sg63
(lp1030
S"set(['/home/www-data/web2py/applications/rdcdss/', '/home/www-data/web2py/applications/examples/', '/home/www-data/web2py/applications/RareDisSS_Stable/', '/home/www-data/web2py/applications/welcome/', '/home/www-data/web2py/applications/admin/', '/home/www-data/web2py/applications/RareDisSS_Devel/'])"
p1031
asbasbasbag56
(g72
g58
NtRp1032
(dp1033
g61
(dp1034
sg70
g1006
sg63
(lp1035
g56
(g77
g58
NtRp1036
(dp1037
g61
(dp1038
g81
g82
ssg70
g1032
sg63
(lp1039
S'applications_parent'
p1040
asbag56
(g77
g58
NtRp1041
(dp1042
g61
(dp1043
g88
g89
ssg70
g1032
sg63
(lp1044
S':'
asbag56
(g77
g58
NtRp1045
(dp1046
g61
(dp1047
sg70
g1032
sg63
(lp1048
g56
(g57
g58
NtRp1049
(dp1050
g61
(dp1051
g69
I4
ssg70
g1045
sg63
(lp1052
S'/home/www-data/web2py'
p1053
asbasbasbag56
(g72
g58
NtRp1054
(dp1055
g61
(dp1056
sg70
g1006
sg63
(lp1057
g56
(g77
g58
NtRp1058
(dp1059
g61
(dp1060
g81
g82
ssg70
g1054
sg63
(lp1061
S'db_sessions'
p1062
asbag56
(g77
g58
NtRp1063
(dp1064
g61
(dp1065
g88
g89
ssg70
g1054
sg63
(lp1066
S':'
asbag56
(g77
g58
NtRp1067
(dp1068
g61
(dp1069
sg70
g1054
sg63
(lp1070
g56
(g57
g58
NtRp1071
(dp1072
g61
(dp1073
g69
I4
ssg70
g1067
sg63
(lp1074
S'set([])'
p1075
asbasbasbag56
(g72
g58
NtRp1076
(dp1077
g61
(dp1078
sg70
g1006
sg63
(lp1079
g56
(g77
g58
NtRp1080
(dp1081
g61
(dp1082
g81
g82
ssg70
g1076
sg63
(lp1083
S'debugging'
p1084
asbag56
(g77
g58
NtRp1085
(dp1086
g61
(dp1087
g88
g89
ssg70
g1076
sg63
(lp1088
S':'
asbag56
(g77
g58
NtRp1089
(dp1090
g61
(dp1091
sg70
g1076
sg63
(lp1092
g56
(g57
g58
NtRp1093
(dp1094
g61
(dp1095
g69
I4
ssg70
g1089
sg63
(lp1096
g99
asbasbasbag56
(g72
g58
NtRp1097
(dp1098
g61
(dp1099
sg70
g1006
sg63
(lp1100
g56
(g77
g58
NtRp1101
(dp1102
g61
(dp1103
g81
g82
ssg70
g1097
sg63
(lp1104
S'document_root'
p1105
asbag56
(g77
g58
NtRp1106
(dp1107
g61
(dp1108
g88
g89
ssg70
g1097
sg63
(lp1109
S':'
asbag56
(g77
g58
NtRp1110
(dp1111
g61
(dp1112
sg70
g1097
sg63
(lp1113
g56
(g57
g58
NtRp1114
(dp1115
g61
(dp1116
g69
I4
ssg70
g1110
sg63
(lp1117
S'/etc/apache2/htdocs'
p1118
asbasbasbag56
(g72
g58
NtRp1119
(dp1120
g61
(dp1121
sg70
g1006
sg63
(lp1122
g56
(g77
g58
NtRp1123
(dp1124
g61
(dp1125
g81
g82
ssg70
g1119
sg63
(lp1126
S'gateway_interface'
p1127
asbag56
(g77
g58
NtRp1128
(dp1129
g61
(dp1130
g88
g89
ssg70
g1119
sg63
(lp1131
S':'
asbag56
(g77
g58
NtRp1132
(dp1133
g61
(dp1134
sg70
g1119
sg63
(lp1135
g56
(g57
g58
NtRp1136
(dp1137
g61
(dp1138
g69
I4
ssg70
g1132
sg63
(lp1139
S'CGI/1.1'
p1140
asbasbasbag56
(g72
g58
NtRp1141
(dp1142
g61
(dp1143
sg70
g1006
sg63
(lp1144
g56
(g77
g58
NtRp1145
(dp1146
g61
(dp1147
g81
g82
ssg70
g1141
sg63
(lp1148
S'gluon_parent'
p1149
asbag56
(g77
g58
NtRp1150
(dp1151
g61
(dp1152
g88
g89
ssg70
g1141
sg63
(lp1153
S':'
asbag56
(g77
g58
NtRp1154
(dp1155
g61
(dp1156
sg70
g1141
sg63
(lp1157
g56
(g57
g58
NtRp1158
(dp1159
g61
(dp1160
g69
I4
ssg70
g1154
sg63
(lp1161
g1053
asbasbasbag56
(g72
g58
NtRp1162
(dp1163
g61
(dp1164
sg70
g1006
sg63
(lp1165
g56
(g77
g58
NtRp1166
(dp1167
g61
(dp1168
g81
g82
ssg70
g1162
sg63
(lp1169
S'http_accept'
p1170
asbag56
(g77
g58
NtRp1171
(dp1172
g61
(dp1173
g88
g89
ssg70
g1162
sg63
(lp1174
S':'
asbag56
(g77
g58
NtRp1175
(dp1176
g61
(dp1177
sg70
g1162
sg63
(lp1178
g56
(g57
g58
NtRp1179
(dp1180
g61
(dp1181
g69
I4
ssg70
g1175
sg63
(lp1182
S'text/html,application/xhtml+xml,application/xml;q=0.9,*/*;q=0.8'
p1183
asbasbasbag56
(g72
g58
NtRp1184
(dp1185
g61
(dp1186
sg70
g1006
sg63
(lp1187
g56
(g77
g58
NtRp1188
(dp1189
g61
(dp1190
g81
g82
ssg70
g1184
sg63
(lp1191
S'http_accept_charset'
p1192
asbag56
(g77
g58
NtRp1193
(dp1194
g61
(dp1195
g88
g89
ssg70
g1184
sg63
(lp1196
S':'
asbag56
(g77
g58
NtRp1197
(dp1198
g61
(dp1199
sg70
g1184
sg63
(lp1200
g56
(g57
g58
NtRp1201
(dp1202
g61
(dp1203
g69
I4
ssg70
g1197
sg63
(lp1204
S'ISO-8859-1,utf-8;q=0.7,*;q=0.3'
p1205
asbasbasbag56
(g72
g58
NtRp1206
(dp1207
g61
(dp1208
sg70
g1006
sg63
(lp1209
g56
(g77
g58
NtRp1210
(dp1211
g61
(dp1212
g81
g82
ssg70
g1206
sg63
(lp1213
S'http_accept_encoding'
p1214
asbag56
(g77
g58
NtRp1215
(dp1216
g61
(dp1217
g88
g89
ssg70
g1206
sg63
(lp1218
S':'
asbag56
(g77
g58
NtRp1219
(dp1220
g61
(dp1221
sg70
g1206
sg63
(lp1222
g56
(g57
g58
NtRp1223
(dp1224
g61
(dp1225
g69
I4
ssg70
g1219
sg63
(lp1226
S'gzip,deflate,sdch'
p1227
asbasbasbag56
(g72
g58
NtRp1228
(dp1229
g61
(dp1230
sg70
g1006
sg63
(lp1231
g56
(g77
g58
NtRp1232
(dp1233
g61
(dp1234
g81
g82
ssg70
g1228
sg63
(lp1235
S'http_accept_language'
p1236
asbag56
(g77
g58
NtRp1237
(dp1238
g61
(dp1239
g88
g89
ssg70
g1228
sg63
(lp1240
S':'
asbag56
(g77
g58
NtRp1241
(dp1242
g61
(dp1243
sg70
g1228
sg63
(lp1244
g56
(g57
g58
NtRp1245
(dp1246
g61
(dp1247
g69
I4
ssg70
g1241
sg63
(lp1248
S'en-US,en;q=0.8'
p1249
asbasbasbag56
(g72
g58
NtRp1250
(dp1251
g61
(dp1252
sg70
g1006
sg63
(lp1253
g56
(g77
g58
NtRp1254
(dp1255
g61
(dp1256
g81
g82
ssg70
g1250
sg63
(lp1257
S'http_connection'
p1258
asbag56
(g77
g58
NtRp1259
(dp1260
g61
(dp1261
g88
g89
ssg70
g1250
sg63
(lp1262
S':'
asbag56
(g77
g58
NtRp1263
(dp1264
g61
(dp1265
sg70
g1250
sg63
(lp1266
g56
(g57
g58
NtRp1267
(dp1268
g61
(dp1269
g69
I4
ssg70
g1263
sg63
(lp1270
S'keep-alive'
p1271
asbasbasbag56
(g72
g58
NtRp1272
(dp1273
g61
(dp1274
sg70
g1006
sg63
(lp1275
g56
(g77
g58
NtRp1276
(dp1277
g61
(dp1278
g81
g82
ssg70
g1272
sg63
(lp1279
S'http_cookie'
p1280
asbag56
(g77
g58
NtRp1281
(dp1282
g61
(dp1283
g88
g89
ssg70
g1272
sg63
(lp1284
S':'
asbag56
(g77
g58
NtRp1285
(dp1286
g61
(dp1287
sg70
g1272
sg63
(lp1288
g56
(g57
g58
NtRp1289
(dp1290
g61
(dp1291
g69
I4
ssg70
g1285
sg63
(lp1292
S'__utmz=231008458.1308780762.2.2.utmcsr=blog.ovi.com|utmccn=(referral)|utmcmd=referral|utmcct=/2011/06/17/architecture-buffs-win-an-n8-thanks-to-3d-maps/; __utma=231008458.31146925.1301686846.1308784518.1308821596.4; __utmz=123610009.1308848100.1.1.utmcsr=(direct)|utmccn=(direct)|utmcmd=(none); __utma=123610009.1990170896.1308848100.1308848100.1308848100.1; session_id_welcome=89.123.2.193-656c74cb-a5a1-41e4-ac1a-2010553e1f38; session_id_raredisss_devel=89.123.2.193-209ddbd2-47ad-4cdf-8ea3-23e3682363fd; session_id_admin=89.123.2.193-c73a459b-d1a2-42c0-b456-303b7fd610ac; session_id_rdcdss=89.123.2.193-4e1de357-5b7c-4409-92bc-12a58f0742b6'
p1293
asbasbasbag56
(g72
g58
NtRp1294
(dp1295
g61
(dp1296
sg70
g1006
sg63
(lp1297
g56
(g77
g58
NtRp1298
(dp1299
g61
(dp1300
g81
g82
ssg70
g1294
sg63
(lp1301
S'http_host'
p1302
asbag56
(g77
g58
NtRp1303
(dp1304
g61
(dp1305
g88
g89
ssg70
g1294
sg63
(lp1306
S':'
asbag56
(g77
g58
NtRp1307
(dp1308
g61
(dp1309
sg70
g1294
sg63
(lp1310
g56
(g57
g58
NtRp1311
(dp1312
g61
(dp1313
g69
I4
ssg70
g1307
sg63
(lp1314
S'costanza.dragusin.ro'
p1315
asbasbasbag56
(g72
g58
NtRp1316
(dp1317
g61
(dp1318
sg70
g1006
sg63
(lp1319
g56
(g77
g58
NtRp1320
(dp1321
g61
(dp1322
g81
g82
ssg70
g1316
sg63
(lp1323
S'http_user_agent'
p1324
asbag56
(g77
g58
NtRp1325
(dp1326
g61
(dp1327
g88
g89
ssg70
g1316
sg63
(lp1328
S':'
asbag56
(g77
g58
NtRp1329
(dp1330
g61
(dp1331
sg70
g1316
sg63
(lp1332
g56
(g57
g58
NtRp1333
(dp1334
g61
(dp1335
g69
I4
ssg70
g1329
sg63
(lp1336
S'Mozilla/5.0 (Macintosh; Intel Mac OS X 10_6_8) AppleWebKit/534.30 (KHTML, like Gecko) Chrome/12.0.742.112 Safari/534.30'
p1337
asbasbasbag56
(g72
g58
NtRp1338
(dp1339
g61
(dp1340
sg70
g1006
sg63
(lp1341
g56
(g77
g58
NtRp1342
(dp1343
g61
(dp1344
g81
g82
ssg70
g1338
sg63
(lp1345
S'https'
p1346
asbag56
(g77
g58
NtRp1347
(dp1348
g61
(dp1349
g88
g89
ssg70
g1338
sg63
(lp1350
S':'
asbag56
(g77
g58
NtRp1351
(dp1352
g61
(dp1353
sg70
g1338
sg63
(lp1354
g56
(g57
g58
NtRp1355
(dp1356
g61
(dp1357
g69
I4
ssg70
g1351
sg63
(lp1358
S'1'
asbasbasbag56
(g72
g58
NtRp1359
(dp1360
g61
(dp1361
sg70
g1006
sg63
(lp1362
g56
(g77
g58
NtRp1363
(dp1364
g61
(dp1365
g81
g82
ssg70
g1359
sg63
(lp1366
S'mod_wsgi_application_group'
p1367
asbag56
(g77
g58
NtRp1368
(dp1369
g61
(dp1370
g88
g89
ssg70
g1359
sg63
(lp1371
S':'
asbag56
(g77
g58
NtRp1372
(dp1373
g61
(dp1374
sg70
g1359
sg63
(lp1375
g56
(g57
g58
NtRp1376
(dp1377
g61
(dp1378
g69
I4
ssg70
g1372
sg63
(lp1379
S'109.169.46.204|'
p1380
asbasbasbag56
(g72
g58
NtRp1381
(dp1382
g61
(dp1383
sg70
g1006
sg63
(lp1384
g56
(g77
g58
NtRp1385
(dp1386
g61
(dp1387
g81
g82
ssg70
g1381
sg63
(lp1388
S'mod_wsgi_callable_object'
p1389
asbag56
(g77
g58
NtRp1390
(dp1391
g61
(dp1392
g88
g89
ssg70
g1381
sg63
(lp1393
S':'
asbag56
(g77
g58
NtRp1394
(dp1395
g61
(dp1396
sg70
g1381
sg63
(lp1397
g56
(g57
g58
NtRp1398
(dp1399
g61
(dp1400
g69
I4
ssg70
g1394
sg63
(lp1401
S'application'
p1402
asbasbasbag56
(g72
g58
NtRp1403
(dp1404
g61
(dp1405
sg70
g1006
sg63
(lp1406
g56
(g77
g58
NtRp1407
(dp1408
g61
(dp1409
g81
g82
ssg70
g1403
sg63
(lp1410
S'mod_wsgi_handler_script'
p1411
asbag56
(g77
g58
NtRp1412
(dp1413
g61
(dp1414
g88
g89
ssg70
g1403
sg63
(lp1415
S':'
asbag56
(g77
g58
NtRp1416
(dp1417
g61
(dp1418
sg70
g1403
sg63
(lp1419
g56
(g57
g58
NtRp1420
(dp1421
g61
(dp1422
g69
I4
ssg70
g1416
sg63
(lp1423
S''
asbasbasbag56
(g72
g58
NtRp1424
(dp1425
g61
(dp1426
sg70
g1006
sg63
(lp1427
g56
(g77
g58
NtRp1428
(dp1429
g61
(dp1430
g81
g82
ssg70
g1424
sg63
(lp1431
S'mod_wsgi_input_chunked'
p1432
asbag56
(g77
g58
NtRp1433
(dp1434
g61
(dp1435
g88
g89
ssg70
g1424
sg63
(lp1436
S':'
asbag56
(g77
g58
NtRp1437
(dp1438
g61
(dp1439
sg70
g1424
sg63
(lp1440
g56
(g57
g58
NtRp1441
(dp1442
g61
(dp1443
g69
I4
ssg70
g1437
sg63
(lp1444
S'0'
asbasbasbag56
(g72
g58
NtRp1445
(dp1446
g61
(dp1447
sg70
g1006
sg63
(lp1448
g56
(g77
g58
NtRp1449
(dp1450
g61
(dp1451
g81
g82
ssg70
g1445
sg63
(lp1452
S'mod_wsgi_listener_host'
p1453
asbag56
(g77
g58
NtRp1454
(dp1455
g61
(dp1456
g88
g89
ssg70
g1445
sg63
(lp1457
S':'
asbag56
(g77
g58
NtRp1458
(dp1459
g61
(dp1460
sg70
g1445
sg63
(lp1461
g56
(g57
g58
NtRp1462
(dp1463
g61
(dp1464
g69
I4
ssg70
g1458
sg63
(lp1465
S''
asbasbasbag56
(g72
g58
NtRp1466
(dp1467
g61
(dp1468
sg70
g1006
sg63
(lp1469
g56
(g77
g58
NtRp1470
(dp1471
g61
(dp1472
g81
g82
ssg70
g1466
sg63
(lp1473
S'mod_wsgi_listener_port'
p1474
asbag56
(g77
g58
NtRp1475
(dp1476
g61
(dp1477
g88
g89
ssg70
g1466
sg63
(lp1478
S':'
asbag56
(g77
g58
NtRp1479
(dp1480
g61
(dp1481
sg70
g1466
sg63
(lp1482
g56
(g57
g58
NtRp1483
(dp1484
g61
(dp1485
g69
I4
ssg70
g1479
sg63
(lp1486
S'443'
p1487
asbasbasbag56
(g72
g58
NtRp1488
(dp1489
g61
(dp1490
sg70
g1006
sg63
(lp1491
g56
(g77
g58
NtRp1492
(dp1493
g61
(dp1494
g81
g82
ssg70
g1488
sg63
(lp1495
S'mod_wsgi_process_group'
p1496
asbag56
(g77
g58
NtRp1497
(dp1498
g61
(dp1499
g88
g89
ssg70
g1488
sg63
(lp1500
S':'
asbag56
(g77
g58
NtRp1501
(dp1502
g61
(dp1503
sg70
g1488
sg63
(lp1504
g56
(g57
g58
NtRp1505
(dp1506
g61
(dp1507
g69
I4
ssg70
g1501
sg63
(lp1508
S'web2py'
p1509
asbasbasbag56
(g72
g58
NtRp1510
(dp1511
g61
(dp1512
sg70
g1006
sg63
(lp1513
g56
(g77
g58
NtRp1514
(dp1515
g61
(dp1516
g81
g82
ssg70
g1510
sg63
(lp1517
S'mod_wsgi_request_handler'
p1518
asbag56
(g77
g58
NtRp1519
(dp1520
g61
(dp1521
g88
g89
ssg70
g1510
sg63
(lp1522
S':'
asbag56
(g77
g58
NtRp1523
(dp1524
g61
(dp1525
sg70
g1510
sg63
(lp1526
g56
(g57
g58
NtRp1527
(dp1528
g61
(dp1529
g69
I4
ssg70
g1523
sg63
(lp1530
S'wsgi-script'
p1531
asbasbasbag56
(g72
g58
NtRp1532
(dp1533
g61
(dp1534
sg70
g1006
sg63
(lp1535
g56
(g77
g58
NtRp1536
(dp1537
g61
(dp1538
g81
g82
ssg70
g1532
sg63
(lp1539
S'mod_wsgi_script_reloading'
p1540
asbag56
(g77
g58
NtRp1541
(dp1542
g61
(dp1543
g88
g89
ssg70
g1532
sg63
(lp1544
S':'
asbag56
(g77
g58
NtRp1545
(dp1546
g61
(dp1547
sg70
g1532
sg63
(lp1548
g56
(g57
g58
NtRp1549
(dp1550
g61
(dp1551
g69
I4
ssg70
g1545
sg63
(lp1552
S'1'
asbasbasbag56
(g72
g58
NtRp1553
(dp1554
g61
(dp1555
sg70
g1006
sg63
(lp1556
g56
(g77
g58
NtRp1557
(dp1558
g61
(dp1559
g81
g82
ssg70
g1553
sg63
(lp1560
S'mod_wsgi_version'
p1561
asbag56
(g77
g58
NtRp1562
(dp1563
g61
(dp1564
g88
g89
ssg70
g1553
sg63
(lp1565
S':'
asbag56
(g77
g58
NtRp1566
(dp1567
g61
(dp1568
sg70
g1553
sg63
(lp1569
g56
(g57
g58
NtRp1570
(dp1571
g61
(dp1572
g69
I4
ssg70
g1566
sg63
(lp1573
g56
(g65
g58
NtRp1574
(dp1575
g61
(dp1576
g69
I3
ssg70
Nsg63
(lp1577
g56
(g72
g58
NtRp1578
(dp1579
g61
(dp1580
sg70
g1574
sg63
(lp1581
g56
(g77
g58
NtRp1582
(dp1583
g61
(dp1584
sg70
g1578
sg63
(lp1585
g56
(g57
g58
NtRp1586
(dp1587
g61
(dp1588
g69
I3
ssg70
g1582
sg63
(lp1589
S'3'
asbasbasbag56
(g72
g58
NtRp1590
(dp1591
g61
(dp1592
sg70
g1574
sg63
(lp1593
g56
(g77
g58
NtRp1594
(dp1595
g61
(dp1596
sg70
g1590
sg63
(lp1597
g56
(g57
g58
NtRp1598
(dp1599
g61
(dp1600
g69
I3
ssg70
g1594
sg63
(lp1601
S'2'
asbasbasbasbasbasbasbag56
(g72
g58
NtRp1602
(dp1603
g61
(dp1604
sg70
g1006
sg63
(lp1605
g56
(g77
g58
NtRp1606
(dp1607
g61
(dp1608
g81
g82
ssg70
g1602
sg63
(lp1609
S'path_info'
p1610
asbag56
(g77
g58
NtRp1611
(dp1612
g61
(dp1613
g88
g89
ssg70
g1602
sg63
(lp1614
S':'
asbag56
(g77
g58
NtRp1615
(dp1616
g61
(dp1617
sg70
g1602
sg63
(lp1618
g56
(g57
g58
NtRp1619
(dp1620
g61
(dp1621
g69
I4
ssg70
g1615
sg63
(lp1622
S'/rdcdss/default/index.pdf'
p1623
asbasbasbag56
(g72
g58
NtRp1624
(dp1625
g61
(dp1626
sg70
g1006
sg63
(lp1627
g56
(g77
g58
NtRp1628
(dp1629
g61
(dp1630
g81
g82
ssg70
g1624
sg63
(lp1631
S'path_translated'
p1632
asbag56
(g77
g58
NtRp1633
(dp1634
g61
(dp1635
g88
g89
ssg70
g1624
sg63
(lp1636
S':'
asbag56
(g77
g58
NtRp1637
(dp1638
g61
(dp1639
sg70
g1624
sg63
(lp1640
g56
(g57
g58
NtRp1641
(dp1642
g61
(dp1643
g69
I4
ssg70
g1637
sg63
(lp1644
S'/home/www-data/web2py/wsgihandler.py/rdcdss/default/index.pdf'
p1645
asbasbasbag56
(g72
g58
NtRp1646
(dp1647
g61
(dp1648
sg70
g1006
sg63
(lp1649
g56
(g77
g58
NtRp1650
(dp1651
g61
(dp1652
g81
g82
ssg70
g1646
sg63
(lp1653
S'query_string'
p1654
asbag56
(g77
g58
NtRp1655
(dp1656
g61
(dp1657
g88
g89
ssg70
g1646
sg63
(lp1658
S':'
asbag56
(g77
g58
NtRp1659
(dp1660
g61
(dp1661
sg70
g1646
sg63
(lp1662
g56
(g57
g58
NtRp1663
(dp1664
g61
(dp1665
g69
I4
ssg70
g1659
sg63
(lp1666
S''
asbasbasbag56
(g72
g58
NtRp1667
(dp1668
g61
(dp1669
sg70
g1006
sg63
(lp1670
g56
(g77
g58
NtRp1671
(dp1672
g61
(dp1673
g81
g82
ssg70
g1667
sg63
(lp1674
S'remote_addr'
p1675
asbag56
(g77
g58
NtRp1676
(dp1677
g61
(dp1678
g88
g89
ssg70
g1667
sg63
(lp1679
S':'
asbag56
(g77
g58
NtRp1680
(dp1681
g61
(dp1682
sg70
g1667
sg63
(lp1683
g56
(g57
g58
NtRp1684
(dp1685
g61
(dp1686
g69
I4
ssg70
g1680
sg63
(lp1687
g189
asbasbasbag56
(g72
g58
NtRp1688
(dp1689
g61
(dp1690
sg70
g1006
sg63
(lp1691
g56
(g77
g58
NtRp1692
(dp1693
g61
(dp1694
g81
g82
ssg70
g1688
sg63
(lp1695
S'remote_port'
p1696
asbag56
(g77
g58
NtRp1697
(dp1698
g61
(dp1699
g88
g89
ssg70
g1688
sg63
(lp1700
S':'
asbag56
(g77
g58
NtRp1701
(dp1702
g61
(dp1703
sg70
g1688
sg63
(lp1704
g56
(g57
g58
NtRp1705
(dp1706
g61
(dp1707
g69
I4
ssg70
g1701
sg63
(lp1708
S'59405'
p1709
asbasbasbag56
(g72
g58
NtRp1710
(dp1711
g61
(dp1712
sg70
g1006
sg63
(lp1713
g56
(g77
g58
NtRp1714
(dp1715
g61
(dp1716
g81
g82
ssg70
g1710
sg63
(lp1717
S'request_method'
p1718
asbag56
(g77
g58
NtRp1719
(dp1720
g61
(dp1721
g88
g89
ssg70
g1710
sg63
(lp1722
S':'
asbag56
(g77
g58
NtRp1723
(dp1724
g61
(dp1725
sg70
g1710
sg63
(lp1726
g56
(g57
g58
NtRp1727
(dp1728
g61
(dp1729
g69
I4
ssg70
g1723
sg63
(lp1730
S'GET'
p1731
asbasbasbag56
(g72
g58
NtRp1732
(dp1733
g61
(dp1734
sg70
g1006
sg63
(lp1735
g56
(g77
g58
NtRp1736
(dp1737
g61
(dp1738
g81
g82
ssg70
g1732
sg63
(lp1739
S'request_uri'
p1740
asbag56
(g77
g58
NtRp1741
(dp1742
g61
(dp1743
g88
g89
ssg70
g1732
sg63
(lp1744
S':'
asbag56
(g77
g58
NtRp1745
(dp1746
g61
(dp1747
sg70
g1732
sg63
(lp1748
g56
(g57
g58
NtRp1749
(dp1750
g61
(dp1751
g69
I4
ssg70
g1745
sg63
(lp1752
S'/rdcdss/default/index.pdf'
p1753
asbasbasbag56
(g72
g58
NtRp1754
(dp1755
g61
(dp1756
sg70
g1006
sg63
(lp1757
g56
(g77
g58
NtRp1758
(dp1759
g61
(dp1760
g81
g82
ssg70
g1754
sg63
(lp1761
S'script_filename'
p1762
asbag56
(g77
g58
NtRp1763
(dp1764
g61
(dp1765
g88
g89
ssg70
g1754
sg63
(lp1766
S':'
asbag56
(g77
g58
NtRp1767
(dp1768
g61
(dp1769
sg70
g1754
sg63
(lp1770
g56
(g57
g58
NtRp1771
(dp1772
g61
(dp1773
g69
I4
ssg70
g1767
sg63
(lp1774
S'/home/www-data/web2py/wsgihandler.py'
p1775
asbasbasbag56
(g72
g58
NtRp1776
(dp1777
g61
(dp1778
sg70
g1006
sg63
(lp1779
g56
(g77
g58
NtRp1780
(dp1781
g61
(dp1782
g81
g82
ssg70
g1776
sg63
(lp1783
S'script_name'
p1784
asbag56
(g77
g58
NtRp1785
(dp1786
g61
(dp1787
g88
g89
ssg70
g1776
sg63
(lp1788
S':'
asbag56
(g77
g58
NtRp1789
(dp1790
g61
(dp1791
sg70
g1776
sg63
(lp1792
g56
(g57
g58
NtRp1793
(dp1794
g61
(dp1795
g69
I4
ssg70
g1789
sg63
(lp1796
S''
asbasbasbag56
(g72
g58
NtRp1797
(dp1798
g61
(dp1799
sg70
g1006
sg63
(lp1800
g56
(g77
g58
NtRp1801
(dp1802
g61
(dp1803
g81
g82
ssg70
g1797
sg63
(lp1804
S'server_addr'
p1805
asbag56
(g77
g58
NtRp1806
(dp1807
g61
(dp1808
g88
g89
ssg70
g1797
sg63
(lp1809
S':'
asbag56
(g77
g58
NtRp1810
(dp1811
g61
(dp1812
sg70
g1797
sg63
(lp1813
g56
(g57
g58
NtRp1814
(dp1815
g61
(dp1816
g69
I4
ssg70
g1810
sg63
(lp1817
S'109.169.46.204'
p1818
asbasbasbag56
(g72
g58
NtRp1819
(dp1820
g61
(dp1821
sg70
g1006
sg63
(lp1822
g56
(g77
g58
NtRp1823
(dp1824
g61
(dp1825
g81
g82
ssg70
g1819
sg63
(lp1826
S'server_admin'
p1827
asbag56
(g77
g58
NtRp1828
(dp1829
g61
(dp1830
g88
g89
ssg70
g1819
sg63
(lp1831
S':'
asbag56
(g77
g58
NtRp1832
(dp1833
g61
(dp1834
sg70
g1819
sg63
(lp1835
g56
(g57
g58
NtRp1836
(dp1837
g61
(dp1838
g69
I4
ssg70
g1832
sg63
(lp1839
S'[no address given]'
p1840
asbasbasbag56
(g72
g58
NtRp1841
(dp1842
g61
(dp1843
sg70
g1006
sg63
(lp1844
g56
(g77
g58
NtRp1845
(dp1846
g61
(dp1847
g81
g82
ssg70
g1841
sg63
(lp1848
S'server_name'
p1849
asbag56
(g77
g58
NtRp1850
(dp1851
g61
(dp1852
g88
g89
ssg70
g1841
sg63
(lp1853
S':'
asbag56
(g77
g58
NtRp1854
(dp1855
g61
(dp1856
sg70
g1841
sg63
(lp1857
g56
(g57
g58
NtRp1858
(dp1859
g61
(dp1860
g69
I4
ssg70
g1854
sg63
(lp1861
S'costanza.dragusin.ro'
p1862
asbasbasbag56
(g72
g58
NtRp1863
(dp1864
g61
(dp1865
sg70
g1006
sg63
(lp1866
g56
(g77
g58
NtRp1867
(dp1868
g61
(dp1869
g81
g82
ssg70
g1863
sg63
(lp1870
S'server_port'
p1871
asbag56
(g77
g58
NtRp1872
(dp1873
g61
(dp1874
g88
g89
ssg70
g1863
sg63
(lp1875
S':'
asbag56
(g77
g58
NtRp1876
(dp1877
g61
(dp1878
sg70
g1863
sg63
(lp1879
g56
(g57
g58
NtRp1880
(dp1881
g61
(dp1882
g69
I4
ssg70
g1876
sg63
(lp1883
S'443'
p1884
asbasbasbag56
(g72
g58
NtRp1885
(dp1886
g61
(dp1887
sg70
g1006
sg63
(lp1888
g56
(g77
g58
NtRp1889
(dp1890
g61
(dp1891
g81
g82
ssg70
g1885
sg63
(lp1892
S'server_protocol'
p1893
asbag56
(g77
g58
NtRp1894
(dp1895
g61
(dp1896
g88
g89
ssg70
g1885
sg63
(lp1897
S':'
asbag56
(g77
g58
NtRp1898
(dp1899
g61
(dp1900
sg70
g1885
sg63
(lp1901
g56
(g57
g58
NtRp1902
(dp1903
g61
(dp1904
g69
I4
ssg70
g1898
sg63
(lp1905
S'HTTP/1.1'
p1906
asbasbasbag56
(g72
g58
NtRp1907
(dp1908
g61
(dp1909
sg70
g1006
sg63
(lp1910
g56
(g77
g58
NtRp1911
(dp1912
g61
(dp1913
g81
g82
ssg70
g1907
sg63
(lp1914
S'server_signature'
p1915
asbag56
(g77
g58
NtRp1916
(dp1917
g61
(dp1918
g88
g89
ssg70
g1907
sg63
(lp1919
S':'
asbag56
(g77
g58
NtRp1920
(dp1921
g61
(dp1922
sg70
g1907
sg63
(lp1923
g56
(g57
g58
NtRp1924
(dp1925
g61
(dp1926
g69
I4
ssg70
g1920
sg63
(lp1927
S'<address>Apache/2.2.16 (Ubuntu) Server at costanza.dragusin.ro Port 443</address>\n'
p1928
asbasbasbag56
(g72
g58
NtRp1929
(dp1930
g61
(dp1931
sg70
g1006
sg63
(lp1932
g56
(g77
g58
NtRp1933
(dp1934
g61
(dp1935
g81
g82
ssg70
g1929
sg63
(lp1936
S'server_software'
p1937
asbag56
(g77
g58
NtRp1938
(dp1939
g61
(dp1940
g88
g89
ssg70
g1929
sg63
(lp1941
S':'
asbag56
(g77
g58
NtRp1942
(dp1943
g61
(dp1944
sg70
g1929
sg63
(lp1945
g56
(g57
g58
NtRp1946
(dp1947
g61
(dp1948
g69
I4
ssg70
g1942
sg63
(lp1949
S'Apache/2.2.16 (Ubuntu)'
p1950
asbasbasbag56
(g72
g58
NtRp1951
(dp1952
g61
(dp1953
sg70
g1006
sg63
(lp1954
g56
(g77
g58
NtRp1955
(dp1956
g61
(dp1957
g81
g82
ssg70
g1951
sg63
(lp1958
S'ssl_tls_sni'
p1959
asbag56
(g77
g58
NtRp1960
(dp1961
g61
(dp1962
g88
g89
ssg70
g1951
sg63
(lp1963
S':'
asbag56
(g77
g58
NtRp1964
(dp1965
g61
(dp1966
sg70
g1951
sg63
(lp1967
g56
(g57
g58
NtRp1968
(dp1969
g61
(dp1970
g69
I4
ssg70
g1964
sg63
(lp1971
S'costanza.dragusin.ro'
p1972
asbasbasbag56
(g72
g58
NtRp1973
(dp1974
g61
(dp1975
sg70
g1006
sg63
(lp1976
g56
(g77
g58
NtRp1977
(dp1978
g61
(dp1979
g81
g82
ssg70
g1973
sg63
(lp1980
S'web2py_path'
p1981
asbag56
(g77
g58
NtRp1982
(dp1983
g61
(dp1984
g88
g89
ssg70
g1973
sg63
(lp1985
S':'
asbag56
(g77
g58
NtRp1986
(dp1987
g61
(dp1988
sg70
g1973
sg63
(lp1989
g56
(g57
g58
NtRp1990
(dp1991
g61
(dp1992
g69
I4
ssg70
g1986
sg63
(lp1993
g1053
asbasbasbag56
(g72
g58
NtRp1994
(dp1995
g61
(dp1996
sg70
g1006
sg63
(lp1997
g56
(g77
g58
NtRp1998
(dp1999
g61
(dp2000
g81
g82
ssg70
g1994
sg63
(lp2001
S'web2py_version'
p2002
asbag56
(g77
g58
NtRp2003
(dp2004
g61
(dp2005
g88
g89
ssg70
g1994
sg63
(lp2006
S':'
asbag56
(g77
g58
NtRp2007
(dp2008
g61
(dp2009
sg70
g1994
sg63
(lp2010
g56
(g57
g58
NtRp2011
(dp2012
g61
(dp2013
g69
I4
ssg70
g2007
sg63
(lp2014
S'Version 1.95.1 (2011-04-25 15:04:14)\n'
p2015
asbasbasbag56
(g72
g58
NtRp2016
(dp2017
g61
(dp2018
sg70
g1006
sg63
(lp2019
g56
(g77
g58
NtRp2020
(dp2021
g61
(dp2022
g81
g82
ssg70
g2016
sg63
(lp2023
S'wsgi_errors'
p2024
asbag56
(g77
g58
NtRp2025
(dp2026
g61
(dp2027
g88
g89
ssg70
g2016
sg63
(lp2028
S':'
asbag56
(g77
g58
NtRp2029
(dp2030
g61
(dp2031
sg70
g2016
sg63
(lp2032
g56
(g57
g58
NtRp2033
(dp2034
g61
(dp2035
g69
I4
ssg70
g2029
sg63
(lp2036
S'<mod_wsgi.Log object at 0x2b9be0fa4d70>'
p2037
asbasbasbag56
(g72
g58
NtRp2038
(dp2039
g61
(dp2040
sg70
g1006
sg63
(lp2041
g56
(g77
g58
NtRp2042
(dp2043
g61
(dp2044
g81
g82
ssg70
g2038
sg63
(lp2045
S'wsgi_file_wrapper'
p2046
asbag56
(g77
g58
NtRp2047
(dp2048
g61
(dp2049
g88
g89
ssg70
g2038
sg63
(lp2050
S':'
asbag56
(g77
g58
NtRp2051
(dp2052
g61
(dp2053
sg70
g2038
sg63
(lp2054
g56
(g57
g58
NtRp2055
(dp2056
g61
(dp2057
g69
I4
ssg70
g2051
sg63
(lp2058
S'<built-in method file_wrapper of mod_wsgi.Adapter object at 0x2b9be1273e40>'
p2059
asbasbasbag56
(g72
g58
NtRp2060
(dp2061
g61
(dp2062
sg70
g1006
sg63
(lp2063
g56
(g77
g58
NtRp2064
(dp2065
g61
(dp2066
g81
g82
ssg70
g2060
sg63
(lp2067
S'wsgi_input'
p2068
asbag56
(g77
g58
NtRp2069
(dp2070
g61
(dp2071
g88
g89
ssg70
g2060
sg63
(lp2072
S':'
asbag56
(g77
g58
NtRp2073
(dp2074
g61
(dp2075
sg70
g2060
sg63
(lp2076
g56
(g57
g58
NtRp2077
(dp2078
g61
(dp2079
g69
I4
ssg70
g2073
sg63
(lp2080
S'<mod_wsgi.Input object at 0x2b9be0fa4cf0>'
p2081
asbasbasbag56
(g72
g58
NtRp2082
(dp2083
g61
(dp2084
sg70
g1006
sg63
(lp2085
g56
(g77
g58
NtRp2086
(dp2087
g61
(dp2088
g81
g82
ssg70
g2082
sg63
(lp2089
S'wsgi_multiprocess'
p2090
asbag56
(g77
g58
NtRp2091
(dp2092
g61
(dp2093
g88
g89
ssg70
g2082
sg63
(lp2094
S':'
asbag56
(g77
g58
NtRp2095
(dp2096
g61
(dp2097
sg70
g2082
sg63
(lp2098
g56
(g57
g58
NtRp2099
(dp2100
g61
(dp2101
g69
I4
ssg70
g2095
sg63
(lp2102
g99
asbasbasbag56
(g72
g58
NtRp2103
(dp2104
g61
(dp2105
sg70
g1006
sg63
(lp2106
g56
(g77
g58
NtRp2107
(dp2108
g61
(dp2109
g81
g82
ssg70
g2103
sg63
(lp2110
S'wsgi_multithread'
p2111
asbag56
(g77
g58
NtRp2112
(dp2113
g61
(dp2114
g88
g89
ssg70
g2103
sg63
(lp2115
S':'
asbag56
(g77
g58
NtRp2116
(dp2117
g61
(dp2118
sg70
g2103
sg63
(lp2119
g56
(g57
g58
NtRp2120
(dp2121
g61
(dp2122
g69
I4
ssg70
g2116
sg63
(lp2123
S'True'
p2124
asbasbasbag56
(g72
g58
NtRp2125
(dp2126
g61
(dp2127
sg70
g1006
sg63
(lp2128
g56
(g77
g58
NtRp2129
(dp2130
g61
(dp2131
g81
g82
ssg70
g2125
sg63
(lp2132
S'wsgi_run_once'
p2133
asbag56
(g77
g58
NtRp2134
(dp2135
g61
(dp2136
g88
g89
ssg70
g2125
sg63
(lp2137
S':'
asbag56
(g77
g58
NtRp2138
(dp2139
g61
(dp2140
sg70
g2125
sg63
(lp2141
g56
(g57
g58
NtRp2142
(dp2143
g61
(dp2144
g69
I4
ssg70
g2138
sg63
(lp2145
g99
asbasbasbag56
(g72
g58
NtRp2146
(dp2147
g61
(dp2148
sg70
g1006
sg63
(lp2149
g56
(g77
g58
NtRp2150
(dp2151
g61
(dp2152
g81
g82
ssg70
g2146
sg63
(lp2153
S'wsgi_url_scheme'
p2154
asbag56
(g77
g58
NtRp2155
(dp2156
g61
(dp2157
g88
g89
ssg70
g2146
sg63
(lp2158
S':'
asbag56
(g77
g58
NtRp2159
(dp2160
g61
(dp2161
sg70
g2146
sg63
(lp2162
g56
(g57
g58
NtRp2163
(dp2164
g61
(dp2165
g69
I4
ssg70
g2159
sg63
(lp2166
S'https'
p2167
asbasbasbag56
(g72
g58
NtRp2168
(dp2169
g61
(dp2170
sg70
g1006
sg63
(lp2171
g56
(g77
g58
NtRp2172
(dp2173
g61
(dp2174
g81
g82
ssg70
g2168
sg63
(lp2175
S'wsgi_version'
p2176
asbag56
(g77
g58
NtRp2177
(dp2178
g61
(dp2179
g88
g89
ssg70
g2168
sg63
(lp2180
S':'
asbag56
(g77
g58
NtRp2181
(dp2182
g61
(dp2183
sg70
g2168
sg63
(lp2184
g56
(g57
g58
NtRp2185
(dp2186
g61
(dp2187
g69
I4
ssg70
g2181
sg63
(lp2188
g56
(g65
g58
NtRp2189
(dp2190
g61
(dp2191
g69
I3
ssg70
Nsg63
(lp2192
g56
(g72
g58
NtRp2193
(dp2194
g61
(dp2195
sg70
g2189
sg63
(lp2196
g56
(g77
g58
NtRp2197
(dp2198
g61
(dp2199
sg70
g2193
sg63
(lp2200
g56
(g57
g58
NtRp2201
(dp2202
g61
(dp2203
g69
I3
ssg70
g2197
sg63
(lp2204
S'1'
asbasbasbag56
(g72
g58
NtRp2205
(dp2206
g61
(dp2207
sg70
g2189
sg63
(lp2208
g56
(g77
g58
NtRp2209
(dp2210
g61
(dp2211
sg70
g2205
sg63
(lp2212
g56
(g57
g58
NtRp2213
(dp2214
g61
(dp2215
g69
I3
ssg70
g2209
sg63
(lp2216
S'1'
asbasbasbasbasbasbasbasbasbasbasbag56
(g72
g58
NtRp2217
(dp2218
g61
(dp2219
sg70
g66
sg63
(lp2220
g56
(g77
g58
NtRp2221
(dp2222
g61
(dp2223
g81
g82
ssg70
g2217
sg63
(lp2224
S'extension'
p2225
asbag56
(g77
g58
NtRp2226
(dp2227
g61
(dp2228
g88
g89
ssg70
g2217
sg63
(lp2229
S':'
asbag56
(g77
g58
NtRp2230
(dp2231
g61
(dp2232
sg70
g2217
sg63
(lp2233
g56
(g57
g58
NtRp2234
(dp2235
g61
(dp2236
g69
I5
ssg70
g2230
sg63
(lp2237
S'pdf'
p2238
asbasbasbag56
(g72
g58
NtRp2239
(dp2240
g61
(dp2241
sg70
g66
sg63
(lp2242
g56
(g77
g58
NtRp2243
(dp2244
g61
(dp2245
g81
g82
ssg70
g2239
sg63
(lp2246
S'folder'
p2247
asbag56
(g77
g58
NtRp2248
(dp2249
g61
(dp2250
g88
g89
ssg70
g2239
sg63
(lp2251
S':'
asbag56
(g77
g58
NtRp2252
(dp2253
g61
(dp2254
sg70
g2239
sg63
(lp2255
g56
(g57
g58
NtRp2256
(dp2257
g61
(dp2258
g69
I5
ssg70
g2252
sg63
(lp2259
S'/home/www-data/web2py/applications/rdcdss/'
p2260
asbasbasbag56
(g72
g58
NtRp2261
(dp2262
g61
(dp2263
sg70
g66
sg63
(lp2264
g56
(g77
g58
NtRp2265
(dp2266
g61
(dp2267
g81
g82
ssg70
g2261
sg63
(lp2268
S'function'
p2269
asbag56
(g77
g58
NtRp2270
(dp2271
g61
(dp2272
g88
g89
ssg70
g2261
sg63
(lp2273
S':'
asbag56
(g77
g58
NtRp2274
(dp2275
g61
(dp2276
sg70
g2261
sg63
(lp2277
g56
(g57
g58
NtRp2278
(dp2279
g61
(dp2280
g69
I5
ssg70
g2274
sg63
(lp2281
S'index'
p2282
asbasbasbag56
(g72
g58
NtRp2283
(dp2284
g61
(dp2285
sg70
g66
sg63
(lp2286
g56
(g77
g58
NtRp2287
(dp2288
g61
(dp2289
g81
g82
ssg70
g2283
sg63
(lp2290
S'get_vars'
p2291
asbag56
(g77
g58
NtRp2292
(dp2293
g61
(dp2294
g88
g89
ssg70
g2283
sg63
(lp2295
S':'
asbag56
(g77
g58
NtRp2296
(dp2297
g61
(dp2298
sg70
g2283
sg63
(lp2299
g56
(g57
g58
NtRp2300
(dp2301
g61
(dp2302
g69
I5
ssg70
g2296
sg63
(lp2303
g56
(g65
g58
NtRp2304
(dp2305
g61
(dp2306
g69
I4
ssg70
Nsg63
(lp2307
sbasbasbasbag56
(g72
g58
NtRp2308
(dp2309
g61
(dp2310
sg70
g66
sg63
(lp2311
g56
(g77
g58
NtRp2312
(dp2313
g61
(dp2314
g81
g82
ssg70
g2308
sg63
(lp2315
S'is_restful'
p2316
asbag56
(g77
g58
NtRp2317
(dp2318
g61
(dp2319
g88
g89
ssg70
g2308
sg63
(lp2320
S':'
asbag56
(g77
g58
NtRp2321
(dp2322
g61
(dp2323
sg70
g2308
sg63
(lp2324
g56
(g57
g58
NtRp2325
(dp2326
g61
(dp2327
g69
I5
ssg70
g2321
sg63
(lp2328
g99
asbasbasbag56
(g72
g58
NtRp2329
(dp2330
g61
(dp2331
sg70
g66
sg63
(lp2332
g56
(g77
g58
NtRp2333
(dp2334
g61
(dp2335
g81
g82
ssg70
g2329
sg63
(lp2336
S'now'
p2337
asbag56
(g77
g58
NtRp2338
(dp2339
g61
(dp2340
g88
g89
ssg70
g2329
sg63
(lp2341
S':'
asbag56
(g77
g58
NtRp2342
(dp2343
g61
(dp2344
sg70
g2329
sg63
(lp2345
g56
(g57
g58
NtRp2346
(dp2347
g61
(dp2348
g69
I5
ssg70
g2342
sg63
(lp2349
S'datetime.datetime(2011, 6, 30, 19, 23, 38, 797820)'
p2350
asbasbasbag56
(g72
g58
NtRp2351
(dp2352
g61
(dp2353
sg70
g66
sg63
(lp2354
g56
(g77
g58
NtRp2355
(dp2356
g61
(dp2357
g81
g82
ssg70
g2351
sg63
(lp2358
S'post_vars'
p2359
asbag56
(g77
g58
NtRp2360
(dp2361
g61
(dp2362
g88
g89
ssg70
g2351
sg63
(lp2363
S':'
asbag56
(g77
g58
NtRp2364
(dp2365
g61
(dp2366
sg70
g2351
sg63
(lp2367
g56
(g57
g58
NtRp2368
(dp2369
g61
(dp2370
g69
I5
ssg70
g2364
sg63
(lp2371
g56
(g65
g58
NtRp2372
(dp2373
g61
(dp2374
g69
I4
ssg70
Nsg63
(lp2375
sbasbasbasbag56
(g72
g58
NtRp2376
(dp2377
g61
(dp2378
sg70
g66
sg63
(lp2379
g56
(g77
g58
NtRp2380
(dp2381
g61
(dp2382
g81
g82
ssg70
g2376
sg63
(lp2383
S'raw_extension'
p2384
asbag56
(g77
g58
NtRp2385
(dp2386
g61
(dp2387
g88
g89
ssg70
g2376
sg63
(lp2388
S':'
asbag56
(g77
g58
NtRp2389
(dp2390
g61
(dp2391
sg70
g2376
sg63
(lp2392
g56
(g57
g58
NtRp2393
(dp2394
g61
(dp2395
g69
I5
ssg70
g2389
sg63
(lp2396
g2238
asbasbasbag56
(g72
g58
NtRp2397
(dp2398
g61
(dp2399
sg70
g66
sg63
(lp2400
g56
(g77
g58
NtRp2401
(dp2402
g61
(dp2403
g81
g82
ssg70
g2397
sg63
(lp2404
S'url'
p2405
asbag56
(g77
g58
NtRp2406
(dp2407
g61
(dp2408
g88
g89
ssg70
g2397
sg63
(lp2409
S':'
asbag56
(g77
g58
NtRp2410
(dp2411
g61
(dp2412
sg70
g2397
sg63
(lp2413
g56
(g57
g58
NtRp2414
(dp2415
g61
(dp2416
g69
I5
ssg70
g2410
sg63
(lp2417
S'/rdcdss/default/index.pdf'
p2418
asbasbasbag56
(g72
g58
NtRp2419
(dp2420
g61
(dp2421
sg70
g66
sg63
(lp2422
g56
(g77
g58
NtRp2423
(dp2424
g61
(dp2425
g81
g82
ssg70
g2419
sg63
(lp2426
S'uuid'
p2427
asbag56
(g77
g58
NtRp2428
(dp2429
g61
(dp2430
g88
g89
ssg70
g2419
sg63
(lp2431
S':'
asbag56
(g77
g58
NtRp2432
(dp2433
g61
(dp2434
sg70
g2419
sg63
(lp2435
g56
(g57
g58
NtRp2436
(dp2437
g61
(dp2438
g69
I5
ssg70
g2432
sg63
(lp2439
S'rdcdss/89.123.2.193.2011-06-30.19-23-38.4e77f1ce-4492-4b30-b767-ed67e09d4799'
p2440
asbasbasbag56
(g72
g58
NtRp2441
(dp2442
g61
(dp2443
sg70
g66
sg63
(lp2444
g56
(g77
g58
NtRp2445
(dp2446
g61
(dp2447
g81
g82
ssg70
g2441
sg63
(lp2448
S'vars'
p2449
asbag56
(g77
g58
NtRp2450
(dp2451
g61
(dp2452
g88
g89
ssg70
g2441
sg63
(lp2453
S':'
asbag56
(g77
g58
NtRp2454
(dp2455
g61
(dp2456
sg70
g2441
sg63
(lp2457
g56
(g57
g58
NtRp2458
(dp2459
g61
(dp2460
g69
I5
ssg70
g2454
sg63
(lp2461
g56
(g65
g58
NtRp2462
(dp2463
g61
(dp2464
g69
I4
ssg70
Nsg63
(lp2465
sbasbasbasbag56
(g72
g58
NtRp2466
(dp2467
g61
(dp2468
sg70
g66
sg63
(lp2469
g56
(g77
g58
NtRp2470
(dp2471
g61
(dp2472
g81
g82
ssg70
g2466
sg63
(lp2473
S'wsgi'
p2474
asbag56
(g77
g58
NtRp2475
(dp2476
g61
(dp2477
g88
g89
ssg70
g2466
sg63
(lp2478
S':'
asbag56
(g77
g58
NtRp2479
(dp2480
g61
(dp2481
sg70
g2466
sg63
(lp2482
g56
(g57
g58
NtRp2483
(dp2484
g61
(dp2485
g69
I5
ssg70
g2479
sg63
(lp2486
g56
(g65
g58
NtRp2487
(dp2488
g61
(dp2489
g69
I4
ssg70
Nsg63
(lp2490
g56
(g72
g58
NtRp2491
(dp2492
g61
(dp2493
sg70
g2487
sg63
(lp2494
g56
(g77
g58
NtRp2495
(dp2496
g61
(dp2497
g81
g82
ssg70
g2491
sg63
(lp2498
S'environ'
p2499
asbag56
(g77
g58
NtRp2500
(dp2501
g61
(dp2502
g88
g89
ssg70
g2491
sg63
(lp2503
S':'
asbag56
(g77
g58
NtRp2504
(dp2505
g61
(dp2506
sg70
g2491
sg63
(lp2507
g56
(g57
g58
NtRp2508
(dp2509
g61
(dp2510
g69
I4
ssg70
g2504
sg63
(lp2511
g56
(g65
g58
NtRp2512
(dp2513
g61
(dp2514
g69
I3
ssg70
Nsg63
(lp2515
g56
(g72
g58
NtRp2516
(dp2517
g61
(dp2518
sg70
g2512
sg63
(lp2519
g56
(g77
g58
NtRp2520
(dp2521
g61
(dp2522
g81
g82
ssg70
g2516
sg63
(lp2523
S'DOCUMENT_ROOT'
p2524
asbag56
(g77
g58
NtRp2525
(dp2526
g61
(dp2527
g88
g89
ssg70
g2516
sg63
(lp2528
S':'
asbag56
(g77
g58
NtRp2529
(dp2530
g61
(dp2531
sg70
g2516
sg63
(lp2532
g56
(g57
g58
NtRp2533
(dp2534
g61
(dp2535
g69
I3
ssg70
g2529
sg63
(lp2536
g1118
asbasbasbag56
(g72
g58
NtRp2537
(dp2538
g61
(dp2539
sg70
g2512
sg63
(lp2540
g56
(g77
g58
NtRp2541
(dp2542
g61
(dp2543
g81
g82
ssg70
g2537
sg63
(lp2544
S'GATEWAY_INTERFACE'
p2545
asbag56
(g77
g58
NtRp2546
(dp2547
g61
(dp2548
g88
g89
ssg70
g2537
sg63
(lp2549
S':'
asbag56
(g77
g58
NtRp2550
(dp2551
g61
(dp2552
sg70
g2537
sg63
(lp2553
g56
(g57
g58
NtRp2554
(dp2555
g61
(dp2556
g69
I3
ssg70
g2550
sg63
(lp2557
g1140
asbasbasbag56
(g72
g58
NtRp2558
(dp2559
g61
(dp2560
sg70
g2512
sg63
(lp2561
g56
(g77
g58
NtRp2562
(dp2563
g61
(dp2564
g81
g82
ssg70
g2558
sg63
(lp2565
S'HTTPS'
p2566
asbag56
(g77
g58
NtRp2567
(dp2568
g61
(dp2569
g88
g89
ssg70
g2558
sg63
(lp2570
S':'
asbag56
(g77
g58
NtRp2571
(dp2572
g61
(dp2573
sg70
g2558
sg63
(lp2574
g56
(g57
g58
NtRp2575
(dp2576
g61
(dp2577
g69
I3
ssg70
g2571
sg63
(lp2578
S'1'
asbasbasbag56
(g72
g58
NtRp2579
(dp2580
g61
(dp2581
sg70
g2512
sg63
(lp2582
g56
(g77
g58
NtRp2583
(dp2584
g61
(dp2585
g81
g82
ssg70
g2579
sg63
(lp2586
S'HTTP_ACCEPT'
p2587
asbag56
(g77
g58
NtRp2588
(dp2589
g61
(dp2590
g88
g89
ssg70
g2579
sg63
(lp2591
S':'
asbag56
(g77
g58
NtRp2592
(dp2593
g61
(dp2594
sg70
g2579
sg63
(lp2595
g56
(g57
g58
NtRp2596
(dp2597
g61
(dp2598
g69
I3
ssg70
g2592
sg63
(lp2599
g1183
asbasbasbag56
(g72
g58
NtRp2600
(dp2601
g61
(dp2602
sg70
g2512
sg63
(lp2603
g56
(g77
g58
NtRp2604
(dp2605
g61
(dp2606
g81
g82
ssg70
g2600
sg63
(lp2607
S'HTTP_ACCEPT_CHARSET'
p2608
asbag56
(g77
g58
NtRp2609
(dp2610
g61
(dp2611
g88
g89
ssg70
g2600
sg63
(lp2612
S':'
asbag56
(g77
g58
NtRp2613
(dp2614
g61
(dp2615
sg70
g2600
sg63
(lp2616
g56
(g57
g58
NtRp2617
(dp2618
g61
(dp2619
g69
I3
ssg70
g2613
sg63
(lp2620
g1205
asbasbasbag56
(g72
g58
NtRp2621
(dp2622
g61
(dp2623
sg70
g2512
sg63
(lp2624
g56
(g77
g58
NtRp2625
(dp2626
g61
(dp2627
g81
g82
ssg70
g2621
sg63
(lp2628
S'HTTP_ACCEPT_ENCODING'
p2629
asbag56
(g77
g58
NtRp2630
(dp2631
g61
(dp2632
g88
g89
ssg70
g2621
sg63
(lp2633
S':'
asbag56
(g77
g58
NtRp2634
(dp2635
g61
(dp2636
sg70
g2621
sg63
(lp2637
g56
(g57
g58
NtRp2638
(dp2639
g61
(dp2640
g69
I3
ssg70
g2634
sg63
(lp2641
g1227
asbasbasbag56
(g72
g58
NtRp2642
(dp2643
g61
(dp2644
sg70
g2512
sg63
(lp2645
g56
(g77
g58
NtRp2646
(dp2647
g61
(dp2648
g81
g82
ssg70
g2642
sg63
(lp2649
S'HTTP_ACCEPT_LANGUAGE'
p2650
asbag56
(g77
g58
NtRp2651
(dp2652
g61
(dp2653
g88
g89
ssg70
g2642
sg63
(lp2654
S':'
asbag56
(g77
g58
NtRp2655
(dp2656
g61
(dp2657
sg70
g2642
sg63
(lp2658
g56
(g57
g58
NtRp2659
(dp2660
g61
(dp2661
g69
I3
ssg70
g2655
sg63
(lp2662
g1249
asbasbasbag56
(g72
g58
NtRp2663
(dp2664
g61
(dp2665
sg70
g2512
sg63
(lp2666
g56
(g77
g58
NtRp2667
(dp2668
g61
(dp2669
g81
g82
ssg70
g2663
sg63
(lp2670
S'HTTP_CONNECTION'
p2671
asbag56
(g77
g58
NtRp2672
(dp2673
g61
(dp2674
g88
g89
ssg70
g2663
sg63
(lp2675
S':'
asbag56
(g77
g58
NtRp2676
(dp2677
g61
(dp2678
sg70
g2663
sg63
(lp2679
g56
(g57
g58
NtRp2680
(dp2681
g61
(dp2682
g69
I3
ssg70
g2676
sg63
(lp2683
g1271
asbasbasbag56
(g72
g58
NtRp2684
(dp2685
g61
(dp2686
sg70
g2512
sg63
(lp2687
g56
(g77
g58
NtRp2688
(dp2689
g61
(dp2690
g81
g82
ssg70
g2684
sg63
(lp2691
S'HTTP_COOKIE'
p2692
asbag56
(g77
g58
NtRp2693
(dp2694
g61
(dp2695
g88
g89
ssg70
g2684
sg63
(lp2696
S':'
asbag56
(g77
g58
NtRp2697
(dp2698
g61
(dp2699
sg70
g2684
sg63
(lp2700
g56
(g57
g58
NtRp2701
(dp2702
g61
(dp2703
g69
I3
ssg70
g2697
sg63
(lp2704
g1293
asbasbasbag56
(g72
g58
NtRp2705
(dp2706
g61
(dp2707
sg70
g2512
sg63
(lp2708
g56
(g77
g58
NtRp2709
(dp2710
g61
(dp2711
g81
g82
ssg70
g2705
sg63
(lp2712
S'HTTP_HOST'
p2713
asbag56
(g77
g58
NtRp2714
(dp2715
g61
(dp2716
g88
g89
ssg70
g2705
sg63
(lp2717
S':'
asbag56
(g77
g58
NtRp2718
(dp2719
g61
(dp2720
sg70
g2705
sg63
(lp2721
g56
(g57
g58
NtRp2722
(dp2723
g61
(dp2724
g69
I3
ssg70
g2718
sg63
(lp2725
g1315
asbasbasbag56
(g72
g58
NtRp2726
(dp2727
g61
(dp2728
sg70
g2512
sg63
(lp2729
g56
(g77
g58
NtRp2730
(dp2731
g61
(dp2732
g81
g82
ssg70
g2726
sg63
(lp2733
S'HTTP_USER_AGENT'
p2734
asbag56
(g77
g58
NtRp2735
(dp2736
g61
(dp2737
g88
g89
ssg70
g2726
sg63
(lp2738
S':'
asbag56
(g77
g58
NtRp2739
(dp2740
g61
(dp2741
sg70
g2726
sg63
(lp2742
g56
(g57
g58
NtRp2743
(dp2744
g61
(dp2745
g69
I3
ssg70
g2739
sg63
(lp2746
g1337
asbasbasbag56
(g72
g58
NtRp2747
(dp2748
g61
(dp2749
sg70
g2512
sg63
(lp2750
g56
(g77
g58
NtRp2751
(dp2752
g61
(dp2753
g81
g82
ssg70
g2747
sg63
(lp2754
S'PATH_INFO'
p2755
asbag56
(g77
g58
NtRp2756
(dp2757
g61
(dp2758
g88
g89
ssg70
g2747
sg63
(lp2759
S':'
asbag56
(g77
g58
NtRp2760
(dp2761
g61
(dp2762
sg70
g2747
sg63
(lp2763
g56
(g57
g58
NtRp2764
(dp2765
g61
(dp2766
g69
I3
ssg70
g2760
sg63
(lp2767
g1623
asbasbasbag56
(g72
g58
NtRp2768
(dp2769
g61
(dp2770
sg70
g2512
sg63
(lp2771
g56
(g77
g58
NtRp2772
(dp2773
g61
(dp2774
g81
g82
ssg70
g2768
sg63
(lp2775
S'PATH_TRANSLATED'
p2776
asbag56
(g77
g58
NtRp2777
(dp2778
g61
(dp2779
g88
g89
ssg70
g2768
sg63
(lp2780
S':'
asbag56
(g77
g58
NtRp2781
(dp2782
g61
(dp2783
sg70
g2768
sg63
(lp2784
g56
(g57
g58
NtRp2785
(dp2786
g61
(dp2787
g69
I3
ssg70
g2781
sg63
(lp2788
g1645
asbasbasbag56
(g72
g58
NtRp2789
(dp2790
g61
(dp2791
sg70
g2512
sg63
(lp2792
g56
(g77
g58
NtRp2793
(dp2794
g61
(dp2795
g81
g82
ssg70
g2789
sg63
(lp2796
S'QUERY_STRING'
p2797
asbag56
(g77
g58
NtRp2798
(dp2799
g61
(dp2800
g88
g89
ssg70
g2789
sg63
(lp2801
S':'
asbag56
(g77
g58
NtRp2802
(dp2803
g61
(dp2804
sg70
g2789
sg63
(lp2805
g56
(g57
g58
NtRp2806
(dp2807
g61
(dp2808
g69
I3
ssg70
g2802
sg63
(lp2809
S''
asbasbasbag56
(g72
g58
NtRp2810
(dp2811
g61
(dp2812
sg70
g2512
sg63
(lp2813
g56
(g77
g58
NtRp2814
(dp2815
g61
(dp2816
g81
g82
ssg70
g2810
sg63
(lp2817
S'REMOTE_ADDR'
p2818
asbag56
(g77
g58
NtRp2819
(dp2820
g61
(dp2821
g88
g89
ssg70
g2810
sg63
(lp2822
S':'
asbag56
(g77
g58
NtRp2823
(dp2824
g61
(dp2825
sg70
g2810
sg63
(lp2826
g56
(g57
g58
NtRp2827
(dp2828
g61
(dp2829
g69
I3
ssg70
g2823
sg63
(lp2830
g189
asbasbasbag56
(g72
g58
NtRp2831
(dp2832
g61
(dp2833
sg70
g2512
sg63
(lp2834
g56
(g77
g58
NtRp2835
(dp2836
g61
(dp2837
g81
g82
ssg70
g2831
sg63
(lp2838
S'REMOTE_PORT'
p2839
asbag56
(g77
g58
NtRp2840
(dp2841
g61
(dp2842
g88
g89
ssg70
g2831
sg63
(lp2843
S':'
asbag56
(g77
g58
NtRp2844
(dp2845
g61
(dp2846
sg70
g2831
sg63
(lp2847
g56
(g57
g58
NtRp2848
(dp2849
g61
(dp2850
g69
I3
ssg70
g2844
sg63
(lp2851
g1709
asbasbasbag56
(g72
g58
NtRp2852
(dp2853
g61
(dp2854
sg70
g2512
sg63
(lp2855
g56
(g77
g58
NtRp2856
(dp2857
g61
(dp2858
g81
g82
ssg70
g2852
sg63
(lp2859
S'REQUEST_METHOD'
p2860
asbag56
(g77
g58
NtRp2861
(dp2862
g61
(dp2863
g88
g89
ssg70
g2852
sg63
(lp2864
S':'
asbag56
(g77
g58
NtRp2865
(dp2866
g61
(dp2867
sg70
g2852
sg63
(lp2868
g56
(g57
g58
NtRp2869
(dp2870
g61
(dp2871
g69
I3
ssg70
g2865
sg63
(lp2872
g1731
asbasbasbag56
(g72
g58
NtRp2873
(dp2874
g61
(dp2875
sg70
g2512
sg63
(lp2876
g56
(g77
g58
NtRp2877
(dp2878
g61
(dp2879
g81
g82
ssg70
g2873
sg63
(lp2880
S'REQUEST_URI'
p2881
asbag56
(g77
g58
NtRp2882
(dp2883
g61
(dp2884
g88
g89
ssg70
g2873
sg63
(lp2885
S':'
asbag56
(g77
g58
NtRp2886
(dp2887
g61
(dp2888
sg70
g2873
sg63
(lp2889
g56
(g57
g58
NtRp2890
(dp2891
g61
(dp2892
g69
I3
ssg70
g2886
sg63
(lp2893
g1753
asbasbasbag56
(g72
g58
NtRp2894
(dp2895
g61
(dp2896
sg70
g2512
sg63
(lp2897
g56
(g77
g58
NtRp2898
(dp2899
g61
(dp2900
g81
g82
ssg70
g2894
sg63
(lp2901
S'SCRIPT_FILENAME'
p2902
asbag56
(g77
g58
NtRp2903
(dp2904
g61
(dp2905
g88
g89
ssg70
g2894
sg63
(lp2906
S':'
asbag56
(g77
g58
NtRp2907
(dp2908
g61
(dp2909
sg70
g2894
sg63
(lp2910
g56
(g57
g58
NtRp2911
(dp2912
g61
(dp2913
g69
I3
ssg70
g2907
sg63
(lp2914
g1775
asbasbasbag56
(g72
g58
NtRp2915
(dp2916
g61
(dp2917
sg70
g2512
sg63
(lp2918
g56
(g77
g58
NtRp2919
(dp2920
g61
(dp2921
g81
g82
ssg70
g2915
sg63
(lp2922
S'SCRIPT_NAME'
p2923
asbag56
(g77
g58
NtRp2924
(dp2925
g61
(dp2926
g88
g89
ssg70
g2915
sg63
(lp2927
S':'
asbag56
(g77
g58
NtRp2928
(dp2929
g61
(dp2930
sg70
g2915
sg63
(lp2931
g56
(g57
g58
NtRp2932
(dp2933
g61
(dp2934
g69
I3
ssg70
g2928
sg63
(lp2935
S''
asbasbasbag56
(g72
g58
NtRp2936
(dp2937
g61
(dp2938
sg70
g2512
sg63
(lp2939
g56
(g77
g58
NtRp2940
(dp2941
g61
(dp2942
g81
g82
ssg70
g2936
sg63
(lp2943
S'SERVER_ADDR'
p2944
asbag56
(g77
g58
NtRp2945
(dp2946
g61
(dp2947
g88
g89
ssg70
g2936
sg63
(lp2948
S':'
asbag56
(g77
g58
NtRp2949
(dp2950
g61
(dp2951
sg70
g2936
sg63
(lp2952
g56
(g57
g58
NtRp2953
(dp2954
g61
(dp2955
g69
I3
ssg70
g2949
sg63
(lp2956
g1818
asbasbasbag56
(g72
g58
NtRp2957
(dp2958
g61
(dp2959
sg70
g2512
sg63
(lp2960
g56
(g77
g58
NtRp2961
(dp2962
g61
(dp2963
g81
g82
ssg70
g2957
sg63
(lp2964
S'SERVER_ADMIN'
p2965
asbag56
(g77
g58
NtRp2966
(dp2967
g61
(dp2968
g88
g89
ssg70
g2957
sg63
(lp2969
S':'
asbag56
(g77
g58
NtRp2970
(dp2971
g61
(dp2972
sg70
g2957
sg63
(lp2973
g56
(g57
g58
NtRp2974
(dp2975
g61
(dp2976
g69
I3
ssg70
g2970
sg63
(lp2977
g1840
asbasbasbag56
(g72
g58
NtRp2978
(dp2979
g61
(dp2980
sg70
g2512
sg63
(lp2981
g56
(g77
g58
NtRp2982
(dp2983
g61
(dp2984
g81
g82
ssg70
g2978
sg63
(lp2985
S'SERVER_NAME'
p2986
asbag56
(g77
g58
NtRp2987
(dp2988
g61
(dp2989
g88
g89
ssg70
g2978
sg63
(lp2990
S':'
asbag56
(g77
g58
NtRp2991
(dp2992
g61
(dp2993
sg70
g2978
sg63
(lp2994
g56
(g57
g58
NtRp2995
(dp2996
g61
(dp2997
g69
I3
ssg70
g2991
sg63
(lp2998
g1862
asbasbasbag56
(g72
g58
NtRp2999
(dp3000
g61
(dp3001
sg70
g2512
sg63
(lp3002
g56
(g77
g58
NtRp3003
(dp3004
g61
(dp3005
g81
g82
ssg70
g2999
sg63
(lp3006
S'SERVER_PORT'
p3007
asbag56
(g77
g58
NtRp3008
(dp3009
g61
(dp3010
g88
g89
ssg70
g2999
sg63
(lp3011
S':'
asbag56
(g77
g58
NtRp3012
(dp3013
g61
(dp3014
sg70
g2999
sg63
(lp3015
g56
(g57
g58
NtRp3016
(dp3017
g61
(dp3018
g69
I3
ssg70
g3012
sg63
(lp3019
g1884
asbasbasbag56
(g72
g58
NtRp3020
(dp3021
g61
(dp3022
sg70
g2512
sg63
(lp3023
g56
(g77
g58
NtRp3024
(dp3025
g61
(dp3026
g81
g82
ssg70
g3020
sg63
(lp3027
S'SERVER_PROTOCOL'
p3028
asbag56
(g77
g58
NtRp3029
(dp3030
g61
(dp3031
g88
g89
ssg70
g3020
sg63
(lp3032
S':'
asbag56
(g77
g58
NtRp3033
(dp3034
g61
(dp3035
sg70
g3020
sg63
(lp3036
g56
(g57
g58
NtRp3037
(dp3038
g61
(dp3039
g69
I3
ssg70
g3033
sg63
(lp3040
g1906
asbasbasbag56
(g72
g58
NtRp3041
(dp3042
g61
(dp3043
sg70
g2512
sg63
(lp3044
g56
(g77
g58
NtRp3045
(dp3046
g61
(dp3047
g81
g82
ssg70
g3041
sg63
(lp3048
S'SERVER_SIGNATURE'
p3049
asbag56
(g77
g58
NtRp3050
(dp3051
g61
(dp3052
g88
g89
ssg70
g3041
sg63
(lp3053
S':'
asbag56
(g77
g58
NtRp3054
(dp3055
g61
(dp3056
sg70
g3041
sg63
(lp3057
g56
(g57
g58
NtRp3058
(dp3059
g61
(dp3060
g69
I3
ssg70
g3054
sg63
(lp3061
g1928
asbasbasbag56
(g72
g58
NtRp3062
(dp3063
g61
(dp3064
sg70
g2512
sg63
(lp3065
g56
(g77
g58
NtRp3066
(dp3067
g61
(dp3068
g81
g82
ssg70
g3062
sg63
(lp3069
S'SERVER_SOFTWARE'
p3070
asbag56
(g77
g58
NtRp3071
(dp3072
g61
(dp3073
g88
g89
ssg70
g3062
sg63
(lp3074
S':'
asbag56
(g77
g58
NtRp3075
(dp3076
g61
(dp3077
sg70
g3062
sg63
(lp3078
g56
(g57
g58
NtRp3079
(dp3080
g61
(dp3081
g69
I3
ssg70
g3075
sg63
(lp3082
g1950
asbasbasbag56
(g72
g58
NtRp3083
(dp3084
g61
(dp3085
sg70
g2512
sg63
(lp3086
g56
(g77
g58
NtRp3087
(dp3088
g61
(dp3089
g81
g82
ssg70
g3083
sg63
(lp3090
S'SSL_TLS_SNI'
p3091
asbag56
(g77
g58
NtRp3092
(dp3093
g61
(dp3094
g88
g89
ssg70
g3083
sg63
(lp3095
S':'
asbag56
(g77
g58
NtRp3096
(dp3097
g61
(dp3098
sg70
g3083
sg63
(lp3099
g56
(g57
g58
NtRp3100
(dp3101
g61
(dp3102
g69
I3
ssg70
g3096
sg63
(lp3103
g1972
asbasbasbag56
(g72
g58
NtRp3104
(dp3105
g61
(dp3106
sg70
g2512
sg63
(lp3107
g56
(g77
g58
NtRp3108
(dp3109
g61
(dp3110
g81
g82
ssg70
g3104
sg63
(lp3111
S'mod_wsgi.application_group'
p3112
asbag56
(g77
g58
NtRp3113
(dp3114
g61
(dp3115
g88
g89
ssg70
g3104
sg63
(lp3116
S':'
asbag56
(g77
g58
NtRp3117
(dp3118
g61
(dp3119
sg70
g3104
sg63
(lp3120
g56
(g57
g58
NtRp3121
(dp3122
g61
(dp3123
g69
I3
ssg70
g3117
sg63
(lp3124
g1380
asbasbasbag56
(g72
g58
NtRp3125
(dp3126
g61
(dp3127
sg70
g2512
sg63
(lp3128
g56
(g77
g58
NtRp3129
(dp3130
g61
(dp3131
g81
g82
ssg70
g3125
sg63
(lp3132
S'mod_wsgi.callable_object'
p3133
asbag56
(g77
g58
NtRp3134
(dp3135
g61
(dp3136
g88
g89
ssg70
g3125
sg63
(lp3137
S':'
asbag56
(g77
g58
NtRp3138
(dp3139
g61
(dp3140
sg70
g3125
sg63
(lp3141
g56
(g57
g58
NtRp3142
(dp3143
g61
(dp3144
g69
I3
ssg70
g3138
sg63
(lp3145
g1402
asbasbasbag56
(g72
g58
NtRp3146
(dp3147
g61
(dp3148
sg70
g2512
sg63
(lp3149
g56
(g77
g58
NtRp3150
(dp3151
g61
(dp3152
g81
g82
ssg70
g3146
sg63
(lp3153
S'mod_wsgi.handler_script'
p3154
asbag56
(g77
g58
NtRp3155
(dp3156
g61
(dp3157
g88
g89
ssg70
g3146
sg63
(lp3158
S':'
asbag56
(g77
g58
NtRp3159
(dp3160
g61
(dp3161
sg70
g3146
sg63
(lp3162
g56
(g57
g58
NtRp3163
(dp3164
g61
(dp3165
g69
I3
ssg70
g3159
sg63
(lp3166
S''
asbasbasbag56
(g72
g58
NtRp3167
(dp3168
g61
(dp3169
sg70
g2512
sg63
(lp3170
g56
(g77
g58
NtRp3171
(dp3172
g61
(dp3173
g81
g82
ssg70
g3167
sg63
(lp3174
S'mod_wsgi.input_chunked'
p3175
asbag56
(g77
g58
NtRp3176
(dp3177
g61
(dp3178
g88
g89
ssg70
g3167
sg63
(lp3179
S':'
asbag56
(g77
g58
NtRp3180
(dp3181
g61
(dp3182
sg70
g3167
sg63
(lp3183
g56
(g57
g58
NtRp3184
(dp3185
g61
(dp3186
g69
I3
ssg70
g3180
sg63
(lp3187
S'0'
asbasbasbag56
(g72
g58
NtRp3188
(dp3189
g61
(dp3190
sg70
g2512
sg63
(lp3191
g56
(g77
g58
NtRp3192
(dp3193
g61
(dp3194
g81
g82
ssg70
g3188
sg63
(lp3195
S'mod_wsgi.listener_host'
p3196
asbag56
(g77
g58
NtRp3197
(dp3198
g61
(dp3199
g88
g89
ssg70
g3188
sg63
(lp3200
S':'
asbag56
(g77
g58
NtRp3201
(dp3202
g61
(dp3203
sg70
g3188
sg63
(lp3204
g56
(g57
g58
NtRp3205
(dp3206
g61
(dp3207
g69
I3
ssg70
g3201
sg63
(lp3208
S''
asbasbasbag56
(g72
g58
NtRp3209
(dp3210
g61
(dp3211
sg70
g2512
sg63
(lp3212
g56
(g77
g58
NtRp3213
(dp3214
g61
(dp3215
g81
g82
ssg70
g3209
sg63
(lp3216
S'mod_wsgi.listener_port'
p3217
asbag56
(g77
g58
NtRp3218
(dp3219
g61
(dp3220
g88
g89
ssg70
g3209
sg63
(lp3221
S':'
asbag56
(g77
g58
NtRp3222
(dp3223
g61
(dp3224
sg70
g3209
sg63
(lp3225
g56
(g57
g58
NtRp3226
(dp3227
g61
(dp3228
g69
I3
ssg70
g3222
sg63
(lp3229
g1487
asbasbasbag56
(g72
g58
NtRp3230
(dp3231
g61
(dp3232
sg70
g2512
sg63
(lp3233
g56
(g77
g58
NtRp3234
(dp3235
g61
(dp3236
g81
g82
ssg70
g3230
sg63
(lp3237
S'mod_wsgi.process_group'
p3238
asbag56
(g77
g58
NtRp3239
(dp3240
g61
(dp3241
g88
g89
ssg70
g3230
sg63
(lp3242
S':'
asbag56
(g77
g58
NtRp3243
(dp3244
g61
(dp3245
sg70
g3230
sg63
(lp3246
g56
(g57
g58
NtRp3247
(dp3248
g61
(dp3249
g69
I3
ssg70
g3243
sg63
(lp3250
g1509
asbasbasbag56
(g72
g58
NtRp3251
(dp3252
g61
(dp3253
sg70
g2512
sg63
(lp3254
g56
(g77
g58
NtRp3255
(dp3256
g61
(dp3257
g81
g82
ssg70
g3251
sg63
(lp3258
S'mod_wsgi.request_handler'
p3259
asbag56
(g77
g58
NtRp3260
(dp3261
g61
(dp3262
g88
g89
ssg70
g3251
sg63
(lp3263
S':'
asbag56
(g77
g58
NtRp3264
(dp3265
g61
(dp3266
sg70
g3251
sg63
(lp3267
g56
(g57
g58
NtRp3268
(dp3269
g61
(dp3270
g69
I3
ssg70
g3264
sg63
(lp3271
g1531
asbasbasbag56
(g72
g58
NtRp3272
(dp3273
g61
(dp3274
sg70
g2512
sg63
(lp3275
g56
(g77
g58
NtRp3276
(dp3277
g61
(dp3278
g81
g82
ssg70
g3272
sg63
(lp3279
S'mod_wsgi.script_reloading'
p3280
asbag56
(g77
g58
NtRp3281
(dp3282
g61
(dp3283
g88
g89
ssg70
g3272
sg63
(lp3284
S':'
asbag56
(g77
g58
NtRp3285
(dp3286
g61
(dp3287
sg70
g3272
sg63
(lp3288
g56
(g57
g58
NtRp3289
(dp3290
g61
(dp3291
g69
I3
ssg70
g3285
sg63
(lp3292
S'1'
asbasbasbag56
(g72
g58
NtRp3293
(dp3294
g61
(dp3295
sg70
g2512
sg63
(lp3296
g56
(g77
g58
NtRp3297
(dp3298
g61
(dp3299
g81
g82
ssg70
g3293
sg63
(lp3300
S'mod_wsgi.version'
p3301
asbag56
(g77
g58
NtRp3302
(dp3303
g61
(dp3304
g88
g89
ssg70
g3293
sg63
(lp3305
S':'
asbag56
(g77
g58
NtRp3306
(dp3307
g61
(dp3308
sg70
g3293
sg63
(lp3309
g56
(g57
g58
NtRp3310
(dp3311
g61
(dp3312
g69
I3
ssg70
g3306
sg63
(lp3313
g56
(g65
g58
NtRp3314
(dp3315
g61
(dp3316
g69
I2
ssg70
Nsg63
(lp3317
g56
(g72
g58
NtRp3318
(dp3319
g61
(dp3320
sg70
g3314
sg63
(lp3321
g56
(g77
g58
NtRp3322
(dp3323
g61
(dp3324
sg70
g3318
sg63
(lp3325
g56
(g57
g58
NtRp3326
(dp3327
g61
(dp3328
g69
I2
ssg70
g3322
sg63
(lp3329
S'3'
asbasbasbag56
(g72
g58
NtRp3330
(dp3331
g61
(dp3332
sg70
g3314
sg63
(lp3333
g56
(g77
g58
NtRp3334
(dp3335
g61
(dp3336
sg70
g3330
sg63
(lp3337
g56
(g57
g58
NtRp3338
(dp3339
g61
(dp3340
g69
I2
ssg70
g3334
sg63
(lp3341
S'2'
asbasbasbasbasbasbasbag56
(g72
g58
NtRp3342
(dp3343
g61
(dp3344
sg70
g2512
sg63
(lp3345
g56
(g77
g58
NtRp3346
(dp3347
g61
(dp3348
g81
g82
ssg70
g3342
sg63
(lp3349
S'wsgi.errors'
p3350
asbag56
(g77
g58
NtRp3351
(dp3352
g61
(dp3353
g88
g89
ssg70
g3342
sg63
(lp3354
S':'
asbag56
(g77
g58
NtRp3355
(dp3356
g61
(dp3357
sg70
g3342
sg63
(lp3358
g56
(g57
g58
NtRp3359
(dp3360
g61
(dp3361
g69
I3
ssg70
g3355
sg63
(lp3362
S'<mod_wsgi.Log object at 0x2b9be0fa4d70>'
p3363
asbasbasbag56
(g72
g58
NtRp3364
(dp3365
g61
(dp3366
sg70
g2512
sg63
(lp3367
g56
(g77
g58
NtRp3368
(dp3369
g61
(dp3370
g81
g82
ssg70
g3364
sg63
(lp3371
S'wsgi.file_wrapper'
p3372
asbag56
(g77
g58
NtRp3373
(dp3374
g61
(dp3375
g88
g89
ssg70
g3364
sg63
(lp3376
S':'
asbag56
(g77
g58
NtRp3377
(dp3378
g61
(dp3379
sg70
g3364
sg63
(lp3380
g56
(g57
g58
NtRp3381
(dp3382
g61
(dp3383
g69
I3
ssg70
g3377
sg63
(lp3384
S'<built-in method file_wrapper of mod_wsgi.Adapter object at 0x2b9be1273e40>'
p3385
asbasbasbag56
(g72
g58
NtRp3386
(dp3387
g61
(dp3388
sg70
g2512
sg63
(lp3389
g56
(g77
g58
NtRp3390
(dp3391
g61
(dp3392
g81
g82
ssg70
g3386
sg63
(lp3393
S'wsgi.input'
p3394
asbag56
(g77
g58
NtRp3395
(dp3396
g61
(dp3397
g88
g89
ssg70
g3386
sg63
(lp3398
S':'
asbag56
(g77
g58
NtRp3399
(dp3400
g61
(dp3401
sg70
g3386
sg63
(lp3402
g56
(g57
g58
NtRp3403
(dp3404
g61
(dp3405
g69
I3
ssg70
g3399
sg63
(lp3406
S'<cStringIO.StringO object at 0x2b9be123d180>'
p3407
asbasbasbag56
(g72
g58
NtRp3408
(dp3409
g61
(dp3410
sg70
g2512
sg63
(lp3411
g56
(g77
g58
NtRp3412
(dp3413
g61
(dp3414
g81
g82
ssg70
g3408
sg63
(lp3415
S'wsgi.multiprocess'
p3416
asbag56
(g77
g58
NtRp3417
(dp3418
g61
(dp3419
g88
g89
ssg70
g3408
sg63
(lp3420
S':'
asbag56
(g77
g58
NtRp3421
(dp3422
g61
(dp3423
sg70
g3408
sg63
(lp3424
g56
(g57
g58
NtRp3425
(dp3426
g61
(dp3427
g69
I3
ssg70
g3421
sg63
(lp3428
g99
asbasbasbag56
(g72
g58
NtRp3429
(dp3430
g61
(dp3431
sg70
g2512
sg63
(lp3432
g56
(g77
g58
NtRp3433
(dp3434
g61
(dp3435
g81
g82
ssg70
g3429
sg63
(lp3436
S'wsgi.multithread'
p3437
asbag56
(g77
g58
NtRp3438
(dp3439
g61
(dp3440
g88
g89
ssg70
g3429
sg63
(lp3441
S':'
asbag56
(g77
g58
NtRp3442
(dp3443
g61
(dp3444
sg70
g3429
sg63
(lp3445
g56
(g57
g58
NtRp3446
(dp3447
g61
(dp3448
g69
I3
ssg70
g3442
sg63
(lp3449
g2124
asbasbasbag56
(g72
g58
NtRp3450
(dp3451
g61
(dp3452
sg70
g2512
sg63
(lp3453
g56
(g77
g58
NtRp3454
(dp3455
g61
(dp3456
g81
g82
ssg70
g3450
sg63
(lp3457
S'wsgi.run_once'
p3458
asbag56
(g77
g58
NtRp3459
(dp3460
g61
(dp3461
g88
g89
ssg70
g3450
sg63
(lp3462
S':'
asbag56
(g77
g58
NtRp3463
(dp3464
g61
(dp3465
sg70
g3450
sg63
(lp3466
g56
(g57
g58
NtRp3467
(dp3468
g61
(dp3469
g69
I3
ssg70
g3463
sg63
(lp3470
g99
asbasbasbag56
(g72
g58
NtRp3471
(dp3472
g61
(dp3473
sg70
g2512
sg63
(lp3474
g56
(g77
g58
NtRp3475
(dp3476
g61
(dp3477
g81
g82
ssg70
g3471
sg63
(lp3478
S'wsgi.url_scheme'
p3479
asbag56
(g77
g58
NtRp3480
(dp3481
g61
(dp3482
g88
g89
ssg70
g3471
sg63
(lp3483
S':'
asbag56
(g77
g58
NtRp3484
(dp3485
g61
(dp3486
sg70
g3471
sg63
(lp3487
g56
(g57
g58
NtRp3488
(dp3489
g61
(dp3490
g69
I3
ssg70
g3484
sg63
(lp3491
g2167
asbasbasbag56
(g72
g58
NtRp3492
(dp3493
g61
(dp3494
sg70
g2512
sg63
(lp3495
g56
(g77
g58
NtRp3496
(dp3497
g61
(dp3498
g81
g82
ssg70
g3492
sg63
(lp3499
S'wsgi.version'
p3500
asbag56
(g77
g58
NtRp3501
(dp3502
g61
(dp3503
g88
g89
ssg70
g3492
sg63
(lp3504
S':'
asbag56
(g77
g58
NtRp3505
(dp3506
g61
(dp3507
sg70
g3492
sg63
(lp3508
g56
(g57
g58
NtRp3509
(dp3510
g61
(dp3511
g69
I3
ssg70
g3505
sg63
(lp3512
S'1'
asbasbasbasbasbasbasbasbasbasbasbasbasbsS'frames'
p3513
(lp3514
(dp3515
S'file'
p3516
S'/home/www-data/web2py/gluon/restricted.py'
p3517
sS'dump'
p3518
(dp3519
S'environment'
p3520
S"{'A': <class 'gluon.html.A'>, 'Auth': <class 'gluon.tools.Auth'>, 'B': <class 'gluon.html.B'>, 'BEAUTIFY': <class 'gluon.html.BEAUTIFY'>, 'BODY': <class 'gluon.html.BODY'>, 'BR': <class 'gluon.html.BR'>, 'CENTER': <class 'gluon.html.CENTER'>, 'CLEANUP': <class 'gluon.validators.CLEANUP'>, 'CODE': <class 'gluon.html.CODE'>, 'CRYPT': <class 'gluon.validators.CRYPT'>, ...}"
p3521
sS'ccode'
p3522
S'<code object <module> at 0x2b9bdb653a80, file "/...y/applications/rdcdss/views/generic.pdf", line 1>'
p3523
ssS'lnum'
p3524
I181
sS'lines'
p3525
(dp3526
I176
S'    try:'
p3527
sI177
S'        if type(code) == types.CodeType:'
p3528
sI178
S'            ccode = code'
p3529
sI179
S'        else:'
p3530
sI180
S'            ccode = compile2(code,layer)'
p3531
sI181
S'        exec ccode in environment'
p3532
sI182
S'    except HTTP:'
p3533
sI183
S'        raise'
p3534
sI184
S'    except Exception:'
p3535
sI185
S'        # XXX Show exception in Wing IDE if running in debugger'
p3536
ssS'call'
p3537
S'(code="import re\\nfrom gluon.contrib.markmin.markmin2pdf...alse)\\n    pass\\nresponse.write(\'\\\\n\', escape=False)", environment={\'A\': <class \'gluon.html.A\'>, \'Auth\': <class \'gluon.tools.Auth\'>, \'B\': <class \'gluon.html.B\'>, \'BEAUTIFY\': <class \'gluon.html.BEAUTIFY\'>, \'BODY\': <class \'gluon.html.BODY\'>, \'BR\': <class \'gluon.html.BR\'>, \'CENTER\': <class \'gluon.html.CENTER\'>, \'CLEANUP\': <class \'gluon.validators.CLEANUP\'>, \'CODE\': <class \'gluon.html.CODE\'>, \'CRYPT\': <class \'gluon.validators.CRYPT\'>, ...}, layer=\'/home/www-data/web2py/applications/rdcdss/views/generic.pdf\')'
p3538
sS'func'
p3539
S'restricted'
p3540
sa(dp3541
g3516
S'/home/www-data/web2py/applications/rdcdss/views/generic.pdf'
p3542
sg3518
(dp3543
S'request.controller'
p3544
S"'default'"
p3545
sS'response.render'
p3546
S"<bound method Response.render of <Storage {'body...bda> at 0x2b9be0fa1410>, 'view': 'generic.pdf'}>>"
p3547
sS'request'
p3548
S"<Storage {'function': 'index', 'body': <cStringI....19-23-38.4e77f1ce-4492-4b30-b767-ed67e09d4799'}>"
p3549
sS'html'
p3550
S'\'\\n<!DOCTYPE html>\\n<html lang="en" class="no-js"><...      </script>\\n       -->    \\n  </body>\\n</html>\\n\''
p3551
sS'request.function'
p3552
S"'index'"
p3553
sS'response'
p3554
S"<Storage {'body': <cStringIO.StringO object at 0...mbda> at 0x2b9be0fa1410>, 'view': 'generic.pdf'}>"
p3555
ssg3524
I21
sg3525
(dp3556
I16
S"    if tag in ['b','strong','label']: return '**%s**' % text"
p3557
sI17
S'    if tag in [\'em\',\'i\']: return "\'\'%s\'\'" % text'
p3558
sI18
S"    if tag in ['tt','code']: return '``%s``' % text"
p3559
sI19
S"    if tag=='a': return '[[%s %s]]' % (text,attr.get('_href',''))"
p3560
sI20
S'    return text'
p3561
sI21
S"html=response.render('%s/%s.html' % (request.controller,request.function))"
p3562
sI22
S"markmin=TAG(html).element('#content').flatten(markmin_serializer)"
p3563
sI23
S'pdf,warnings,errors=markmin2pdf(markmin)'
p3564
sI24
S'if errors:'
p3565
sI25
S"   response.headers['Content-Type']='text'"
p3566
ssg3537
S'()'
p3567
sg3539
S'<module>'
p3568
sa(dp3569
g3516
S'/home/www-data/web2py/gluon/html.py'
p3570
sg3518
(dp3571
S'decoder.decoder'
p3572
S'<function decoder>'
p3573
sS'global decoder'
p3574
S"<module 'gluon.decoder' from '/home/www-data/web2py/gluon/decoder.pyc'>"
p3575
sS'global web2pyHTMLParser'
p3576
S'<class gluon.html.web2pyHTMLParser>'
p3577
sS'html'
p3578
S'\'\\n<!DOCTYPE html>\\n<html lang="en" class="no-js"><...      </script>\\n       -->    \\n  </body>\\n</html>\\n\''
p3579
sS').tree'
p3580
S'undefined'
p3581
ssg3524
I1014
sg3525
(dp3582
I1009
S'            tag = name'
p3583
sI1010
S''
sI1011
S'        return lambda *a, **b: __tag__(*a, **b)'
p3584
sI1012
S''
sI1013
S'    def __call__(self,html):'
p3585
sI1014
S'        return web2pyHTMLParser(decoder.decoder(html)).tree'
p3586
sI1015
S''
sI1016
S'TAG = __TAG__()'
p3587
sI1017
S''
sI1018
S''
ssg3537
S'(self=<gluon.html.__TAG__ object>, html=\'\\n<!DOCTYPE html>\\n<html lang="en" class="no-js"><...      </script>\\n       -->    \\n  </body>\\n</html>\\n\')'
p3588
sg3539
S'__call__'
p3589
sa(dp3590
g3516
S'/home/www-data/web2py/gluon/html.py'
p3591
sg3518
(dp3592
S'self.feed'
p3593
S'<bound method web2pyHTMLParser.feed of <gluon.html.web2pyHTMLParser instance>>'
p3594
sS'self'
p3595
S'<gluon.html.web2pyHTMLParser instance>'
p3596
sS'text'
p3597
S'\'\\n<!DOCTYPE html>\\n<html lang="en" class="no-js"><...      </script>\\n       -->    \\n  </body>\\n</html>\\n\''
p3598
ssg3524
I1995
sg3525
(dp3599
I1990
S'        HTMLParser.__init__(self)'
p3600
sI1991
S"        self.tree = self.parent = TAG['']()"
p3601
sI1992
S'        self.closed = closed'
p3602
sI1993
S'        self.tags = [x for x in __all__ if isinstance(eval(x),DIV)]'
p3603
sI1994
S'        self.last = None'
p3604
sI1995
S'        self.feed(text)'
p3605
sI1996
S'    def handle_starttag(self, tagname, attrs):'
p3606
sI1997
S'        if tagname.upper() in self.tags:'
p3607
sI1998
S'            tag=eval(tagname.upper())'
p3608
sI1999
S'        else:'
p3609
ssg3537
S'(self=<gluon.html.web2pyHTMLParser instance>, text=\'\\n<!DOCTYPE html>\\n<html lang="en" class="no-js"><...      </script>\\n       -->    \\n  </body>\\n</html>\\n\', closed=(\'input\', \'link\'))'
p3610
sg3539
g49
sa(dp3611
g3516
S'/usr/lib/python2.6/HTMLParser.py'
p3612
sg3518
(dp3613
S'self.goahead'
p3614
S'<bound method web2pyHTMLParser.goahead of <gluon.html.web2pyHTMLParser instance>>'
p3615
sS'self'
p3616
S'<gluon.html.web2pyHTMLParser instance>'
p3617
ssg3524
I108
sg3525
(dp3618
I103
S''
sI104
S'        Call this as often as you want, with as little or as much text'
p3619
sI105
S"        as you want (may include '\\n')."
p3620
sI106
S'        """'
p3621
sI107
S'        self.rawdata = self.rawdata + data'
p3622
sI108
S'        self.goahead(0)'
p3623
sI109
S''
sI110
S'    def close(self):'
p3624
sI111
S'        """Handle any buffered data."""'
p3625
sI112
S'        self.goahead(1)'
p3626
ssg3537
S'(self=<gluon.html.web2pyHTMLParser instance>, data=\'\\n<!DOCTYPE html>\\n<html lang="en" class="no-js"><...      </script>\\n       -->    \\n  </body>\\n</html>\\n\')'
p3627
sg3539
S'feed'
p3628
sa(dp3629
g3516
S'/usr/lib/python2.6/HTMLParser.py'
p3630
sg3518
(dp3631
S'i'
S'14843'
p3632
sS'k'
S'14644'
p3633
sS'self.parse_endtag'
p3634
S'<bound method web2pyHTMLParser.parse_endtag of <gluon.html.web2pyHTMLParser instance>>'
p3635
sS'self'
p3636
S'<gluon.html.web2pyHTMLParser instance>'
p3637
ssg3524
I150
sg3525
(dp3638
I145
S'            startswith = rawdata.startswith'
p3639
sI146
S"            if startswith('<', i):"
p3640
sI147
S'                if starttagopen.match(rawdata, i): # < + letter'
p3641
sI148
S'                    k = self.parse_starttag(i)'
p3642
sI149
S'                elif startswith("</", i):'
p3643
sI150
S'                    k = self.parse_endtag(i)'
p3644
sI151
S'                elif startswith("<!--", i):'
p3645
sI152
S'                    k = self.parse_comment(i)'
p3646
sI153
S'                elif startswith("<?", i):'
p3647
sI154
S'                    k = self.parse_pi(i)'
p3648
ssg3537
S'(self=<gluon.html.web2pyHTMLParser instance>, end=0)'
p3649
sg3539
S'goahead'
p3650
sa(dp3651
g3516
S'/usr/lib/python2.6/HTMLParser.py'
p3652
sg3518
(dp3653
S'self'
p3654
S'<gluon.html.web2pyHTMLParser instance>'
p3655
sS'tag'
p3656
S"'script'"
p3657
sS'tag.lower'
p3658
S'<built-in method lower of str object>'
p3659
sS'self.handle_endtag'
p3660
S'<bound method web2pyHTMLParser.handle_endtag of <gluon.html.web2pyHTMLParser instance>>'
p3661
ssg3524
I319
sg3525
(dp3662
I320
S'        self.clear_cdata_mode()'
p3663
sI321
S'        return j'
p3664
sI322
S''
sI323
S'    # Overridable -- finish processing of start+end tag: <tag.../>'
p3665
sI314
S'        j = match.end()'
p3666
sI315
S'        match = endtagfind.match(rawdata, i) # </ + tag + >'
p3667
sI316
S'        if not match:'
p3668
sI317
S'            self.error("bad end tag: %r" % (rawdata[i:j],))'
p3669
sI318
S'        tag = match.group(1)'
p3670
sI319
S'        self.handle_endtag(tag.lower())'
p3671
ssg3537
S'(self=<gluon.html.web2pyHTMLParser instance>, i=14843)'
p3672
sg3539
S'parse_endtag'
p3673
sa(dp3674
g3516
S'/home/www-data/web2py/gluon/html.py'
p3675
sg3518
(dp3676
S'builtinRuntimeError'
p3677
S"<type 'exceptions.RuntimeError'>"
p3678
sS'tagname'
p3679
S"'script'"
p3680
ssg3524
I2030
sg3525
(dp3681
I2025
S'        while True:'
p3682
sI2026
S'            try:'
p3683
sI2027
S'                parent_tagname=self.parent.tag'
p3684
sI2028
S'                self.parent = self.parent.parent'
p3685
sI2029
S'            except:'
p3686
sI2030
S'                raise RuntimeError, "unable to balance tag %s" % tagname'
p3687
sI2031
S'            if parent_tagname[:len(tagname)]==tagname: break'
p3688
sI2032
S''
sI2033
S'def markdown_serializer(text,tag=None,attr={}):'
p3689
sI2034
S"    if tag is None: return re.sub('\\s+',' ',text)"
p3690
ssg3537
S"(self=<gluon.html.web2pyHTMLParser instance>, tagname='script')"
p3691
sg3539
S'handle_endtag'
p3692
sasS'pyver'
p3693
S'Python 2.6.6: /usr/bin/python'
p3694
sS'session'
p3695
g56
(g57
g58
NtRp3696
(dp3697
g61
(dp3698
sg63
(lp3699
g56
(g65
g58
NtRp3700
(dp3701
g61
(dp3702
g69
I5
ssg70
Nsg63
(lp3703
g56
(g72
g58
NtRp3704
(dp3705
g61
(dp3706
sg70
g3700
sg63
(lp3707
g56
(g77
g58
NtRp3708
(dp3709
g61
(dp3710
g81
g82
ssg70
g3704
sg63
(lp3711
S'data'
p3712
asbag56
(g77
g58
NtRp3713
(dp3714
g61
(dp3715
g88
g89
ssg70
g3704
sg63
(lp3716
S':'
asbag56
(g77
g58
NtRp3717
(dp3718
g61
(dp3719
sg70
g3704
sg63
(lp3720
g56
(g57
g58
NtRp3721
(dp3722
g61
(dp3723
g69
I5
ssg70
g3717
sg63
(lp3724
g56
(g65
g58
NtRp3725
(dp3726
g61
(dp3727
g69
I4
ssg70
Nsg63
(lp3728
sbasbasbasbag56
(g72
g58
NtRp3729
(dp3730
g61
(dp3731
sg70
g3700
sg63
(lp3732
g56
(g77
g58
NtRp3733
(dp3734
g61
(dp3735
g81
g82
ssg70
g3729
sg63
(lp3736
S'hashstring'
p3737
asbag56
(g77
g58
NtRp3738
(dp3739
g61
(dp3740
g88
g89
ssg70
g3729
sg63
(lp3741
S':'
asbag56
(g77
g58
NtRp3742
(dp3743
g61
(dp3744
sg70
g3729
sg63
(lp3745
g56
(g57
g58
NtRp3746
(dp3747
g61
(dp3748
g69
I5
ssg70
g3742
sg63
(lp3749
S'3c9c17575c580666e1827278caf19f83'
p3750
asbasbasbag56
(g72
g58
NtRp3751
(dp3752
g61
(dp3753
sg70
g3700
sg63
(lp3754
g56
(g77
g58
NtRp3755
(dp3756
g61
(dp3757
g81
g82
ssg70
g3751
sg63
(lp3758
S'query'
p3759
asbag56
(g77
g58
NtRp3760
(dp3761
g61
(dp3762
g88
g89
ssg70
g3751
sg63
(lp3763
S':'
asbag56
(g77
g58
NtRp3764
(dp3765
g61
(dp3766
sg70
g3751
sg63
(lp3767
g56
(g57
g58
NtRp3768
(dp3769
g61
(dp3770
g69
I5
ssg70
g3764
sg63
(lp3771
S''
asbasbasbasbasbsS'etype'
p3772
S"<type 'exceptions.RuntimeError'>"
p3773
sS'date'
p3774
S'Thu Jun 30 19:23:38 2011'
p3775
sS'response'
p3776
g56
(g57
g58
NtRp3777
(dp3778
g61
(dp3779
sg63
(lp3780
g56
(g65
g58
NtRp3781
(dp3782
g61
(dp3783
g69
I5
ssg70
Nsg63
(lp3784
g56
(g72
g58
NtRp3785
(dp3786
g61
(dp3787
sg70
g3781
sg63
(lp3788
g56
(g77
g58
NtRp3789
(dp3790
g61
(dp3791
g81
g82
ssg70
g3785
sg63
(lp3792
g154
asbag56
(g77
g58
NtRp3793
(dp3794
g61
(dp3795
g88
g89
ssg70
g3785
sg63
(lp3796
S':'
asbag56
(g77
g58
NtRp3797
(dp3798
g61
(dp3799
sg70
g3785
sg63
(lp3800
g56
(g57
g58
NtRp3801
(dp3802
g61
(dp3803
g69
I5
ssg70
g3797
sg63
(lp3804
S'<cStringIO.StringO object at 0x2b9be1326960>'
p3805
asbasbasbag56
(g72
g58
NtRp3806
(dp3807
g61
(dp3808
sg70
g3781
sg63
(lp3809
g56
(g77
g58
NtRp3810
(dp3811
g61
(dp3812
g81
g82
ssg70
g3806
sg63
(lp3813
g220
asbag56
(g77
g58
NtRp3814
(dp3815
g61
(dp3816
g88
g89
ssg70
g3806
sg63
(lp3817
S':'
asbag56
(g77
g58
NtRp3818
(dp3819
g61
(dp3820
sg70
g3806
sg63
(lp3821
g56
(g57
g58
NtRp3822
(dp3823
g61
(dp3824
g69
I5
ssg70
g3818
sg63
(lp3825
g56
(g65
g58
NtRp3826
(dp3827
g61
(dp3828
g69
I4
ssg70
Nsg63
(lp3829
g56
(g72
g58
NtRp3830
(dp3831
g61
(dp3832
sg70
g3826
sg63
(lp3833
g56
(g77
g58
NtRp3834
(dp3835
g61
(dp3836
g81
g82
ssg70
g3830
sg63
(lp3837
S'session_id_rdcdss'
p3838
asbag56
(g77
g58
NtRp3839
(dp3840
g61
(dp3841
g88
g89
ssg70
g3830
sg63
(lp3842
S':'
asbag56
(g77
g58
NtRp3843
(dp3844
g61
(dp3845
sg70
g3830
sg63
(lp3846
g56
(g57
g58
NtRp3847
(dp3848
g61
(dp3849
g69
I4
ssg70
g3843
sg63
(lp3850
g56
(g65
g58
NtRp3851
(dp3852
g61
(dp3853
g69
I3
ssg70
Nsg63
(lp3854
g56
(g72
g58
NtRp3855
(dp3856
g61
(dp3857
sg70
g3851
sg63
(lp3858
g56
(g77
g58
NtRp3859
(dp3860
g61
(dp3861
g81
g82
ssg70
g3855
sg63
(lp3862
g270
asbag56
(g77
g58
NtRp3863
(dp3864
g61
(dp3865
g88
g89
ssg70
g3855
sg63
(lp3866
S':'
asbag56
(g77
g58
NtRp3867
(dp3868
g61
(dp3869
sg70
g3855
sg63
(lp3870
g56
(g57
g58
NtRp3871
(dp3872
g61
(dp3873
g69
I3
ssg70
g3867
sg63
(lp3874
S''
asbasbasbag56
(g72
g58
NtRp3875
(dp3876
g61
(dp3877
sg70
g3851
sg63
(lp3878
g56
(g77
g58
NtRp3879
(dp3880
g61
(dp3881
g81
g82
ssg70
g3875
sg63
(lp3882
g291
asbag56
(g77
g58
NtRp3883
(dp3884
g61
(dp3885
g88
g89
ssg70
g3875
sg63
(lp3886
S':'
asbag56
(g77
g58
NtRp3887
(dp3888
g61
(dp3889
sg70
g3875
sg63
(lp3890
g56
(g57
g58
NtRp3891
(dp3892
g61
(dp3893
g69
I3
ssg70
g3887
sg63
(lp3894
S''
asbasbasbag56
(g72
g58
NtRp3895
(dp3896
g61
(dp3897
sg70
g3851
sg63
(lp3898
g56
(g77
g58
NtRp3899
(dp3900
g61
(dp3901
g81
g82
ssg70
g3895
sg63
(lp3902
g312
asbag56
(g77
g58
NtRp3903
(dp3904
g61
(dp3905
g88
g89
ssg70
g3895
sg63
(lp3906
S':'
asbag56
(g77
g58
NtRp3907
(dp3908
g61
(dp3909
sg70
g3895
sg63
(lp3910
g56
(g57
g58
NtRp3911
(dp3912
g61
(dp3913
g69
I3
ssg70
g3907
sg63
(lp3914
S''
asbasbasbag56
(g72
g58
NtRp3915
(dp3916
g61
(dp3917
sg70
g3851
sg63
(lp3918
g56
(g77
g58
NtRp3919
(dp3920
g61
(dp3921
g81
g82
ssg70
g3915
sg63
(lp3922
g333
asbag56
(g77
g58
NtRp3923
(dp3924
g61
(dp3925
g88
g89
ssg70
g3915
sg63
(lp3926
S':'
asbag56
(g77
g58
NtRp3927
(dp3928
g61
(dp3929
sg70
g3915
sg63
(lp3930
g56
(g57
g58
NtRp3931
(dp3932
g61
(dp3933
g69
I3
ssg70
g3927
sg63
(lp3934
S''
asbasbasbag56
(g72
g58
NtRp3935
(dp3936
g61
(dp3937
sg70
g3851
sg63
(lp3938
g56
(g77
g58
NtRp3939
(dp3940
g61
(dp3941
g81
g82
ssg70
g3935
sg63
(lp3942
g354
asbag56
(g77
g58
NtRp3943
(dp3944
g61
(dp3945
g88
g89
ssg70
g3935
sg63
(lp3946
S':'
asbag56
(g77
g58
NtRp3947
(dp3948
g61
(dp3949
sg70
g3935
sg63
(lp3950
g56
(g57
g58
NtRp3951
(dp3952
g61
(dp3953
g69
I3
ssg70
g3947
sg63
(lp3954
S''
asbasbasbag56
(g72
g58
NtRp3955
(dp3956
g61
(dp3957
sg70
g3851
sg63
(lp3958
g56
(g77
g58
NtRp3959
(dp3960
g61
(dp3961
g81
g82
ssg70
g3955
sg63
(lp3962
g375
asbag56
(g77
g58
NtRp3963
(dp3964
g61
(dp3965
g88
g89
ssg70
g3955
sg63
(lp3966
S':'
asbag56
(g77
g58
NtRp3967
(dp3968
g61
(dp3969
sg70
g3955
sg63
(lp3970
g56
(g57
g58
NtRp3971
(dp3972
g61
(dp3973
g69
I3
ssg70
g3967
sg63
(lp3974
S'/'
asbasbasbag56
(g72
g58
NtRp3975
(dp3976
g61
(dp3977
sg70
g3851
sg63
(lp3978
g56
(g77
g58
NtRp3979
(dp3980
g61
(dp3981
g81
g82
ssg70
g3975
sg63
(lp3982
g396
asbag56
(g77
g58
NtRp3983
(dp3984
g61
(dp3985
g88
g89
ssg70
g3975
sg63
(lp3986
S':'
asbag56
(g77
g58
NtRp3987
(dp3988
g61
(dp3989
sg70
g3975
sg63
(lp3990
g56
(g57
g58
NtRp3991
(dp3992
g61
(dp3993
g69
I3
ssg70
g3987
sg63
(lp3994
S''
asbasbasbag56
(g72
g58
NtRp3995
(dp3996
g61
(dp3997
sg70
g3851
sg63
(lp3998
g56
(g77
g58
NtRp3999
(dp4000
g61
(dp4001
g81
g82
ssg70
g3995
sg63
(lp4002
g417
asbag56
(g77
g58
NtRp4003
(dp4004
g61
(dp4005
g88
g89
ssg70
g3995
sg63
(lp4006
S':'
asbag56
(g77
g58
NtRp4007
(dp4008
g61
(dp4009
sg70
g3995
sg63
(lp4010
g56
(g57
g58
NtRp4011
(dp4012
g61
(dp4013
g69
I3
ssg70
g4007
sg63
(lp4014
S''
asbasbasbasbasbasbasbasbasbasbasbag56
(g72
g58
NtRp4015
(dp4016
g61
(dp4017
sg70
g3781
sg63
(lp4018
g56
(g77
g58
NtRp4019
(dp4020
g61
(dp4021
g81
g82
ssg70
g4015
sg63
(lp4022
S'files'
p4023
asbag56
(g77
g58
NtRp4024
(dp4025
g61
(dp4026
g88
g89
ssg70
g4015
sg63
(lp4027
S':'
asbag56
(g77
g58
NtRp4028
(dp4029
g61
(dp4030
sg70
g4015
sg63
(lp4031
g56
(g57
g58
NtRp4032
(dp4033
g61
(dp4034
g69
I5
ssg70
g4028
sg63
(lp4035
g56
(g65
g58
NtRp4036
(dp4037
g61
(dp4038
g69
I4
ssg70
Nsg63
(lp4039
g56
(g72
g58
NtRp4040
(dp4041
g61
(dp4042
sg70
g4036
sg63
(lp4043
g56
(g77
g58
NtRp4044
(dp4045
g61
(dp4046
sg70
g4040
sg63
(lp4047
g56
(g57
g58
NtRp4048
(dp4049
g61
(dp4050
g69
I4
ssg70
g4044
sg63
(lp4051
S'/rdcdss/static/js/jquery.js'
p4052
asbasbasbag56
(g72
g58
NtRp4053
(dp4054
g61
(dp4055
sg70
g4036
sg63
(lp4056
g56
(g77
g58
NtRp4057
(dp4058
g61
(dp4059
sg70
g4053
sg63
(lp4060
g56
(g57
g58
NtRp4061
(dp4062
g61
(dp4063
g69
I4
ssg70
g4057
sg63
(lp4064
S'/rdcdss/static/css/calendar.css'
p4065
asbasbasbag56
(g72
g58
NtRp4066
(dp4067
g61
(dp4068
sg70
g4036
sg63
(lp4069
g56
(g77
g58
NtRp4070
(dp4071
g61
(dp4072
sg70
g4066
sg63
(lp4073
g56
(g57
g58
NtRp4074
(dp4075
g61
(dp4076
g69
I4
ssg70
g4070
sg63
(lp4077
S'/rdcdss/static/js/calendar.js'
p4078
asbasbasbag56
(g72
g58
NtRp4079
(dp4080
g61
(dp4081
sg70
g4036
sg63
(lp4082
g56
(g77
g58
NtRp4083
(dp4084
g61
(dp4085
sg70
g4079
sg63
(lp4086
g56
(g57
g58
NtRp4087
(dp4088
g61
(dp4089
g69
I4
ssg70
g4083
sg63
(lp4090
S'/rdcdss/static/css/base.css'
p4091
asbasbasbag56
(g72
g58
NtRp4092
(dp4093
g61
(dp4094
sg70
g4036
sg63
(lp4095
g56
(g77
g58
NtRp4096
(dp4097
g61
(dp4098
sg70
g4092
sg63
(lp4099
g56
(g57
g58
NtRp4100
(dp4101
g61
(dp4102
g69
I4
ssg70
g4096
sg63
(lp4103
S'/rdcdss/static/css/superfish.css'
p4104
asbasbasbag56
(g72
g58
NtRp4105
(dp4106
g61
(dp4107
sg70
g4036
sg63
(lp4108
g56
(g77
g58
NtRp4109
(dp4110
g61
(dp4111
sg70
g4105
sg63
(lp4112
g56
(g57
g58
NtRp4113
(dp4114
g61
(dp4115
g69
I4
ssg70
g4109
sg63
(lp4116
S'/rdcdss/static/js/superfish.js'
p4117
asbasbasbasbasbasbasbag56
(g72
g58
NtRp4118
(dp4119
g61
(dp4120
sg70
g3781
sg63
(lp4121
g56
(g77
g58
NtRp4122
(dp4123
g61
(dp4124
g81
g82
ssg70
g4118
sg63
(lp4125
S'flash'
p4126
asbag56
(g77
g58
NtRp4127
(dp4128
g61
(dp4129
g88
g89
ssg70
g4118
sg63
(lp4130
S':'
asbag56
(g77
g58
NtRp4131
(dp4132
g61
(dp4133
sg70
g4118
sg63
(lp4134
g56
(g57
g58
NtRp4135
(dp4136
g61
(dp4137
g69
I5
ssg70
g4131
sg63
(lp4138
S''
asbasbasbag56
(g72
g58
NtRp4139
(dp4140
g61
(dp4141
sg70
g3781
sg63
(lp4142
g56
(g77
g58
NtRp4143
(dp4144
g61
(dp4145
g81
g82
ssg70
g4139
sg63
(lp4146
S'headers'
p4147
asbag56
(g77
g58
NtRp4148
(dp4149
g61
(dp4150
g88
g89
ssg70
g4139
sg63
(lp4151
S':'
asbag56
(g77
g58
NtRp4152
(dp4153
g61
(dp4154
sg70
g4139
sg63
(lp4155
g56
(g57
g58
NtRp4156
(dp4157
g61
(dp4158
g69
I5
ssg70
g4152
sg63
(lp4159
g56
(g65
g58
NtRp4160
(dp4161
g61
(dp4162
g69
I4
ssg70
Nsg63
(lp4163
g56
(g72
g58
NtRp4164
(dp4165
g61
(dp4166
sg70
g4160
sg63
(lp4167
g56
(g77
g58
NtRp4168
(dp4169
g61
(dp4170
g81
g82
ssg70
g4164
sg63
(lp4171
S'Cache-Control'
p4172
asbag56
(g77
g58
NtRp4173
(dp4174
g61
(dp4175
g88
g89
ssg70
g4164
sg63
(lp4176
S':'
asbag56
(g77
g58
NtRp4177
(dp4178
g61
(dp4179
sg70
g4164
sg63
(lp4180
g56
(g57
g58
NtRp4181
(dp4182
g61
(dp4183
g69
I4
ssg70
g4177
sg63
(lp4184
S'no-store, no-cache, must-revalidate, post-check=0, pre-check=0'
p4185
asbasbasbag56
(g72
g58
NtRp4186
(dp4187
g61
(dp4188
sg70
g4160
sg63
(lp4189
g56
(g77
g58
NtRp4190
(dp4191
g61
(dp4192
g81
g82
ssg70
g4186
sg63
(lp4193
S'Content-Type'
p4194
asbag56
(g77
g58
NtRp4195
(dp4196
g61
(dp4197
g88
g89
ssg70
g4186
sg63
(lp4198
S':'
asbag56
(g77
g58
NtRp4199
(dp4200
g61
(dp4201
sg70
g4186
sg63
(lp4202
g56
(g57
g58
NtRp4203
(dp4204
g61
(dp4205
g69
I4
ssg70
g4199
sg63
(lp4206
S'application/pdf'
p4207
asbasbasbag56
(g72
g58
NtRp4208
(dp4209
g61
(dp4210
sg70
g4160
sg63
(lp4211
g56
(g77
g58
NtRp4212
(dp4213
g61
(dp4214
g81
g82
ssg70
g4208
sg63
(lp4215
S'Expires'
p4216
asbag56
(g77
g58
NtRp4217
(dp4218
g61
(dp4219
g88
g89
ssg70
g4208
sg63
(lp4220
S':'
asbag56
(g77
g58
NtRp4221
(dp4222
g61
(dp4223
sg70
g4208
sg63
(lp4224
g56
(g57
g58
NtRp4225
(dp4226
g61
(dp4227
g69
I4
ssg70
g4221
sg63
(lp4228
S'Thu, 30 Jun 2011 15:23:38 GMT'
p4229
asbasbasbag56
(g72
g58
NtRp4230
(dp4231
g61
(dp4232
sg70
g4160
sg63
(lp4233
g56
(g77
g58
NtRp4234
(dp4235
g61
(dp4236
g81
g82
ssg70
g4230
sg63
(lp4237
S'Pragma'
p4238
asbag56
(g77
g58
NtRp4239
(dp4240
g61
(dp4241
g88
g89
ssg70
g4230
sg63
(lp4242
S':'
asbag56
(g77
g58
NtRp4243
(dp4244
g61
(dp4245
sg70
g4230
sg63
(lp4246
g56
(g57
g58
NtRp4247
(dp4248
g61
(dp4249
g69
I4
ssg70
g4243
sg63
(lp4250
S'no-cache'
p4251
asbasbasbasbasbasbasbag56
(g72
g58
NtRp4252
(dp4253
g61
(dp4254
sg70
g3781
sg63
(lp4255
g56
(g77
g58
NtRp4256
(dp4257
g61
(dp4258
g81
g82
ssg70
g4252
sg63
(lp4259
S'menu'
p4260
asbag56
(g77
g58
NtRp4261
(dp4262
g61
(dp4263
g88
g89
ssg70
g4252
sg63
(lp4264
S':'
asbag56
(g77
g58
NtRp4265
(dp4266
g61
(dp4267
sg70
g4252
sg63
(lp4268
g56
(g57
g58
NtRp4269
(dp4270
g61
(dp4271
g69
I5
ssg70
g4265
sg63
(lp4272
g56
(g65
g58
NtRp4273
(dp4274
g61
(dp4275
g69
I4
ssg70
Nsg63
(lp4276
g56
(g72
g58
NtRp4277
(dp4278
g61
(dp4279
sg70
g4273
sg63
(lp4280
g56
(g77
g58
NtRp4281
(dp4282
g61
(dp4283
sg70
g4277
sg63
(lp4284
g56
(g57
g58
NtRp4285
(dp4286
g61
(dp4287
g69
I4
ssg70
g4281
sg63
(lp4288
g56
(g65
g58
NtRp4289
(dp4290
g61
(dp4291
g69
I3
ssg70
Nsg63
(lp4292
g56
(g72
g58
NtRp4293
(dp4294
g61
(dp4295
sg70
g4289
sg63
(lp4296
g56
(g77
g58
NtRp4297
(dp4298
g61
(dp4299
sg70
g4293
sg63
(lp4300
g56
(g57
g58
NtRp4301
(dp4302
g61
(dp4303
g69
I3
ssg70
g4297
sg63
(lp4304
cgluon.languages
lazyT_unpickle
p4305
(S's\x04\x00\x00\x00Home'
tRp4306
asbasbasbag56
(g72
g58
NtRp4307
(dp4308
g61
(dp4309
sg70
g4289
sg63
(lp4310
g56
(g77
g58
NtRp4311
(dp4312
g61
(dp4313
sg70
g4307
sg63
(lp4314
g56
(g57
g58
NtRp4315
(dp4316
g61
(dp4317
g69
I3
ssg70
g4311
sg63
(lp4318
g99
asbasbasbag56
(g72
g58
NtRp4319
(dp4320
g61
(dp4321
sg70
g4289
sg63
(lp4322
g56
(g77
g58
NtRp4323
(dp4324
g61
(dp4325
sg70
g4319
sg63
(lp4326
g56
(g57
g58
NtRp4327
(dp4328
g61
(dp4329
g69
I3
ssg70
g4323
sg63
(lp4330
S'/rdcdss/default/index'
p4331
asbasbasbag56
(g72
g58
NtRp4332
(dp4333
g61
(dp4334
sg70
g4289
sg63
(lp4335
g56
(g77
g58
NtRp4336
(dp4337
g61
(dp4338
sg70
g4332
sg63
(lp4339
g56
(g57
g58
NtRp4340
(dp4341
g61
(dp4342
g69
I3
ssg70
g4336
sg63
(lp4343
g56
(g65
g58
NtRp4344
(dp4345
g61
(dp4346
g69
I2
ssg70
Nsg63
(lp4347
sbasbasbasbasbasbasbasbag56
(g72
g58
NtRp4348
(dp4349
g61
(dp4350
sg70
g4273
sg63
(lp4351
g56
(g77
g58
NtRp4352
(dp4353
g61
(dp4354
sg70
g4348
sg63
(lp4355
g56
(g57
g58
NtRp4356
(dp4357
g61
(dp4358
g69
I4
ssg70
g4352
sg63
(lp4359
g56
(g65
g58
NtRp4360
(dp4361
g61
(dp4362
g69
I3
ssg70
Nsg63
(lp4363
g56
(g72
g58
NtRp4364
(dp4365
g61
(dp4366
sg70
g4360
sg63
(lp4367
g56
(g77
g58
NtRp4368
(dp4369
g61
(dp4370
sg70
g4364
sg63
(lp4371
g56
(g57
g58
NtRp4372
(dp4373
g61
(dp4374
g69
I3
ssg70
g4368
sg63
(lp4375
g4305
(S's\x08\x00\x00\x00This App'
tRp4376
asbasbasbag56
(g72
g58
NtRp4377
(dp4378
g61
(dp4379
sg70
g4360
sg63
(lp4380
g56
(g77
g58
NtRp4381
(dp4382
g61
(dp4383
sg70
g4377
sg63
(lp4384
g56
(g57
g58
NtRp4385
(dp4386
g61
(dp4387
g69
I3
ssg70
g4381
sg63
(lp4388
g99
asbasbasbag56
(g72
g58
NtRp4389
(dp4390
g61
(dp4391
sg70
g4360
sg63
(lp4392
g56
(g77
g58
NtRp4393
(dp4394
g61
(dp4395
sg70
g4389
sg63
(lp4396
g56
(g57
g58
NtRp4397
(dp4398
g61
(dp4399
g69
I3
ssg70
g4393
sg63
(lp4400
S'/admin/default/design/rdcdss'
p4401
asbasbasbag56
(g72
g58
NtRp4402
(dp4403
g61
(dp4404
sg70
g4360
sg63
(lp4405
g56
(g77
g58
NtRp4406
(dp4407
g61
(dp4408
sg70
g4402
sg63
(lp4409
g56
(g57
g58
NtRp4410
(dp4411
g61
(dp4412
g69
I3
ssg70
g4406
sg63
(lp4413
g56
(g65
g58
NtRp4414
(dp4415
g61
(dp4416
g69
I2
ssg70
Nsg63
(lp4417
g56
(g72
g58
NtRp4418
(dp4419
g61
(dp4420
sg70
g4414
sg63
(lp4421
g56
(g77
g58
NtRp4422
(dp4423
g61
(dp4424
sg70
g4418
sg63
(lp4425
g56
(g57
g58
NtRp4426
(dp4427
g61
(dp4428
g69
I2
ssg70
g4422
sg63
(lp4429
g56
(g65
g58
NtRp4430
(dp4431
g61
(dp4432
g69
I1
ssg70
Nsg63
(lp4433
g56
(g72
g58
NtRp4434
(dp4435
g61
(dp4436
sg70
g4430
sg63
(lp4437
g56
(g77
g58
NtRp4438
(dp4439
g61
(dp4440
sg70
g4434
sg63
(lp4441
g56
(g57
g58
NtRp4442
(dp4443
g61
(dp4444
g69
I1
ssg70
g4438
sg63
(lp4445
g4305
(S's\n\x00\x00\x00Controller'
tRp4446
asbasbasbag56
(g72
g58
NtRp4447
(dp4448
g61
(dp4449
sg70
g4430
sg63
(lp4450
g56
(g77
g58
NtRp4451
(dp4452
g61
(dp4453
sg70
g4447
sg63
(lp4454
g56
(g57
g58
NtRp4455
(dp4456
g61
(dp4457
g69
I1
ssg70
g4451
sg63
(lp4458
I00
asbasbasbag56
(g72
g58
NtRp4459
(dp4460
g61
(dp4461
sg70
g4430
sg63
(lp4462
g56
(g77
g58
NtRp4463
(dp4464
g61
(dp4465
sg70
g4459
sg63
(lp4466
g56
(g57
g58
NtRp4467
(dp4468
g61
(dp4469
g69
I1
ssg70
g4463
sg63
(lp4470
S'/admin/default/edit/rdcdss/controllers/default.py'
p4471
asbasbasbasbasbasbasbag56
(g72
g58
NtRp4472
(dp4473
g61
(dp4474
sg70
g4414
sg63
(lp4475
g56
(g77
g58
NtRp4476
(dp4477
g61
(dp4478
sg70
g4472
sg63
(lp4479
g56
(g57
g58
NtRp4480
(dp4481
g61
(dp4482
g69
I2
ssg70
g4476
sg63
(lp4483
g56
(g65
g58
NtRp4484
(dp4485
g61
(dp4486
g69
I1
ssg70
Nsg63
(lp4487
g56
(g72
g58
NtRp4488
(dp4489
g61
(dp4490
sg70
g4484
sg63
(lp4491
g56
(g77
g58
NtRp4492
(dp4493
g61
(dp4494
sg70
g4488
sg63
(lp4495
g56
(g57
g58
NtRp4496
(dp4497
g61
(dp4498
g69
I1
ssg70
g4492
sg63
(lp4499
g4305
(S's\x04\x00\x00\x00View'
tRp4500
asbasbasbag56
(g72
g58
NtRp4501
(dp4502
g61
(dp4503
sg70
g4484
sg63
(lp4504
g56
(g77
g58
NtRp4505
(dp4506
g61
(dp4507
sg70
g4501
sg63
(lp4508
g56
(g57
g58
NtRp4509
(dp4510
g61
(dp4511
g69
I1
ssg70
g4505
sg63
(lp4512
I00
asbasbasbag56
(g72
g58
NtRp4513
(dp4514
g61
(dp4515
sg70
g4484
sg63
(lp4516
g56
(g77
g58
NtRp4517
(dp4518
g61
(dp4519
sg70
g4513
sg63
(lp4520
g56
(g57
g58
NtRp4521
(dp4522
g61
(dp4523
g69
I1
ssg70
g4517
sg63
(lp4524
S'/admin/default/edit/rdcdss/views/default/index.pdf'
p4525
asbasbasbasbasbasbasbag56
(g72
g58
NtRp4526
(dp4527
g61
(dp4528
sg70
g4414
sg63
(lp4529
g56
(g77
g58
NtRp4530
(dp4531
g61
(dp4532
sg70
g4526
sg63
(lp4533
g56
(g57
g58
NtRp4534
(dp4535
g61
(dp4536
g69
I2
ssg70
g4530
sg63
(lp4537
g56
(g65
g58
NtRp4538
(dp4539
g61
(dp4540
g69
I1
ssg70
Nsg63
(lp4541
g56
(g72
g58
NtRp4542
(dp4543
g61
(dp4544
sg70
g4538
sg63
(lp4545
g56
(g77
g58
NtRp4546
(dp4547
g61
(dp4548
sg70
g4542
sg63
(lp4549
g56
(g57
g58
NtRp4550
(dp4551
g61
(dp4552
g69
I1
ssg70
g4546
sg63
(lp4553
g4305
(S's\x06\x00\x00\x00Layout'
tRp4554
asbasbasbag56
(g72
g58
NtRp4555
(dp4556
g61
(dp4557
sg70
g4538
sg63
(lp4558
g56
(g77
g58
NtRp4559
(dp4560
g61
(dp4561
sg70
g4555
sg63
(lp4562
g56
(g57
g58
NtRp4563
(dp4564
g61
(dp4565
g69
I1
ssg70
g4559
sg63
(lp4566
I00
asbasbasbag56
(g72
g58
NtRp4567
(dp4568
g61
(dp4569
sg70
g4538
sg63
(lp4570
g56
(g77
g58
NtRp4571
(dp4572
g61
(dp4573
sg70
g4567
sg63
(lp4574
g56
(g57
g58
NtRp4575
(dp4576
g61
(dp4577
g69
I1
ssg70
g4571
sg63
(lp4578
S'/admin/default/edit/rdcdss/views/layout.html'
p4579
asbasbasbasbasbasbasbag56
(g72
g58
NtRp4580
(dp4581
g61
(dp4582
sg70
g4414
sg63
(lp4583
g56
(g77
g58
NtRp4584
(dp4585
g61
(dp4586
sg70
g4580
sg63
(lp4587
g56
(g57
g58
NtRp4588
(dp4589
g61
(dp4590
g69
I2
ssg70
g4584
sg63
(lp4591
g56
(g65
g58
NtRp4592
(dp4593
g61
(dp4594
g69
I1
ssg70
Nsg63
(lp4595
g56
(g72
g58
NtRp4596
(dp4597
g61
(dp4598
sg70
g4592
sg63
(lp4599
g56
(g77
g58
NtRp4600
(dp4601
g61
(dp4602
sg70
g4596
sg63
(lp4603
g56
(g57
g58
NtRp4604
(dp4605
g61
(dp4606
g69
I1
ssg70
g4600
sg63
(lp4607
g4305
(S's\n\x00\x00\x00Stylesheet'
tRp4608
asbasbasbag56
(g72
g58
NtRp4609
(dp4610
g61
(dp4611
sg70
g4592
sg63
(lp4612
g56
(g77
g58
NtRp4613
(dp4614
g61
(dp4615
sg70
g4609
sg63
(lp4616
g56
(g57
g58
NtRp4617
(dp4618
g61
(dp4619
g69
I1
ssg70
g4613
sg63
(lp4620
I00
asbasbasbag56
(g72
g58
NtRp4621
(dp4622
g61
(dp4623
sg70
g4592
sg63
(lp4624
g56
(g77
g58
NtRp4625
(dp4626
g61
(dp4627
sg70
g4621
sg63
(lp4628
g56
(g57
g58
NtRp4629
(dp4630
g61
(dp4631
g69
I1
ssg70
g4625
sg63
(lp4632
S'/admin/default/edit/rdcdss/static/base.css'
p4633
asbasbasbasbasbasbasbag56
(g72
g58
NtRp4634
(dp4635
g61
(dp4636
sg70
g4414
sg63
(lp4637
g56
(g77
g58
NtRp4638
(dp4639
g61
(dp4640
sg70
g4634
sg63
(lp4641
g56
(g57
g58
NtRp4642
(dp4643
g61
(dp4644
g69
I2
ssg70
g4638
sg63
(lp4645
g56
(g65
g58
NtRp4646
(dp4647
g61
(dp4648
g69
I1
ssg70
Nsg63
(lp4649
g56
(g72
g58
NtRp4650
(dp4651
g61
(dp4652
sg70
g4646
sg63
(lp4653
g56
(g77
g58
NtRp4654
(dp4655
g61
(dp4656
sg70
g4650
sg63
(lp4657
g56
(g57
g58
NtRp4658
(dp4659
g61
(dp4660
g69
I1
ssg70
g4654
sg63
(lp4661
g4305
(S's\x08\x00\x00\x00DB Model'
tRp4662
asbasbasbag56
(g72
g58
NtRp4663
(dp4664
g61
(dp4665
sg70
g4646
sg63
(lp4666
g56
(g77
g58
NtRp4667
(dp4668
g61
(dp4669
sg70
g4663
sg63
(lp4670
g56
(g57
g58
NtRp4671
(dp4672
g61
(dp4673
g69
I1
ssg70
g4667
sg63
(lp4674
I00
asbasbasbag56
(g72
g58
NtRp4675
(dp4676
g61
(dp4677
sg70
g4646
sg63
(lp4678
g56
(g77
g58
NtRp4679
(dp4680
g61
(dp4681
sg70
g4675
sg63
(lp4682
g56
(g57
g58
NtRp4683
(dp4684
g61
(dp4685
g69
I1
ssg70
g4679
sg63
(lp4686
S'/admin/default/edit/rdcdss/models/db.py'
p4687
asbasbasbasbasbasbasbag56
(g72
g58
NtRp4688
(dp4689
g61
(dp4690
sg70
g4414
sg63
(lp4691
g56
(g77
g58
NtRp4692
(dp4693
g61
(dp4694
sg70
g4688
sg63
(lp4695
g56
(g57
g58
NtRp4696
(dp4697
g61
(dp4698
g69
I2
ssg70
g4692
sg63
(lp4699
g56
(g65
g58
NtRp4700
(dp4701
g61
(dp4702
g69
I1
ssg70
Nsg63
(lp4703
g56
(g72
g58
NtRp4704
(dp4705
g61
(dp4706
sg70
g4700
sg63
(lp4707
g56
(g77
g58
NtRp4708
(dp4709
g61
(dp4710
sg70
g4704
sg63
(lp4711
g56
(g57
g58
NtRp4712
(dp4713
g61
(dp4714
g69
I1
ssg70
g4708
sg63
(lp4715
g4305
(S's\n\x00\x00\x00Menu Model'
tRp4716
asbasbasbag56
(g72
g58
NtRp4717
(dp4718
g61
(dp4719
sg70
g4700
sg63
(lp4720
g56
(g77
g58
NtRp4721
(dp4722
g61
(dp4723
sg70
g4717
sg63
(lp4724
g56
(g57
g58
NtRp4725
(dp4726
g61
(dp4727
g69
I1
ssg70
g4721
sg63
(lp4728
I00
asbasbasbag56
(g72
g58
NtRp4729
(dp4730
g61
(dp4731
sg70
g4700
sg63
(lp4732
g56
(g77
g58
NtRp4733
(dp4734
g61
(dp4735
sg70
g4729
sg63
(lp4736
g56
(g57
g58
NtRp4737
(dp4738
g61
(dp4739
g69
I1
ssg70
g4733
sg63
(lp4740
S'/admin/default/edit/rdcdss/models/menu.py'
p4741
asbasbasbasbasbasbasbag56
(g72
g58
NtRp4742
(dp4743
g61
(dp4744
sg70
g4414
sg63
(lp4745
g56
(g77
g58
NtRp4746
(dp4747
g61
(dp4748
sg70
g4742
sg63
(lp4749
g56
(g57
g58
NtRp4750
(dp4751
g61
(dp4752
g69
I2
ssg70
g4746
sg63
(lp4753
g56
(g65
g58
NtRp4754
(dp4755
g61
(dp4756
g69
I1
ssg70
Nsg63
(lp4757
g56
(g72
g58
NtRp4758
(dp4759
g61
(dp4760
sg70
g4754
sg63
(lp4761
g56
(g77
g58
NtRp4762
(dp4763
g61
(dp4764
sg70
g4758
sg63
(lp4765
g56
(g57
g58
NtRp4766
(dp4767
g61
(dp4768
g69
I1
ssg70
g4762
sg63
(lp4769
g4305
(S's\x08\x00\x00\x00Database'
tRp4770
asbasbasbag56
(g72
g58
NtRp4771
(dp4772
g61
(dp4773
sg70
g4754
sg63
(lp4774
g56
(g77
g58
NtRp4775
(dp4776
g61
(dp4777
sg70
g4771
sg63
(lp4778
g56
(g57
g58
NtRp4779
(dp4780
g61
(dp4781
g69
I1
ssg70
g4775
sg63
(lp4782
I00
asbasbasbag56
(g72
g58
NtRp4783
(dp4784
g61
(dp4785
sg70
g4754
sg63
(lp4786
g56
(g77
g58
NtRp4787
(dp4788
g61
(dp4789
sg70
g4783
sg63
(lp4790
g56
(g57
g58
NtRp4791
(dp4792
g61
(dp4793
g69
I1
ssg70
g4787
sg63
(lp4794
S'/rdcdss/appadmin/index'
p4795
asbasbasbasbasbasbasbag56
(g72
g58
NtRp4796
(dp4797
g61
(dp4798
sg70
g4414
sg63
(lp4799
g56
(g77
g58
NtRp4800
(dp4801
g61
(dp4802
sg70
g4796
sg63
(lp4803
g56
(g57
g58
NtRp4804
(dp4805
g61
(dp4806
g69
I2
ssg70
g4800
sg63
(lp4807
g56
(g65
g58
NtRp4808
(dp4809
g61
(dp4810
g69
I1
ssg70
Nsg63
(lp4811
g56
(g72
g58
NtRp4812
(dp4813
g61
(dp4814
sg70
g4808
sg63
(lp4815
g56
(g77
g58
NtRp4816
(dp4817
g61
(dp4818
sg70
g4812
sg63
(lp4819
g56
(g57
g58
NtRp4820
(dp4821
g61
(dp4822
g69
I1
ssg70
g4816
sg63
(lp4823
g4305
(S's\x06\x00\x00\x00Errors'
tRp4824
asbasbasbag56
(g72
g58
NtRp4825
(dp4826
g61
(dp4827
sg70
g4808
sg63
(lp4828
g56
(g77
g58
NtRp4829
(dp4830
g61
(dp4831
sg70
g4825
sg63
(lp4832
g56
(g57
g58
NtRp4833
(dp4834
g61
(dp4835
g69
I1
ssg70
g4829
sg63
(lp4836
I00
asbasbasbag56
(g72
g58
NtRp4837
(dp4838
g61
(dp4839
sg70
g4808
sg63
(lp4840
g56
(g77
g58
NtRp4841
(dp4842
g61
(dp4843
sg70
g4837
sg63
(lp4844
g56
(g57
g58
NtRp4845
(dp4846
g61
(dp4847
g69
I1
ssg70
g4841
sg63
(lp4848
S'/admin/default/errors/rdcdss'
p4849
asbasbasbasbasbasbasbag56
(g72
g58
NtRp4850
(dp4851
g61
(dp4852
sg70
g4414
sg63
(lp4853
g56
(g77
g58
NtRp4854
(dp4855
g61
(dp4856
sg70
g4850
sg63
(lp4857
g56
(g57
g58
NtRp4858
(dp4859
g61
(dp4860
g69
I2
ssg70
g4854
sg63
(lp4861
g56
(g65
g58
NtRp4862
(dp4863
g61
(dp4864
g69
I1
ssg70
Nsg63
(lp4865
g56
(g72
g58
NtRp4866
(dp4867
g61
(dp4868
sg70
g4862
sg63
(lp4869
g56
(g77
g58
NtRp4870
(dp4871
g61
(dp4872
sg70
g4866
sg63
(lp4873
g56
(g57
g58
NtRp4874
(dp4875
g61
(dp4876
g69
I1
ssg70
g4870
sg63
(lp4877
g4305
(S's\x05\x00\x00\x00About'
tRp4878
asbasbasbag56
(g72
g58
NtRp4879
(dp4880
g61
(dp4881
sg70
g4862
sg63
(lp4882
g56
(g77
g58
NtRp4883
(dp4884
g61
(dp4885
sg70
g4879
sg63
(lp4886
g56
(g57
g58
NtRp4887
(dp4888
g61
(dp4889
g69
I1
ssg70
g4883
sg63
(lp4890
I00
asbasbasbag56
(g72
g58
NtRp4891
(dp4892
g61
(dp4893
sg70
g4862
sg63
(lp4894
g56
(g77
g58
NtRp4895
(dp4896
g61
(dp4897
sg70
g4891
sg63
(lp4898
g56
(g57
g58
NtRp4899
(dp4900
g61
(dp4901
g69
I1
ssg70
g4895
sg63
(lp4902
S'/admin/default/about/rdcdss'
p4903
asbasbasbasbasbasbasbasbasbasbasbasbasbasbasbag56
(g72
g58
NtRp4904
(dp4905
g61
(dp4906
sg70
g4273
sg63
(lp4907
g56
(g77
g58
NtRp4908
(dp4909
g61
(dp4910
sg70
g4904
sg63
(lp4911
g56
(g57
g58
NtRp4912
(dp4913
g61
(dp4914
g69
I4
ssg70
g4908
sg63
(lp4915
g56
(g65
g58
NtRp4916
(dp4917
g61
(dp4918
g69
I3
ssg70
Nsg63
(lp4919
g56
(g72
g58
NtRp4920
(dp4921
g61
(dp4922
sg70
g4916
sg63
(lp4923
g56
(g77
g58
NtRp4924
(dp4925
g61
(dp4926
sg70
g4920
sg63
(lp4927
g56
(g57
g58
NtRp4928
(dp4929
g61
(dp4930
g69
I3
ssg70
g4924
sg63
(lp4931
g4305
(S's\t\x00\x00\x00Resources'
tRp4932
asbasbasbag56
(g72
g58
NtRp4933
(dp4934
g61
(dp4935
sg70
g4916
sg63
(lp4936
g56
(g77
g58
NtRp4937
(dp4938
g61
(dp4939
sg70
g4933
sg63
(lp4940
g56
(g57
g58
NtRp4941
(dp4942
g61
(dp4943
g69
I3
ssg70
g4937
sg63
(lp4944
g99
asbasbasbag56
(g72
g58
NtRp4945
(dp4946
g61
(dp4947
sg70
g4916
sg63
(lp4948
g56
(g77
g58
NtRp4949
(dp4950
g61
(dp4951
sg70
g4945
sg63
(lp4952
g56
(g57
g58
NtRp4953
(dp4954
g61
(dp4955
g69
I3
ssg70
g4949
sg63
(lp4956
S'None'
p4957
asbasbasbag56
(g72
g58
NtRp4958
(dp4959
g61
(dp4960
sg70
g4916
sg63
(lp4961
g56
(g77
g58
NtRp4962
(dp4963
g61
(dp4964
sg70
g4958
sg63
(lp4965
g56
(g57
g58
NtRp4966
(dp4967
g61
(dp4968
g69
I3
ssg70
g4962
sg63
(lp4969
g56
(g65
g58
NtRp4970
(dp4971
g61
(dp4972
g69
I2
ssg70
Nsg63
(lp4973
g56
(g72
g58
NtRp4974
(dp4975
g61
(dp4976
sg70
g4970
sg63
(lp4977
g56
(g77
g58
NtRp4978
(dp4979
g61
(dp4980
sg70
g4974
sg63
(lp4981
g56
(g57
g58
NtRp4982
(dp4983
g61
(dp4984
g69
I2
ssg70
g4978
sg63
(lp4985
g56
(g65
g58
NtRp4986
(dp4987
g61
(dp4988
g69
I1
ssg70
Nsg63
(lp4989
g56
(g72
g58
NtRp4990
(dp4991
g61
(dp4992
sg70
g4986
sg63
(lp4993
g56
(g77
g58
NtRp4994
(dp4995
g61
(dp4996
sg70
g4990
sg63
(lp4997
g56
(g57
g58
NtRp4998
(dp4999
g61
(dp5000
g69
I1
ssg70
g4994
sg63
(lp5001
g4305
(S's\r\x00\x00\x00Documentation'
tRp5002
asbasbasbag56
(g72
g58
NtRp5003
(dp5004
g61
(dp5005
sg70
g4986
sg63
(lp5006
g56
(g77
g58
NtRp5007
(dp5008
g61
(dp5009
sg70
g5003
sg63
(lp5010
g56
(g57
g58
NtRp5011
(dp5012
g61
(dp5013
g69
I1
ssg70
g5007
sg63
(lp5014
I00
asbasbasbag56
(g72
g58
NtRp5015
(dp5016
g61
(dp5017
sg70
g4986
sg63
(lp5018
g56
(g77
g58
NtRp5019
(dp5020
g61
(dp5021
sg70
g5015
sg63
(lp5022
g56
(g57
g58
NtRp5023
(dp5024
g61
(dp5025
g69
I1
ssg70
g5019
sg63
(lp5026
S'http://www.web2py.com/book'
p5027
asbasbasbag56
(g72
g58
NtRp5028
(dp5029
g61
(dp5030
sg70
g4986
sg63
(lp5031
g56
(g77
g58
NtRp5032
(dp5033
g61
(dp5034
sg70
g5028
sg63
(lp5035
g56
(g57
g58
NtRp5036
(dp5037
g61
(dp5038
g69
I1
ssg70
g5032
sg63
(lp5039
(lp5040
(g4305
(S's\x07\x00\x00\x00Preface'
tRp5041
I00
S'http://www.web2py.com/book/default/chapter/00'
tp5042
a(g4305
(S's\x0c\x00\x00\x00Introduction'
tRp5043
I00
S'http://www.web2py.com/book/default/chapter/01'
tp5044
a(g4305
(S's\x06\x00\x00\x00Python'
tRp5045
I00
S'http://www.web2py.com/book/default/chapter/02'
tp5046
a(g4305
(S's\x08\x00\x00\x00Overview'
tRp5047
I00
S'http://www.web2py.com/book/default/chapter/03'
tp5048
a(g4305
(S's\x08\x00\x00\x00The Core'
tRp5049
I00
S'http://www.web2py.com/book/default/chapter/04'
tp5050
a(g4305
(S's\t\x00\x00\x00The Views'
tRp5051
I00
S'http://www.web2py.com/book/default/chapter/05'
tp5052
a(g4305
(S's\x08\x00\x00\x00Database'
tRp5053
I00
S'http://www.web2py.com/book/default/chapter/06'
tp5054
a(g4305
(S's\x14\x00\x00\x00Forms and Validators'
tRp5055
I00
S'http://www.web2py.com/book/default/chapter/07'
tp5056
a(g4305
(S's\x0e\x00\x00\x00Access Control'
tRp5057
I00
S'http://www.web2py.com/book/default/chapter/08'
tp5058
a(g4305
(S's\x08\x00\x00\x00Services'
tRp5059
I00
S'http://www.web2py.com/book/default/chapter/09'
tp5060
a(g4305
(S's\x0c\x00\x00\x00Ajax Recipes'
tRp5061
I00
S'http://www.web2py.com/book/default/chapter/10'
tp5062
a(g4305
(S's\x12\x00\x00\x00Deployment Recipes'
tRp5063
I00
S'http://www.web2py.com/book/default/chapter/11'
tp5064
a(g4305
(S's\r\x00\x00\x00Other Recipes'
tRp5065
I00
S'http://www.web2py.com/book/default/chapter/12'
tp5066
a(g4305
(S's\r\x00\x00\x00Buy this book'
tRp5067
I00
S'http://stores.lulu.com/web2py'
tp5068
aasbasbasbasbasbasbasbag56
(g72
g58
NtRp5069
(dp5070
g61
(dp5071
sg70
g4970
sg63
(lp5072
g56
(g77
g58
NtRp5073
(dp5074
g61
(dp5075
sg70
g5069
sg63
(lp5076
g56
(g57
g58
NtRp5077
(dp5078
g61
(dp5079
g69
I2
ssg70
g5073
sg63
(lp5080
g56
(g65
g58
NtRp5081
(dp5082
g61
(dp5083
g69
I1
ssg70
Nsg63
(lp5084
g56
(g72
g58
NtRp5085
(dp5086
g61
(dp5087
sg70
g5081
sg63
(lp5088
g56
(g77
g58
NtRp5089
(dp5090
g61
(dp5091
sg70
g5085
sg63
(lp5092
g56
(g57
g58
NtRp5093
(dp5094
g61
(dp5095
g69
I1
ssg70
g5089
sg63
(lp5096
g4305
(S's\t\x00\x00\x00Community'
tRp5097
asbasbasbag56
(g72
g58
NtRp5098
(dp5099
g61
(dp5100
sg70
g5081
sg63
(lp5101
g56
(g77
g58
NtRp5102
(dp5103
g61
(dp5104
sg70
g5098
sg63
(lp5105
g56
(g57
g58
NtRp5106
(dp5107
g61
(dp5108
g69
I1
ssg70
g5102
sg63
(lp5109
I00
asbasbasbag56
(g72
g58
NtRp5110
(dp5111
g61
(dp5112
sg70
g5081
sg63
(lp5113
g56
(g77
g58
NtRp5114
(dp5115
g61
(dp5116
sg70
g5110
sg63
(lp5117
g56
(g57
g58
NtRp5118
(dp5119
g61
(dp5120
g69
I1
ssg70
g5114
sg63
(lp5121
Nasbasbasbag56
(g72
g58
NtRp5122
(dp5123
g61
(dp5124
sg70
g5081
sg63
(lp5125
g56
(g77
g58
NtRp5126
(dp5127
g61
(dp5128
sg70
g5122
sg63
(lp5129
g56
(g57
g58
NtRp5130
(dp5131
g61
(dp5132
g69
I1
ssg70
g5126
sg63
(lp5133
(lp5134
(g4305
(S's\x06\x00\x00\x00Groups'
tRp5135
I00
S'http://www.web2py.com/examples/default/usergroups'
tp5136
a(g4305
(S's\x07\x00\x00\x00Twitter'
tRp5137
I00
S'http://twitter.com/web2py'
tp5138
a(g4305
(S's\t\x00\x00\x00Live chat'
tRp5139
I00
S'http://mibbit.com/?channel=%23web2py&server=irc.mibbit.net'
tp5140
a(g4305
(S's\n\x00\x00\x00User Voice'
tRp5141
I00
S'http://web2py.uservoice.com/'
tp5142
aasbasbasbasbasbasbasbag56
(g72
g58
NtRp5143
(dp5144
g61
(dp5145
sg70
g4970
sg63
(lp5146
g56
(g77
g58
NtRp5147
(dp5148
g61
(dp5149
sg70
g5143
sg63
(lp5150
g56
(g57
g58
NtRp5151
(dp5152
g61
(dp5153
g69
I2
ssg70
g5147
sg63
(lp5154
g56
(g65
g58
NtRp5155
(dp5156
g61
(dp5157
g69
I1
ssg70
Nsg63
(lp5158
g56
(g72
g58
NtRp5159
(dp5160
g61
(dp5161
sg70
g5155
sg63
(lp5162
g56
(g77
g58
NtRp5163
(dp5164
g61
(dp5165
sg70
g5159
sg63
(lp5166
g56
(g57
g58
NtRp5167
(dp5168
g61
(dp5169
g69
I1
ssg70
g5163
sg63
(lp5170
g4305
(S's\x06\x00\x00\x00Web2py'
tRp5171
asbasbasbag56
(g72
g58
NtRp5172
(dp5173
g61
(dp5174
sg70
g5155
sg63
(lp5175
g56
(g77
g58
NtRp5176
(dp5177
g61
(dp5178
sg70
g5172
sg63
(lp5179
g56
(g57
g58
NtRp5180
(dp5181
g61
(dp5182
g69
I1
ssg70
g5176
sg63
(lp5183
I00
asbasbasbag56
(g72
g58
NtRp5184
(dp5185
g61
(dp5186
sg70
g5155
sg63
(lp5187
g56
(g77
g58
NtRp5188
(dp5189
g61
(dp5190
sg70
g5184
sg63
(lp5191
g56
(g57
g58
NtRp5192
(dp5193
g61
(dp5194
g69
I1
ssg70
g5188
sg63
(lp5195
S'http://www.web2py.com'
p5196
asbasbasbag56
(g72
g58
NtRp5197
(dp5198
g61
(dp5199
sg70
g5155
sg63
(lp5200
g56
(g77
g58
NtRp5201
(dp5202
g61
(dp5203
sg70
g5197
sg63
(lp5204
g56
(g57
g58
NtRp5205
(dp5206
g61
(dp5207
g69
I1
ssg70
g5201
sg63
(lp5208
(lp5209
(g4305
(S's\x08\x00\x00\x00Download'
tRp5210
I00
S'http://www.web2py.com/examples/default/download'
tp5211
a(g4305
(S's\x07\x00\x00\x00Support'
tRp5212
I00
S'http://www.web2py.com/examples/default/support'
tp5213
a(g4305
(S's\x0e\x00\x00\x00Quick Examples'
tRp5214
I00
S'http://web2py.com/examples/default/examples'
tp5215
a(g4305
(S's\x03\x00\x00\x00FAQ'
tRp5216
I00
S'http://web2py.com/AlterEgo'
tp5217
a(g4305
(S's\x11\x00\x00\x00Free Applications'
tRp5218
I00
S'http://web2py.com/appliances'
tp5219
a(g4305
(S's\x07\x00\x00\x00Plugins'
tRp5220
I00
S'http://web2py.com/plugins'
tp5221
a(g4305
(S's\x07\x00\x00\x00Recipes'
tRp5222
I00
S'http://web2pyslices.com/'
tp5223
a(g4305
(S's\x04\x00\x00\x00Demo'
tRp5224
I00
S'http://web2py.com/demo_admin'
tp5225
a(g4305
(S's\x08\x00\x00\x00Semantic'
tRp5226
I00
S'http://web2py.com/semantic'
tp5227
a(g4305
(S's\x07\x00\x00\x00Layouts'
tRp5228
I00
S'http://web2py.com/layouts'
tp5229
a(g4305
(S's\x06\x00\x00\x00Videos'
tRp5230
I00
S'http://www.web2py.com/examples/default/videos/'
tp5231
aasbasbasbasbasbasbasbasbasbasbasbasbasbasbasbasbasbasbasbag56
(g72
g58
NtRp5232
(dp5233
g61
(dp5234
sg70
g3781
sg63
(lp5235
g56
(g77
g58
NtRp5236
(dp5237
g61
(dp5238
g81
g82
ssg70
g5232
sg63
(lp5239
S'meta'
p5240
asbag56
(g77
g58
NtRp5241
(dp5242
g61
(dp5243
g88
g89
ssg70
g5232
sg63
(lp5244
S':'
asbag56
(g77
g58
NtRp5245
(dp5246
g61
(dp5247
sg70
g5232
sg63
(lp5248
g56
(g57
g58
NtRp5249
(dp5250
g61
(dp5251
g69
I5
ssg70
g5245
sg63
(lp5252
g56
(g65
g58
NtRp5253
(dp5254
g61
(dp5255
g69
I4
ssg70
Nsg63
(lp5256
g56
(g72
g58
NtRp5257
(dp5258
g61
(dp5259
sg70
g5253
sg63
(lp5260
g56
(g77
g58
NtRp5261
(dp5262
g61
(dp5263
g81
g82
ssg70
g5257
sg63
(lp5264
S'author'
p5265
asbag56
(g77
g58
NtRp5266
(dp5267
g61
(dp5268
g88
g89
ssg70
g5257
sg63
(lp5269
S':'
asbag56
(g77
g58
NtRp5270
(dp5271
g61
(dp5272
sg70
g5257
sg63
(lp5273
g56
(g57
g58
NtRp5274
(dp5275
g61
(dp5276
g69
I4
ssg70
g5270
sg63
(lp5277
S'you'
p5278
asbasbasbag56
(g72
g58
NtRp5279
(dp5280
g61
(dp5281
sg70
g5253
sg63
(lp5282
g56
(g77
g58
NtRp5283
(dp5284
g61
(dp5285
g81
g82
ssg70
g5279
sg63
(lp5286
S'copyright'
p5287
asbag56
(g77
g58
NtRp5288
(dp5289
g61
(dp5290
g88
g89
ssg70
g5279
sg63
(lp5291
S':'
asbag56
(g77
g58
NtRp5292
(dp5293
g61
(dp5294
sg70
g5279
sg63
(lp5295
g56
(g57
g58
NtRp5296
(dp5297
g61
(dp5298
g69
I4
ssg70
g5292
sg63
(lp5299
S'Copyright 2007-2010'
p5300
asbasbasbag56
(g72
g58
NtRp5301
(dp5302
g61
(dp5303
sg70
g5253
sg63
(lp5304
g56
(g77
g58
NtRp5305
(dp5306
g61
(dp5307
g81
g82
ssg70
g5301
sg63
(lp5308
S'description'
p5309
asbag56
(g77
g58
NtRp5310
(dp5311
g61
(dp5312
g88
g89
ssg70
g5301
sg63
(lp5313
S':'
asbag56
(g77
g58
NtRp5314
(dp5315
g61
(dp5316
sg70
g5301
sg63
(lp5317
g56
(g57
g58
NtRp5318
(dp5319
g61
(dp5320
g69
I4
ssg70
g5314
sg63
(lp5321
S'Free and open source full-stack enterprise framework for agile development of fast, scalable, secure and portable database-driven web-based applications. Written and programmable in Python'
p5322
asbasbasbag56
(g72
g58
NtRp5323
(dp5324
g61
(dp5325
sg70
g5253
sg63
(lp5326
g56
(g77
g58
NtRp5327
(dp5328
g61
(dp5329
g81
g82
ssg70
g5323
sg63
(lp5330
S'generator'
p5331
asbag56
(g77
g58
NtRp5332
(dp5333
g61
(dp5334
g88
g89
ssg70
g5323
sg63
(lp5335
S':'
asbag56
(g77
g58
NtRp5336
(dp5337
g61
(dp5338
sg70
g5323
sg63
(lp5339
g56
(g57
g58
NtRp5340
(dp5341
g61
(dp5342
g69
I4
ssg70
g5336
sg63
(lp5343
S'Web2py Enterprise Framework'
p5344
asbasbasbag56
(g72
g58
NtRp5345
(dp5346
g61
(dp5347
sg70
g5253
sg63
(lp5348
g56
(g77
g58
NtRp5349
(dp5350
g61
(dp5351
g81
g82
ssg70
g5345
sg63
(lp5352
S'keywords'
p5353
asbag56
(g77
g58
NtRp5354
(dp5355
g61
(dp5356
g88
g89
ssg70
g5345
sg63
(lp5357
S':'
asbag56
(g77
g58
NtRp5358
(dp5359
g61
(dp5360
sg70
g5345
sg63
(lp5361
g56
(g57
g58
NtRp5362
(dp5363
g61
(dp5364
g69
I4
ssg70
g5358
sg63
(lp5365
S'web2py, python, framework'
p5366
asbasbasbasbasbasbasbag56
(g72
g58
NtRp5367
(dp5368
g61
(dp5369
sg70
g3781
sg63
(lp5370
g56
(g77
g58
NtRp5371
(dp5372
g61
(dp5373
g81
g82
ssg70
g5367
sg63
(lp5374
S'postprocessing'
p5375
asbag56
(g77
g58
NtRp5376
(dp5377
g61
(dp5378
g88
g89
ssg70
g5367
sg63
(lp5379
S':'
asbag56
(g77
g58
NtRp5380
(dp5381
g61
(dp5382
sg70
g5367
sg63
(lp5383
g56
(g57
g58
NtRp5384
(dp5385
g61
(dp5386
g69
I5
ssg70
g5380
sg63
(lp5387
g56
(g65
g58
NtRp5388
(dp5389
g61
(dp5390
g69
I4
ssg70
Nsg63
(lp5391
sbasbasbasbag56
(g72
g58
NtRp5392
(dp5393
g61
(dp5394
sg70
g3781
sg63
(lp5395
g56
(g77
g58
NtRp5396
(dp5397
g61
(dp5398
g81
g82
ssg70
g5392
sg63
(lp5399
S'session_file'
p5400
asbag56
(g77
g58
NtRp5401
(dp5402
g61
(dp5403
g88
g89
ssg70
g5392
sg63
(lp5404
S':'
asbag56
(g77
g58
NtRp5405
(dp5406
g61
(dp5407
sg70
g5392
sg63
(lp5408
g56
(g57
g58
NtRp5409
(dp5410
g61
(dp5411
g69
I5
ssg70
g5405
sg63
(lp5412
S"<open file '/home/www-data/web2py/applications/rdcdss/sessions/89.123.2.193-4e1de357-5b7c-4409-92bc-12a58f0742b6', mode 'rb+' at 0x2b9be06a1e40>"
p5413
asbasbasbag56
(g72
g58
NtRp5414
(dp5415
g61
(dp5416
sg70
g3781
sg63
(lp5417
g56
(g77
g58
NtRp5418
(dp5419
g61
(dp5420
g81
g82
ssg70
g5414
sg63
(lp5421
S'session_filename'
p5422
asbag56
(g77
g58
NtRp5423
(dp5424
g61
(dp5425
g88
g89
ssg70
g5414
sg63
(lp5426
S':'
asbag56
(g77
g58
NtRp5427
(dp5428
g61
(dp5429
sg70
g5414
sg63
(lp5430
g56
(g57
g58
NtRp5431
(dp5432
g61
(dp5433
g69
I5
ssg70
g5427
sg63
(lp5434
S'/home/www-data/web2py/applications/rdcdss/sessions/89.123.2.193-4e1de357-5b7c-4409-92bc-12a58f0742b6'
p5435
asbasbasbag56
(g72
g58
NtRp5436
(dp5437
g61
(dp5438
sg70
g3781
sg63
(lp5439
g56
(g77
g58
NtRp5440
(dp5441
g61
(dp5442
g81
g82
ssg70
g5436
sg63
(lp5443
S'session_id'
p5444
asbag56
(g77
g58
NtRp5445
(dp5446
g61
(dp5447
g88
g89
ssg70
g5436
sg63
(lp5448
S':'
asbag56
(g77
g58
NtRp5449
(dp5450
g61
(dp5451
sg70
g5436
sg63
(lp5452
g56
(g57
g58
NtRp5453
(dp5454
g61
(dp5455
g69
I5
ssg70
g5449
sg63
(lp5456
S'89.123.2.193-4e1de357-5b7c-4409-92bc-12a58f0742b6'
p5457
asbasbasbag56
(g72
g58
NtRp5458
(dp5459
g61
(dp5460
sg70
g3781
sg63
(lp5461
g56
(g77
g58
NtRp5462
(dp5463
g61
(dp5464
g81
g82
ssg70
g5458
sg63
(lp5465
S'session_id_name'
p5466
asbag56
(g77
g58
NtRp5467
(dp5468
g61
(dp5469
g88
g89
ssg70
g5458
sg63
(lp5470
S':'
asbag56
(g77
g58
NtRp5471
(dp5472
g61
(dp5473
sg70
g5458
sg63
(lp5474
g56
(g57
g58
NtRp5475
(dp5476
g61
(dp5477
g69
I5
ssg70
g5471
sg63
(lp5478
g3838
asbasbasbag56
(g72
g58
NtRp5479
(dp5480
g61
(dp5481
sg70
g3781
sg63
(lp5482
g56
(g77
g58
NtRp5483
(dp5484
g61
(dp5485
g81
g82
ssg70
g5479
sg63
(lp5486
S'session_locked'
p5487
asbag56
(g77
g58
NtRp5488
(dp5489
g61
(dp5490
g88
g89
ssg70
g5479
sg63
(lp5491
S':'
asbag56
(g77
g58
NtRp5492
(dp5493
g61
(dp5494
sg70
g5479
sg63
(lp5495
g56
(g57
g58
NtRp5496
(dp5497
g61
(dp5498
g69
I5
ssg70
g5492
sg63
(lp5499
g2124
asbasbasbag56
(g72
g58
NtRp5500
(dp5501
g61
(dp5502
sg70
g3781
sg63
(lp5503
g56
(g77
g58
NtRp5504
(dp5505
g61
(dp5506
g81
g82
ssg70
g5500
sg63
(lp5507
S'session_new'
p5508
asbag56
(g77
g58
NtRp5509
(dp5510
g61
(dp5511
g88
g89
ssg70
g5500
sg63
(lp5512
S':'
asbag56
(g77
g58
NtRp5513
(dp5514
g61
(dp5515
sg70
g5500
sg63
(lp5516
g56
(g57
g58
NtRp5517
(dp5518
g61
(dp5519
g69
I5
ssg70
g5513
sg63
(lp5520
g99
asbasbasbag56
(g72
g58
NtRp5521
(dp5522
g61
(dp5523
sg70
g3781
sg63
(lp5524
g56
(g77
g58
NtRp5525
(dp5526
g61
(dp5527
g81
g82
ssg70
g5521
sg63
(lp5528
S'status'
p5529
asbag56
(g77
g58
NtRp5530
(dp5531
g61
(dp5532
g88
g89
ssg70
g5521
sg63
(lp5533
S':'
asbag56
(g77
g58
NtRp5534
(dp5535
g61
(dp5536
sg70
g5521
sg63
(lp5537
g56
(g57
g58
NtRp5538
(dp5539
g61
(dp5540
g69
I5
ssg70
g5534
sg63
(lp5541
S'200'
p5542
asbasbasbag56
(g72
g58
NtRp5543
(dp5544
g61
(dp5545
sg70
g3781
sg63
(lp5546
g56
(g77
g58
NtRp5547
(dp5548
g61
(dp5549
g81
g82
ssg70
g5543
sg63
(lp5550
S'subtitle'
p5551
asbag56
(g77
g58
NtRp5552
(dp5553
g61
(dp5554
g88
g89
ssg70
g5543
sg63
(lp5555
S':'
asbag56
(g77
g58
NtRp5556
(dp5557
g61
(dp5558
sg70
g5543
sg63
(lp5559
g56
(g57
g58
NtRp5560
(dp5561
g61
(dp5562
g69
I5
ssg70
g5556
sg63
(lp5563
g4305
(S's\r\x00\x00\x00customize me!'
tRp5564
asbasbasbag56
(g72
g58
NtRp5565
(dp5566
g61
(dp5567
sg70
g3781
sg63
(lp5568
g56
(g77
g58
NtRp5569
(dp5570
g61
(dp5571
g81
g82
ssg70
g5565
sg63
(lp5572
S'title'
p5573
asbag56
(g77
g58
NtRp5574
(dp5575
g61
(dp5576
g88
g89
ssg70
g5565
sg63
(lp5577
S':'
asbag56
(g77
g58
NtRp5578
(dp5579
g61
(dp5580
sg70
g5565
sg63
(lp5581
g56
(g57
g58
NtRp5582
(dp5583
g61
(dp5584
g69
I5
ssg70
g5578
sg63
(lp5585
g121
asbasbasbag56
(g72
g58
NtRp5586
(dp5587
g61
(dp5588
sg70
g3781
sg63
(lp5589
g56
(g77
g58
NtRp5590
(dp5591
g61
(dp5592
g81
g82
ssg70
g5586
sg63
(lp5593
g2427
asbag56
(g77
g58
NtRp5594
(dp5595
g61
(dp5596
g88
g89
ssg70
g5586
sg63
(lp5597
S':'
asbag56
(g77
g58
NtRp5598
(dp5599
g61
(dp5600
sg70
g5586
sg63
(lp5601
g56
(g57
g58
NtRp5602
(dp5603
g61
(dp5604
g69
I5
ssg70
g5598
sg63
(lp5605
g2440
asbasbasbag56
(g72
g58
NtRp5606
(dp5607
g61
(dp5608
sg70
g3781
sg63
(lp5609
g56
(g77
g58
NtRp5610
(dp5611
g61
(dp5612
g81
g82
ssg70
g5606
sg63
(lp5613
S'view'
p5614
asbag56
(g77
g58
NtRp5615
(dp5616
g61
(dp5617
g88
g89
ssg70
g5606
sg63
(lp5618
S':'
asbag56
(g77
g58
NtRp5619
(dp5620
g61
(dp5621
sg70
g5606
sg63
(lp5622
g56
(g57
g58
NtRp5623
(dp5624
g61
(dp5625
g69
I5
ssg70
g5619
sg63
(lp5626
S'generic.pdf'
p5627
asbasbasbasbasbsS'locals'
p5628
(dp5629
S'self'
p5630
S'<gluon.html.web2pyHTMLParser instance>'
p5631
sS'parent_tagname'
p5632
S"''"
p5633
sS'tagname'
p5634
S"'script'"
p5635
sssS'traceback'
p5636
S'Traceback (most recent call last):\n  File "/home/www-data/web2py/gluon/restricted.py", line 181, in restricted\n    exec ccode in environment\n  File "/home/www-data/web2py/applications/rdcdss/views/generic.pdf", line 21, in <module>\n    html=response.render(\'%s/%s.html\' % (request.controller,request.function))\n  File "/home/www-data/web2py/gluon/html.py", line 1014, in __call__\n    return web2pyHTMLParser(decoder.decoder(html)).tree\n  File "/home/www-data/web2py/gluon/html.py", line 1995, in __init__\n    self.feed(text)\n  File "/usr/lib/python2.6/HTMLParser.py", line 108, in feed\n    self.goahead(0)\n  File "/usr/lib/python2.6/HTMLParser.py", line 150, in goahead\n    k = self.parse_endtag(i)\n  File "/usr/lib/python2.6/HTMLParser.py", line 319, in parse_endtag\n    self.handle_endtag(tag.lower())\n  File "/home/www-data/web2py/gluon/html.py", line 2030, in handle_endtag\n    raise RuntimeError, "unable to balance tag %s" % tagname\nRuntimeError: unable to balance tag script\n'
p5637
s.