(dp1
S'output'
p2
S''
sS'layer'
p3
S'/home/www-data/web2py/applications/rdcdss/views/generic.pdf'
p4
sS'code'
p5
S'import re\nfrom gluon.contrib.markmin.markmin2pdf import markmin2pdf\ndef markmin_serializer(text,tag=None,attr={}):\n    if tag==None: return re.sub(\'\\s+\',\' \',text)\n    if tag==\'br\': return \'\\n\\n\'\n    if tag==\'h1\': return \'# \'+text+\'\\n\\n\'\n    if tag==\'h2\': return \'#\'*2+\' \'+text+\'\\n\\n\'\n    if tag==\'h3\': return \'#\'*3+\' \'+text+\'\\n\\n\'\n    if tag==\'h4\': return \'#\'*4+\' \'+text+\'\\n\\n\'\n    if tag==\'p\': return text+\'\\n\\n\'\n    if tag==\'li\': return \'\\n- \'+text.replace(\'\\n\',\' \')\n    if tag==\'tr\': return text[3:].replace(\'\\n\',\' \')+\'\\n\'\n    if tag in [\'table\',\'blockquote\']: return \'\\n-----\\n\'+text+\'\\n------\\n\'\n    if tag in [\'td\',\'th\']: return \' | \'+text\n    if tag in [\'b\',\'strong\',\'label\']: return \'**%s**\' % text\n    if tag in [\'em\',\'i\']: return "\'\'%s\'\'" % text\n    if tag in [\'tt\',\'code\']: return \'``%s``\' % text\n    if tag==\'a\': return \'[[%s %s]]\' % (text,attr.get(\'_href\',\'\'))\n    return text\nhtml=response.render(\'%s/%s.html\' % (request.controller,request.function))\nmarkmin=TAG(html).element(\'#content\').flatten(markmin_serializer)\npdf,warnings,errors=markmin2pdf(markmin)\nif errors:\n    response.headers[\'Content-Type\']=\'text\'\n    response.write(HTML(BODY(H1(\'errors\'),LU(*errors),H1(\'warnings\'),LU(*warnings))))\nelse:\n    response.headers[\'Content-Type\']=\'application/pdf\'\n    response.write(pdf,escape=False)\n    pass\nresponse.write(\'\\n\', escape=False)'
p6
sS'snapshot'
p7
(dp8
S'exception'
p9
(dp10
S'__hash__'
p11
S"<method-wrapper '__hash__' of exceptions.RuntimeError object>"
p12
sS'__setattr__'
p13
S"<method-wrapper '__setattr__' of exceptions.RuntimeError object>"
p14
sS'__reduce_ex__'
p15
S'<built-in method __reduce_ex__ of exceptions.RuntimeError object>'
p16
sS'__getslice__'
p17
S"<method-wrapper '__getslice__' of exceptions.RuntimeError object>"
p18
sS'__getitem__'
p19
S"<method-wrapper '__getitem__' of exceptions.RuntimeError object>"
p20
sS'__setstate__'
p21
S'<built-in method __setstate__ of exceptions.RuntimeError object>'
p22
sS'args'
p23
S"('unable to balance tag script',)"
p24
sS'__reduce__'
p25
S'<built-in method __reduce__ of exceptions.RuntimeError object>'
p26
sS'__str__'
p27
S"<method-wrapper '__str__' of exceptions.RuntimeError object>"
p28
sS'__format__'
p29
S'<built-in method __format__ of exceptions.RuntimeError object>'
p30
sS'__getattribute__'
p31
S"<method-wrapper '__getattribute__' of exceptions.RuntimeError object>"
p32
sS'__class__'
p33
S"<type 'exceptions.RuntimeError'>"
p34
sS'__unicode__'
p35
S'<built-in method __unicode__ of exceptions.RuntimeError object>'
p36
sS'__delattr__'
p37
S"<method-wrapper '__delattr__' of exceptions.RuntimeError object>"
p38
sS'__subclasshook__'
p39
S'<built-in method __subclasshook__ of type object>'
p40
sS'__repr__'
p41
S"<method-wrapper '__repr__' of exceptions.RuntimeError object>"
p42
sS'__dict__'
p43
S'{}'
p44
sS'__sizeof__'
p45
S'<built-in method __sizeof__ of exceptions.RuntimeError object>'
p46
sS'__doc__'
p47
S"'Unspecified run-time error.'"
p48
sS'__init__'
p49
S"<method-wrapper '__init__' of exceptions.RuntimeError object>"
p50
sS'__new__'
p51
S'<built-in method __new__ of type object>'
p52
ssS'evalue'
p53
S'unable to balance tag script'
p54
sS'request'
p55
ccopy_reg
_reconstructor
p56
(cgluon.html
BEAUTIFY
p57
c__builtin__
object
p58
NtRp59
(dp60
S'attributes'
p61
(dp62
sS'components'
p63
(lp64
g56
(cgluon.html
TABLE
p65
g58
NtRp66
(dp67
g61
(dp68
S'level'
p69
I5
ssS'parent'
p70
Nsg63
(lp71
g56
(cgluon.html
TR
p72
g58
NtRp73
(dp74
g61
(dp75
sg70
g66
sg63
(lp76
g56
(cgluon.html
TD
p77
g58
NtRp78
(dp79
g61
(dp80
S'_style'
p81
S'font-weight:bold;'
p82
ssg70
g73
sg63
(lp83
S'ajax'
p84
asbag56
(g77
g58
NtRp85
(dp86
g61
(dp87
S'_valign'
p88
S'top'
p89
ssg70
g73
sg63
(lp90
S':'
asbag56
(g77
g58
NtRp91
(dp92
g61
(dp93
sg70
g73
sg63
(lp94
g56
(g57
g58
NtRp95
(dp96
g61
(dp97
g69
I5
ssg70
g91
sg63
(lp98
S'False'
p99
asbasbasbag56
(g72
g58
NtRp100
(dp101
g61
(dp102
sg70
g66
sg63
(lp103
g56
(g77
g58
NtRp104
(dp105
g61
(dp106
g81
g82
ssg70
g100
sg63
(lp107
S'application'
p108
asbag56
(g77
g58
NtRp109
(dp110
g61
(dp111
g88
g89
ssg70
g100
sg63
(lp112
S':'
asbag56
(g77
g58
NtRp113
(dp114
g61
(dp115
sg70
g100
sg63
(lp116
g56
(g57
g58
NtRp117
(dp118
g61
(dp119
g69
I5
ssg70
g113
sg63
(lp120
S'rdcdss'
p121
asbasbasbag56
(g72
g58
NtRp122
(dp123
g61
(dp124
sg70
g66
sg63
(lp125
g56
(g77
g58
NtRp126
(dp127
g61
(dp128
g81
g82
ssg70
g122
sg63
(lp129
g23
asbag56
(g77
g58
NtRp130
(dp131
g61
(dp132
g88
g89
ssg70
g122
sg63
(lp133
S':'
asbag56
(g77
g58
NtRp134
(dp135
g61
(dp136
sg70
g122
sg63
(lp137
g56
(g57
g58
NtRp138
(dp139
g61
(dp140
g69
I5
ssg70
g134
sg63
(lp141
g56
(g65
g58
NtRp142
(dp143
g61
(dp144
g69
I4
ssg70
Nsg63
(lp145
sbasbasbasbag56
(g72
g58
NtRp146
(dp147
g61
(dp148
sg70
g66
sg63
(lp149
g56
(g77
g58
NtRp150
(dp151
g61
(dp152
g81
g82
ssg70
g146
sg63
(lp153
S'body'
p154
asbag56
(g77
g58
NtRp155
(dp156
g61
(dp157
g88
g89
ssg70
g146
sg63
(lp158
S':'
asbag56
(g77
g58
NtRp159
(dp160
g61
(dp161
sg70
g146
sg63
(lp162
g56
(g57
g58
NtRp163
(dp164
g61
(dp165
g69
I5
ssg70
g159
sg63
(lp166
S'<cStringIO.StringO object at 0x2b9bdb854458>'
p167
asbasbasbag56
(g72
g58
NtRp168
(dp169
g61
(dp170
sg70
g66
sg63
(lp171
g56
(g77
g58
NtRp172
(dp173
g61
(dp174
g81
g82
ssg70
g168
sg63
(lp175
S'client'
p176
asbag56
(g77
g58
NtRp177
(dp178
g61
(dp179
g88
g89
ssg70
g168
sg63
(lp180
S':'
asbag56
(g77
g58
NtRp181
(dp182
g61
(dp183
sg70
g168
sg63
(lp184
g56
(g57
g58
NtRp185
(dp186
g61
(dp187
g69
I5
ssg70
g181
sg63
(lp188
S'89.123.2.193'
p189
asbasbasbag56
(g72
g58
NtRp190
(dp191
g61
(dp192
sg70
g66
sg63
(lp193
g56
(g77
g58
NtRp194
(dp195
g61
(dp196
g81
g82
ssg70
g190
sg63
(lp197
S'controller'
p198
asbag56
(g77
g58
NtRp199
(dp200
g61
(dp201
g88
g89
ssg70
g190
sg63
(lp202
S':'
asbag56
(g77
g58
NtRp203
(dp204
g61
(dp205
sg70
g190
sg63
(lp206
g56
(g57
g58
NtRp207
(dp208
g61
(dp209
g69
I5
ssg70
g203
sg63
(lp210
S'default'
p211
asbasbasbag56
(g72
g58
NtRp212
(dp213
g61
(dp214
sg70
g66
sg63
(lp215
g56
(g77
g58
NtRp216
(dp217
g61
(dp218
g81
g82
ssg70
g212
sg63
(lp219
S'cookies'
p220
asbag56
(g77
g58
NtRp221
(dp222
g61
(dp223
g88
g89
ssg70
g212
sg63
(lp224
S':'
asbag56
(g77
g58
NtRp225
(dp226
g61
(dp227
sg70
g212
sg63
(lp228
g56
(g57
g58
NtRp229
(dp230
g61
(dp231
g69
I5
ssg70
g225
sg63
(lp232
g56
(g65
g58
NtRp233
(dp234
g61
(dp235
g69
I4
ssg70
Nsg63
(lp236
g56
(g72
g58
NtRp237
(dp238
g61
(dp239
sg70
g233
sg63
(lp240
g56
(g77
g58
NtRp241
(dp242
g61
(dp243
g81
g82
ssg70
g237
sg63
(lp244
S'session_id_admin'
p245
asbag56
(g77
g58
NtRp246
(dp247
g61
(dp248
g88
g89
ssg70
g237
sg63
(lp249
S':'
asbag56
(g77
g58
NtRp250
(dp251
g61
(dp252
sg70
g237
sg63
(lp253
g56
(g57
g58
NtRp254
(dp255
g61
(dp256
g69
I4
ssg70
g250
sg63
(lp257
g56
(g65
g58
NtRp258
(dp259
g61
(dp260
g69
I3
ssg70
Nsg63
(lp261
g56
(g72
g58
NtRp262
(dp263
g61
(dp264
sg70
g258
sg63
(lp265
g56
(g77
g58
NtRp266
(dp267
g61
(dp268
g81
g82
ssg70
g262
sg63
(lp269
S'comment'
p270
asbag56
(g77
g58
NtRp271
(dp272
g61
(dp273
g88
g89
ssg70
g262
sg63
(lp274
S':'
asbag56
(g77
g58
NtRp275
(dp276
g61
(dp277
sg70
g262
sg63
(lp278
g56
(g57
g58
NtRp279
(dp280
g61
(dp281
g69
I3
ssg70
g275
sg63
(lp282
S''
asbasbasbag56
(g72
g58
NtRp283
(dp284
g61
(dp285
sg70
g258
sg63
(lp286
g56
(g77
g58
NtRp287
(dp288
g61
(dp289
g81
g82
ssg70
g283
sg63
(lp290
S'domain'
p291
asbag56
(g77
g58
NtRp292
(dp293
g61
(dp294
g88
g89
ssg70
g283
sg63
(lp295
S':'
asbag56
(g77
g58
NtRp296
(dp297
g61
(dp298
sg70
g283
sg63
(lp299
g56
(g57
g58
NtRp300
(dp301
g61
(dp302
g69
I3
ssg70
g296
sg63
(lp303
S''
asbasbasbag56
(g72
g58
NtRp304
(dp305
g61
(dp306
sg70
g258
sg63
(lp307
g56
(g77
g58
NtRp308
(dp309
g61
(dp310
g81
g82
ssg70
g304
sg63
(lp311
S'expires'
p312
asbag56
(g77
g58
NtRp313
(dp314
g61
(dp315
g88
g89
ssg70
g304
sg63
(lp316
S':'
asbag56
(g77
g58
NtRp317
(dp318
g61
(dp319
sg70
g304
sg63
(lp320
g56
(g57
g58
NtRp321
(dp322
g61
(dp323
g69
I3
ssg70
g317
sg63
(lp324
S''
asbasbasbag56
(g72
g58
NtRp325
(dp326
g61
(dp327
sg70
g258
sg63
(lp328
g56
(g77
g58
NtRp329
(dp330
g61
(dp331
g81
g82
ssg70
g325
sg63
(lp332
S'httponly'
p333
asbag56
(g77
g58
NtRp334
(dp335
g61
(dp336
g88
g89
ssg70
g325
sg63
(lp337
S':'
asbag56
(g77
g58
NtRp338
(dp339
g61
(dp340
sg70
g325
sg63
(lp341
g56
(g57
g58
NtRp342
(dp343
g61
(dp344
g69
I3
ssg70
g338
sg63
(lp345
S''
asbasbasbag56
(g72
g58
NtRp346
(dp347
g61
(dp348
sg70
g258
sg63
(lp349
g56
(g77
g58
NtRp350
(dp351
g61
(dp352
g81
g82
ssg70
g346
sg63
(lp353
S'max-age'
p354
asbag56
(g77
g58
NtRp355
(dp356
g61
(dp357
g88
g89
ssg70
g346
sg63
(lp358
S':'
asbag56
(g77
g58
NtRp359
(dp360
g61
(dp361
sg70
g346
sg63
(lp362
g56
(g57
g58
NtRp363
(dp364
g61
(dp365
g69
I3
ssg70
g359
sg63
(lp366
S''
asbasbasbag56
(g72
g58
NtRp367
(dp368
g61
(dp369
sg70
g258
sg63
(lp370
g56
(g77
g58
NtRp371
(dp372
g61
(dp373
g81
g82
ssg70
g367
sg63
(lp374
S'path'
p375
asbag56
(g77
g58
NtRp376
(dp377
g61
(dp378
g88
g89
ssg70
g367
sg63
(lp379
S':'
asbag56
(g77
g58
NtRp380
(dp381
g61
(dp382
sg70
g367
sg63
(lp383
g56
(g57
g58
NtRp384
(dp385
g61
(dp386
g69
I3
ssg70
g380
sg63
(lp387
S''
asbasbasbag56
(g72
g58
NtRp388
(dp389
g61
(dp390
sg70
g258
sg63
(lp391
g56
(g77
g58
NtRp392
(dp393
g61
(dp394
g81
g82
ssg70
g388
sg63
(lp395
S'secure'
p396
asbag56
(g77
g58
NtRp397
(dp398
g61
(dp399
g88
g89
ssg70
g388
sg63
(lp400
S':'
asbag56
(g77
g58
NtRp401
(dp402
g61
(dp403
sg70
g388
sg63
(lp404
g56
(g57
g58
NtRp405
(dp406
g61
(dp407
g69
I3
ssg70
g401
sg63
(lp408
S''
asbasbasbag56
(g72
g58
NtRp409
(dp410
g61
(dp411
sg70
g258
sg63
(lp412
g56
(g77
g58
NtRp413
(dp414
g61
(dp415
g81
g82
ssg70
g409
sg63
(lp416
S'version'
p417
asbag56
(g77
g58
NtRp418
(dp419
g61
(dp420
g88
g89
ssg70
g409
sg63
(lp421
S':'
asbag56
(g77
g58
NtRp422
(dp423
g61
(dp424
sg70
g409
sg63
(lp425
g56
(g57
g58
NtRp426
(dp427
g61
(dp428
g69
I3
ssg70
g422
sg63
(lp429
S''
asbasbasbasbasbasbasbag56
(g72
g58
NtRp430
(dp431
g61
(dp432
sg70
g233
sg63
(lp433
g56
(g77
g58
NtRp434
(dp435
g61
(dp436
g81
g82
ssg70
g430
sg63
(lp437
S'session_id_raredisss_devel'
p438
asbag56
(g77
g58
NtRp439
(dp440
g61
(dp441
g88
g89
ssg70
g430
sg63
(lp442
S':'
asbag56
(g77
g58
NtRp443
(dp444
g61
(dp445
sg70
g430
sg63
(lp446
g56
(g57
g58
NtRp447
(dp448
g61
(dp449
g69
I4
ssg70
g443
sg63
(lp450
g56
(g65
g58
NtRp451
(dp452
g61
(dp453
g69
I3
ssg70
Nsg63
(lp454
g56
(g72
g58
NtRp455
(dp456
g61
(dp457
sg70
g451
sg63
(lp458
g56
(g77
g58
NtRp459
(dp460
g61
(dp461
g81
g82
ssg70
g455
sg63
(lp462
g270
asbag56
(g77
g58
NtRp463
(dp464
g61
(dp465
g88
g89
ssg70
g455
sg63
(lp466
S':'
asbag56
(g77
g58
NtRp467
(dp468
g61
(dp469
sg70
g455
sg63
(lp470
g56
(g57
g58
NtRp471
(dp472
g61
(dp473
g69
I3
ssg70
g467
sg63
(lp474
S''
asbasbasbag56
(g72
g58
NtRp475
(dp476
g61
(dp477
sg70
g451
sg63
(lp478
g56
(g77
g58
NtRp479
(dp480
g61
(dp481
g81
g82
ssg70
g475
sg63
(lp482
g291
asbag56
(g77
g58
NtRp483
(dp484
g61
(dp485
g88
g89
ssg70
g475
sg63
(lp486
S':'
asbag56
(g77
g58
NtRp487
(dp488
g61
(dp489
sg70
g475
sg63
(lp490
g56
(g57
g58
NtRp491
(dp492
g61
(dp493
g69
I3
ssg70
g487
sg63
(lp494
S''
asbasbasbag56
(g72
g58
NtRp495
(dp496
g61
(dp497
sg70
g451
sg63
(lp498
g56
(g77
g58
NtRp499
(dp500
g61
(dp501
g81
g82
ssg70
g495
sg63
(lp502
g312
asbag56
(g77
g58
NtRp503
(dp504
g61
(dp505
g88
g89
ssg70
g495
sg63
(lp506
S':'
asbag56
(g77
g58
NtRp507
(dp508
g61
(dp509
sg70
g495
sg63
(lp510
g56
(g57
g58
NtRp511
(dp512
g61
(dp513
g69
I3
ssg70
g507
sg63
(lp514
S''
asbasbasbag56
(g72
g58
NtRp515
(dp516
g61
(dp517
sg70
g451
sg63
(lp518
g56
(g77
g58
NtRp519
(dp520
g61
(dp521
g81
g82
ssg70
g515
sg63
(lp522
g333
asbag56
(g77
g58
NtRp523
(dp524
g61
(dp525
g88
g89
ssg70
g515
sg63
(lp526
S':'
asbag56
(g77
g58
NtRp527
(dp528
g61
(dp529
sg70
g515
sg63
(lp530
g56
(g57
g58
NtRp531
(dp532
g61
(dp533
g69
I3
ssg70
g527
sg63
(lp534
S''
asbasbasbag56
(g72
g58
NtRp535
(dp536
g61
(dp537
sg70
g451
sg63
(lp538
g56
(g77
g58
NtRp539
(dp540
g61
(dp541
g81
g82
ssg70
g535
sg63
(lp542
g354
asbag56
(g77
g58
NtRp543
(dp544
g61
(dp545
g88
g89
ssg70
g535
sg63
(lp546
S':'
asbag56
(g77
g58
NtRp547
(dp548
g61
(dp549
sg70
g535
sg63
(lp550
g56
(g57
g58
NtRp551
(dp552
g61
(dp553
g69
I3
ssg70
g547
sg63
(lp554
S''
asbasbasbag56
(g72
g58
NtRp555
(dp556
g61
(dp557
sg70
g451
sg63
(lp558
g56
(g77
g58
NtRp559
(dp560
g61
(dp561
g81
g82
ssg70
g555
sg63
(lp562
g375
asbag56
(g77
g58
NtRp563
(dp564
g61
(dp565
g88
g89
ssg70
g555
sg63
(lp566
S':'
asbag56
(g77
g58
NtRp567
(dp568
g61
(dp569
sg70
g555
sg63
(lp570
g56
(g57
g58
NtRp571
(dp572
g61
(dp573
g69
I3
ssg70
g567
sg63
(lp574
S''
asbasbasbag56
(g72
g58
NtRp575
(dp576
g61
(dp577
sg70
g451
sg63
(lp578
g56
(g77
g58
NtRp579
(dp580
g61
(dp581
g81
g82
ssg70
g575
sg63
(lp582
g396
asbag56
(g77
g58
NtRp583
(dp584
g61
(dp585
g88
g89
ssg70
g575
sg63
(lp586
S':'
asbag56
(g77
g58
NtRp587
(dp588
g61
(dp589
sg70
g575
sg63
(lp590
g56
(g57
g58
NtRp591
(dp592
g61
(dp593
g69
I3
ssg70
g587
sg63
(lp594
S''
asbasbasbag56
(g72
g58
NtRp595
(dp596
g61
(dp597
sg70
g451
sg63
(lp598
g56
(g77
g58
NtRp599
(dp600
g61
(dp601
g81
g82
ssg70
g595
sg63
(lp602
g417
asbag56
(g77
g58
NtRp603
(dp604
g61
(dp605
g88
g89
ssg70
g595
sg63
(lp606
S':'
asbag56
(g77
g58
NtRp607
(dp608
g61
(dp609
sg70
g595
sg63
(lp610
g56
(g57
g58
NtRp611
(dp612
g61
(dp613
g69
I3
ssg70
g607
sg63
(lp614
S''
asbasbasbasbasbasbasbag56
(g72
g58
NtRp615
(dp616
g61
(dp617
sg70
g233
sg63
(lp618
g56
(g77
g58
NtRp619
(dp620
g61
(dp621
g81
g82
ssg70
g615
sg63
(lp622
S'session_id_rdcdss'
p623
asbag56
(g77
g58
NtRp624
(dp625
g61
(dp626
g88
g89
ssg70
g615
sg63
(lp627
S':'
asbag56
(g77
g58
NtRp628
(dp629
g61
(dp630
sg70
g615
sg63
(lp631
g56
(g57
g58
NtRp632
(dp633
g61
(dp634
g69
I4
ssg70
g628
sg63
(lp635
g56
(g65
g58
NtRp636
(dp637
g61
(dp638
g69
I3
ssg70
Nsg63
(lp639
g56
(g72
g58
NtRp640
(dp641
g61
(dp642
sg70
g636
sg63
(lp643
g56
(g77
g58
NtRp644
(dp645
g61
(dp646
g81
g82
ssg70
g640
sg63
(lp647
g270
asbag56
(g77
g58
NtRp648
(dp649
g61
(dp650
g88
g89
ssg70
g640
sg63
(lp651
S':'
asbag56
(g77
g58
NtRp652
(dp653
g61
(dp654
sg70
g640
sg63
(lp655
g56
(g57
g58
NtRp656
(dp657
g61
(dp658
g69
I3
ssg70
g652
sg63
(lp659
S''
asbasbasbag56
(g72
g58
NtRp660
(dp661
g61
(dp662
sg70
g636
sg63
(lp663
g56
(g77
g58
NtRp664
(dp665
g61
(dp666
g81
g82
ssg70
g660
sg63
(lp667
g291
asbag56
(g77
g58
NtRp668
(dp669
g61
(dp670
g88
g89
ssg70
g660
sg63
(lp671
S':'
asbag56
(g77
g58
NtRp672
(dp673
g61
(dp674
sg70
g660
sg63
(lp675
g56
(g57
g58
NtRp676
(dp677
g61
(dp678
g69
I3
ssg70
g672
sg63
(lp679
S''
asbasbasbag56
(g72
g58
NtRp680
(dp681
g61
(dp682
sg70
g636
sg63
(lp683
g56
(g77
g58
NtRp684
(dp685
g61
(dp686
g81
g82
ssg70
g680
sg63
(lp687
g312
asbag56
(g77
g58
NtRp688
(dp689
g61
(dp690
g88
g89
ssg70
g680
sg63
(lp691
S':'
asbag56
(g77
g58
NtRp692
(dp693
g61
(dp694
sg70
g680
sg63
(lp695
g56
(g57
g58
NtRp696
(dp697
g61
(dp698
g69
I3
ssg70
g692
sg63
(lp699
S''
asbasbasbag56
(g72
g58
NtRp700
(dp701
g61
(dp702
sg70
g636
sg63
(lp703
g56
(g77
g58
NtRp704
(dp705
g61
(dp706
g81
g82
ssg70
g700
sg63
(lp707
g333
asbag56
(g77
g58
NtRp708
(dp709
g61
(dp710
g88
g89
ssg70
g700
sg63
(lp711
S':'
asbag56
(g77
g58
NtRp712
(dp713
g61
(dp714
sg70
g700
sg63
(lp715
g56
(g57
g58
NtRp716
(dp717
g61
(dp718
g69
I3
ssg70
g712
sg63
(lp719
S''
asbasbasbag56
(g72
g58
NtRp720
(dp721
g61
(dp722
sg70
g636
sg63
(lp723
g56
(g77
g58
NtRp724
(dp725
g61
(dp726
g81
g82
ssg70
g720
sg63
(lp727
g354
asbag56
(g77
g58
NtRp728
(dp729
g61
(dp730
g88
g89
ssg70
g720
sg63
(lp731
S':'
asbag56
(g77
g58
NtRp732
(dp733
g61
(dp734
sg70
g720
sg63
(lp735
g56
(g57
g58
NtRp736
(dp737
g61
(dp738
g69
I3
ssg70
g732
sg63
(lp739
S''
asbasbasbag56
(g72
g58
NtRp740
(dp741
g61
(dp742
sg70
g636
sg63
(lp743
g56
(g77
g58
NtRp744
(dp745
g61
(dp746
g81
g82
ssg70
g740
sg63
(lp747
g375
asbag56
(g77
g58
NtRp748
(dp749
g61
(dp750
g88
g89
ssg70
g740
sg63
(lp751
S':'
asbag56
(g77
g58
NtRp752
(dp753
g61
(dp754
sg70
g740
sg63
(lp755
g56
(g57
g58
NtRp756
(dp757
g61
(dp758
g69
I3
ssg70
g752
sg63
(lp759
S''
asbasbasbag56
(g72
g58
NtRp760
(dp761
g61
(dp762
sg70
g636
sg63
(lp763
g56
(g77
g58
NtRp764
(dp765
g61
(dp766
g81
g82
ssg70
g760
sg63
(lp767
g396
asbag56
(g77
g58
NtRp768
(dp769
g61
(dp770
g88
g89
ssg70
g760
sg63
(lp771
S':'
asbag56
(g77
g58
NtRp772
(dp773
g61
(dp774
sg70
g760
sg63
(lp775
g56
(g57
g58
NtRp776
(dp777
g61
(dp778
g69
I3
ssg70
g772
sg63
(lp779
S''
asbasbasbag56
(g72
g58
NtRp780
(dp781
g61
(dp782
sg70
g636
sg63
(lp783
g56
(g77
g58
NtRp784
(dp785
g61
(dp786
g81
g82
ssg70
g780
sg63
(lp787
g417
asbag56
(g77
g58
NtRp788
(dp789
g61
(dp790
g88
g89
ssg70
g780
sg63
(lp791
S':'
asbag56
(g77
g58
NtRp792
(dp793
g61
(dp794
sg70
g780
sg63
(lp795
g56
(g57
g58
NtRp796
(dp797
g61
(dp798
g69
I3
ssg70
g792
sg63
(lp799
S''
asbasbasbasbasbasbasbag56
(g72
g58
NtRp800
(dp801
g61
(dp802
sg70
g233
sg63
(lp803
g56
(g77
g58
NtRp804
(dp805
g61
(dp806
g81
g82
ssg70
g800
sg63
(lp807
S'session_id_welcome'
p808
asbag56
(g77
g58
NtRp809
(dp810
g61
(dp811
g88
g89
ssg70
g800
sg63
(lp812
S':'
asbag56
(g77
g58
NtRp813
(dp814
g61
(dp815
sg70
g800
sg63
(lp816
g56
(g57
g58
NtRp817
(dp818
g61
(dp819
g69
I4
ssg70
g813
sg63
(lp820
g56
(g65
g58
NtRp821
(dp822
g61
(dp823
g69
I3
ssg70
Nsg63
(lp824
g56
(g72
g58
NtRp825
(dp826
g61
(dp827
sg70
g821
sg63
(lp828
g56
(g77
g58
NtRp829
(dp830
g61
(dp831
g81
g82
ssg70
g825
sg63
(lp832
g270
asbag56
(g77
g58
NtRp833
(dp834
g61
(dp835
g88
g89
ssg70
g825
sg63
(lp836
S':'
asbag56
(g77
g58
NtRp837
(dp838
g61
(dp839
sg70
g825
sg63
(lp840
g56
(g57
g58
NtRp841
(dp842
g61
(dp843
g69
I3
ssg70
g837
sg63
(lp844
S''
asbasbasbag56
(g72
g58
NtRp845
(dp846
g61
(dp847
sg70
g821
sg63
(lp848
g56
(g77
g58
NtRp849
(dp850
g61
(dp851
g81
g82
ssg70
g845
sg63
(lp852
g291
asbag56
(g77
g58
NtRp853
(dp854
g61
(dp855
g88
g89
ssg70
g845
sg63
(lp856
S':'
asbag56
(g77
g58
NtRp857
(dp858
g61
(dp859
sg70
g845
sg63
(lp860
g56
(g57
g58
NtRp861
(dp862
g61
(dp863
g69
I3
ssg70
g857
sg63
(lp864
S''
asbasbasbag56
(g72
g58
NtRp865
(dp866
g61
(dp867
sg70
g821
sg63
(lp868
g56
(g77
g58
NtRp869
(dp870
g61
(dp871
g81
g82
ssg70
g865
sg63
(lp872
g312
asbag56
(g77
g58
NtRp873
(dp874
g61
(dp875
g88
g89
ssg70
g865
sg63
(lp876
S':'
asbag56
(g77
g58
NtRp877
(dp878
g61
(dp879
sg70
g865
sg63
(lp880
g56
(g57
g58
NtRp881
(dp882
g61
(dp883
g69
I3
ssg70
g877
sg63
(lp884
S''
asbasbasbag56
(g72
g58
NtRp885
(dp886
g61
(dp887
sg70
g821
sg63
(lp888
g56
(g77
g58
NtRp889
(dp890
g61
(dp891
g81
g82
ssg70
g885
sg63
(lp892
g333
asbag56
(g77
g58
NtRp893
(dp894
g61
(dp895
g88
g89
ssg70
g885
sg63
(lp896
S':'
asbag56
(g77
g58
NtRp897
(dp898
g61
(dp899
sg70
g885
sg63
(lp900
g56
(g57
g58
NtRp901
(dp902
g61
(dp903
g69
I3
ssg70
g897
sg63
(lp904
S''
asbasbasbag56
(g72
g58
NtRp905
(dp906
g61
(dp907
sg70
g821
sg63
(lp908
g56
(g77
g58
NtRp909
(dp910
g61
(dp911
g81
g82
ssg70
g905
sg63
(lp912
g354
asbag56
(g77
g58
NtRp913
(dp914
g61
(dp915
g88
g89
ssg70
g905
sg63
(lp916
S':'
asbag56
(g77
g58
NtRp917
(dp918
g61
(dp919
sg70
g905
sg63
(lp920
g56
(g57
g58
NtRp921
(dp922
g61
(dp923
g69
I3
ssg70
g917
sg63
(lp924
S''
asbasbasbag56
(g72
g58
NtRp925
(dp926
g61
(dp927
sg70
g821
sg63
(lp928
g56
(g77
g58
NtRp929
(dp930
g61
(dp931
g81
g82
ssg70
g925
sg63
(lp932
g375
asbag56
(g77
g58
NtRp933
(dp934
g61
(dp935
g88
g89
ssg70
g925
sg63
(lp936
S':'
asbag56
(g77
g58
NtRp937
(dp938
g61
(dp939
sg70
g925
sg63
(lp940
g56
(g57
g58
NtRp941
(dp942
g61
(dp943
g69
I3
ssg70
g937
sg63
(lp944
S''
asbasbasbag56
(g72
g58
NtRp945
(dp946
g61
(dp947
sg70
g821
sg63
(lp948
g56
(g77
g58
NtRp949
(dp950
g61
(dp951
g81
g82
ssg70
g945
sg63
(lp952
g396
asbag56
(g77
g58
NtRp953
(dp954
g61
(dp955
g88
g89
ssg70
g945
sg63
(lp956
S':'
asbag56
(g77
g58
NtRp957
(dp958
g61
(dp959
sg70
g945
sg63
(lp960
g56
(g57
g58
NtRp961
(dp962
g61
(dp963
g69
I3
ssg70
g957
sg63
(lp964
S''
asbasbasbag56
(g72
g58
NtRp965
(dp966
g61
(dp967
sg70
g821
sg63
(lp968
g56
(g77
g58
NtRp969
(dp970
g61
(dp971
g81
g82
ssg70
g965
sg63
(lp972
g417
asbag56
(g77
g58
NtRp973
(dp974
g61
(dp975
g88
g89
ssg70
g965
sg63
(lp976
S':'
asbag56
(g77
g58
NtRp977
(dp978
g61
(dp979
sg70
g965
sg63
(lp980
g56
(g57
g58
NtRp981
(dp982
g61
(dp983
g69
I3
ssg70
g977
sg63
(lp984
S''
asbasbasbasbasbasbasbasbasbasbasbag56
(g72
g58
NtRp985
(dp986
g61
(dp987
sg70
g66
sg63
(lp988
g56
(g77
g58
NtRp989
(dp990
g61
(dp991
g81
g82
ssg70
g985
sg63
(lp992
S'env'
p993
asbag56
(g77
g58
NtRp994
(dp995
g61
(dp996
g88
g89
ssg70
g985
sg63
(lp997
S':'
asbag56
(g77
g58
NtRp998
(dp999
g61
(dp1000
sg70
g985
sg63
(lp1001
g56
(g57
g58
NtRp1002
(dp1003
g61
(dp1004
g69
I5
ssg70
g998
sg63
(lp1005
g56
(g65
g58
NtRp1006
(dp1007
g61
(dp1008
g69
I4
ssg70
Nsg63
(lp1009
g56
(g72
g58
NtRp1010
(dp1011
g61
(dp1012
sg70
g1006
sg63
(lp1013
g56
(g77
g58
NtRp1014
(dp1015
g61
(dp1016
g81
g82
ssg70
g1010
sg63
(lp1017
S'app_folders'
p1018
asbag56
(g77
g58
NtRp1019
(dp1020
g61
(dp1021
g88
g89
ssg70
g1010
sg63
(lp1022
S':'
asbag56
(g77
g58
NtRp1023
(dp1024
g61
(dp1025
sg70
g1010
sg63
(lp1026
g56
(g57
g58
NtRp1027
(dp1028
g61
(dp1029
g69
I4
ssg70
g1023
sg63
(lp1030
S"set(['/home/www-data/web2py/applications/rdcdss/', '/home/www-data/web2py/applications/examples/', '/home/www-data/web2py/applications/RareDisSS_Stable/', '/home/www-data/web2py/applications/welcome/', '/home/www-data/web2py/applications/admin/', '/home/www-data/web2py/applications/RareDisSS_Devel/'])"
p1031
asbasbasbag56
(g72
g58
NtRp1032
(dp1033
g61
(dp1034
sg70
g1006
sg63
(lp1035
g56
(g77
g58
NtRp1036
(dp1037
g61
(dp1038
g81
g82
ssg70
g1032
sg63
(lp1039
S'applications_parent'
p1040
asbag56
(g77
g58
NtRp1041
(dp1042
g61
(dp1043
g88
g89
ssg70
g1032
sg63
(lp1044
S':'
asbag56
(g77
g58
NtRp1045
(dp1046
g61
(dp1047
sg70
g1032
sg63
(lp1048
g56
(g57
g58
NtRp1049
(dp1050
g61
(dp1051
g69
I4
ssg70
g1045
sg63
(lp1052
S'/home/www-data/web2py'
p1053
asbasbasbag56
(g72
g58
NtRp1054
(dp1055
g61
(dp1056
sg70
g1006
sg63
(lp1057
g56
(g77
g58
NtRp1058
(dp1059
g61
(dp1060
g81
g82
ssg70
g1054
sg63
(lp1061
S'db_sessions'
p1062
asbag56
(g77
g58
NtRp1063
(dp1064
g61
(dp1065
g88
g89
ssg70
g1054
sg63
(lp1066
S':'
asbag56
(g77
g58
NtRp1067
(dp1068
g61
(dp1069
sg70
g1054
sg63
(lp1070
g56
(g57
g58
NtRp1071
(dp1072
g61
(dp1073
g69
I4
ssg70
g1067
sg63
(lp1074
S'set([])'
p1075
asbasbasbag56
(g72
g58
NtRp1076
(dp1077
g61
(dp1078
sg70
g1006
sg63
(lp1079
g56
(g77
g58
NtRp1080
(dp1081
g61
(dp1082
g81
g82
ssg70
g1076
sg63
(lp1083
S'debugging'
p1084
asbag56
(g77
g58
NtRp1085
(dp1086
g61
(dp1087
g88
g89
ssg70
g1076
sg63
(lp1088
S':'
asbag56
(g77
g58
NtRp1089
(dp1090
g61
(dp1091
sg70
g1076
sg63
(lp1092
g56
(g57
g58
NtRp1093
(dp1094
g61
(dp1095
g69
I4
ssg70
g1089
sg63
(lp1096
g99
asbasbasbag56
(g72
g58
NtRp1097
(dp1098
g61
(dp1099
sg70
g1006
sg63
(lp1100
g56
(g77
g58
NtRp1101
(dp1102
g61
(dp1103
g81
g82
ssg70
g1097
sg63
(lp1104
S'document_root'
p1105
asbag56
(g77
g58
NtRp1106
(dp1107
g61
(dp1108
g88
g89
ssg70
g1097
sg63
(lp1109
S':'
asbag56
(g77
g58
NtRp1110
(dp1111
g61
(dp1112
sg70
g1097
sg63
(lp1113
g56
(g57
g58
NtRp1114
(dp1115
g61
(dp1116
g69
I4
ssg70
g1110
sg63
(lp1117
S'/etc/apache2/htdocs'
p1118
asbasbasbag56
(g72
g58
NtRp1119
(dp1120
g61
(dp1121
sg70
g1006
sg63
(lp1122
g56
(g77
g58
NtRp1123
(dp1124
g61
(dp1125
g81
g82
ssg70
g1119
sg63
(lp1126
S'gateway_interface'
p1127
asbag56
(g77
g58
NtRp1128
(dp1129
g61
(dp1130
g88
g89
ssg70
g1119
sg63
(lp1131
S':'
asbag56
(g77
g58
NtRp1132
(dp1133
g61
(dp1134
sg70
g1119
sg63
(lp1135
g56
(g57
g58
NtRp1136
(dp1137
g61
(dp1138
g69
I4
ssg70
g1132
sg63
(lp1139
S'CGI/1.1'
p1140
asbasbasbag56
(g72
g58
NtRp1141
(dp1142
g61
(dp1143
sg70
g1006
sg63
(lp1144
g56
(g77
g58
NtRp1145
(dp1146
g61
(dp1147
g81
g82
ssg70
g1141
sg63
(lp1148
S'gluon_parent'
p1149
asbag56
(g77
g58
NtRp1150
(dp1151
g61
(dp1152
g88
g89
ssg70
g1141
sg63
(lp1153
S':'
asbag56
(g77
g58
NtRp1154
(dp1155
g61
(dp1156
sg70
g1141
sg63
(lp1157
g56
(g57
g58
NtRp1158
(dp1159
g61
(dp1160
g69
I4
ssg70
g1154
sg63
(lp1161
g1053
asbasbasbag56
(g72
g58
NtRp1162
(dp1163
g61
(dp1164
sg70
g1006
sg63
(lp1165
g56
(g77
g58
NtRp1166
(dp1167
g61
(dp1168
g81
g82
ssg70
g1162
sg63
(lp1169
S'http_accept'
p1170
asbag56
(g77
g58
NtRp1171
(dp1172
g61
(dp1173
g88
g89
ssg70
g1162
sg63
(lp1174
S':'
asbag56
(g77
g58
NtRp1175
(dp1176
g61
(dp1177
sg70
g1162
sg63
(lp1178
g56
(g57
g58
NtRp1179
(dp1180
g61
(dp1181
g69
I4
ssg70
g1175
sg63
(lp1182
S'text/html,application/xhtml+xml,application/xml;q=0.9,*/*;q=0.8'
p1183
asbasbasbag56
(g72
g58
NtRp1184
(dp1185
g61
(dp1186
sg70
g1006
sg63
(lp1187
g56
(g77
g58
NtRp1188
(dp1189
g61
(dp1190
g81
g82
ssg70
g1184
sg63
(lp1191
S'http_accept_charset'
p1192
asbag56
(g77
g58
NtRp1193
(dp1194
g61
(dp1195
g88
g89
ssg70
g1184
sg63
(lp1196
S':'
asbag56
(g77
g58
NtRp1197
(dp1198
g61
(dp1199
sg70
g1184
sg63
(lp1200
g56
(g57
g58
NtRp1201
(dp1202
g61
(dp1203
g69
I4
ssg70
g1197
sg63
(lp1204
S'ISO-8859-1,utf-8;q=0.7,*;q=0.3'
p1205
asbasbasbag56
(g72
g58
NtRp1206
(dp1207
g61
(dp1208
sg70
g1006
sg63
(lp1209
g56
(g77
g58
NtRp1210
(dp1211
g61
(dp1212
g81
g82
ssg70
g1206
sg63
(lp1213
S'http_accept_encoding'
p1214
asbag56
(g77
g58
NtRp1215
(dp1216
g61
(dp1217
g88
g89
ssg70
g1206
sg63
(lp1218
S':'
asbag56
(g77
g58
NtRp1219
(dp1220
g61
(dp1221
sg70
g1206
sg63
(lp1222
g56
(g57
g58
NtRp1223
(dp1224
g61
(dp1225
g69
I4
ssg70
g1219
sg63
(lp1226
S'gzip,deflate,sdch'
p1227
asbasbasbag56
(g72
g58
NtRp1228
(dp1229
g61
(dp1230
sg70
g1006
sg63
(lp1231
g56
(g77
g58
NtRp1232
(dp1233
g61
(dp1234
g81
g82
ssg70
g1228
sg63
(lp1235
S'http_accept_language'
p1236
asbag56
(g77
g58
NtRp1237
(dp1238
g61
(dp1239
g88
g89
ssg70
g1228
sg63
(lp1240
S':'
asbag56
(g77
g58
NtRp1241
(dp1242
g61
(dp1243
sg70
g1228
sg63
(lp1244
g56
(g57
g58
NtRp1245
(dp1246
g61
(dp1247
g69
I4
ssg70
g1241
sg63
(lp1248
S'en-US,en;q=0.8'
p1249
asbasbasbag56
(g72
g58
NtRp1250
(dp1251
g61
(dp1252
sg70
g1006
sg63
(lp1253
g56
(g77
g58
NtRp1254
(dp1255
g61
(dp1256
g81
g82
ssg70
g1250
sg63
(lp1257
S'http_cache_control'
p1258
asbag56
(g77
g58
NtRp1259
(dp1260
g61
(dp1261
g88
g89
ssg70
g1250
sg63
(lp1262
S':'
asbag56
(g77
g58
NtRp1263
(dp1264
g61
(dp1265
sg70
g1250
sg63
(lp1266
g56
(g57
g58
NtRp1267
(dp1268
g61
(dp1269
g69
I4
ssg70
g1263
sg63
(lp1270
S'max-age=0'
p1271
asbasbasbag56
(g72
g58
NtRp1272
(dp1273
g61
(dp1274
sg70
g1006
sg63
(lp1275
g56
(g77
g58
NtRp1276
(dp1277
g61
(dp1278
g81
g82
ssg70
g1272
sg63
(lp1279
S'http_connection'
p1280
asbag56
(g77
g58
NtRp1281
(dp1282
g61
(dp1283
g88
g89
ssg70
g1272
sg63
(lp1284
S':'
asbag56
(g77
g58
NtRp1285
(dp1286
g61
(dp1287
sg70
g1272
sg63
(lp1288
g56
(g57
g58
NtRp1289
(dp1290
g61
(dp1291
g69
I4
ssg70
g1285
sg63
(lp1292
S'keep-alive'
p1293
asbasbasbag56
(g72
g58
NtRp1294
(dp1295
g61
(dp1296
sg70
g1006
sg63
(lp1297
g56
(g77
g58
NtRp1298
(dp1299
g61
(dp1300
g81
g82
ssg70
g1294
sg63
(lp1301
S'http_cookie'
p1302
asbag56
(g77
g58
NtRp1303
(dp1304
g61
(dp1305
g88
g89
ssg70
g1294
sg63
(lp1306
S':'
asbag56
(g77
g58
NtRp1307
(dp1308
g61
(dp1309
sg70
g1294
sg63
(lp1310
g56
(g57
g58
NtRp1311
(dp1312
g61
(dp1313
g69
I4
ssg70
g1307
sg63
(lp1314
S'__utmz=231008458.1308780762.2.2.utmcsr=blog.ovi.com|utmccn=(referral)|utmcmd=referral|utmcct=/2011/06/17/architecture-buffs-win-an-n8-thanks-to-3d-maps/; __utma=231008458.31146925.1301686846.1308784518.1308821596.4; __utmz=123610009.1308848100.1.1.utmcsr=(direct)|utmccn=(direct)|utmcmd=(none); __utma=123610009.1990170896.1308848100.1308848100.1308848100.1; session_id_welcome=89.123.2.193-656c74cb-a5a1-41e4-ac1a-2010553e1f38; session_id_raredisss_devel=89.123.2.193-209ddbd2-47ad-4cdf-8ea3-23e3682363fd; session_id_rdcdss=89.123.2.193-4e1de357-5b7c-4409-92bc-12a58f0742b6; session_id_admin=89.123.2.193-c73a459b-d1a2-42c0-b456-303b7fd610ac'
p1315
asbasbasbag56
(g72
g58
NtRp1316
(dp1317
g61
(dp1318
sg70
g1006
sg63
(lp1319
g56
(g77
g58
NtRp1320
(dp1321
g61
(dp1322
g81
g82
ssg70
g1316
sg63
(lp1323
S'http_host'
p1324
asbag56
(g77
g58
NtRp1325
(dp1326
g61
(dp1327
g88
g89
ssg70
g1316
sg63
(lp1328
S':'
asbag56
(g77
g58
NtRp1329
(dp1330
g61
(dp1331
sg70
g1316
sg63
(lp1332
g56
(g57
g58
NtRp1333
(dp1334
g61
(dp1335
g69
I4
ssg70
g1329
sg63
(lp1336
S'costanza.dragusin.ro'
p1337
asbasbasbag56
(g72
g58
NtRp1338
(dp1339
g61
(dp1340
sg70
g1006
sg63
(lp1341
g56
(g77
g58
NtRp1342
(dp1343
g61
(dp1344
g81
g82
ssg70
g1338
sg63
(lp1345
S'http_user_agent'
p1346
asbag56
(g77
g58
NtRp1347
(dp1348
g61
(dp1349
g88
g89
ssg70
g1338
sg63
(lp1350
S':'
asbag56
(g77
g58
NtRp1351
(dp1352
g61
(dp1353
sg70
g1338
sg63
(lp1354
g56
(g57
g58
NtRp1355
(dp1356
g61
(dp1357
g69
I4
ssg70
g1351
sg63
(lp1358
S'Mozilla/5.0 (Macintosh; Intel Mac OS X 10_6_8) AppleWebKit/534.30 (KHTML, like Gecko) Chrome/12.0.742.112 Safari/534.30'
p1359
asbasbasbag56
(g72
g58
NtRp1360
(dp1361
g61
(dp1362
sg70
g1006
sg63
(lp1363
g56
(g77
g58
NtRp1364
(dp1365
g61
(dp1366
g81
g82
ssg70
g1360
sg63
(lp1367
S'https'
p1368
asbag56
(g77
g58
NtRp1369
(dp1370
g61
(dp1371
g88
g89
ssg70
g1360
sg63
(lp1372
S':'
asbag56
(g77
g58
NtRp1373
(dp1374
g61
(dp1375
sg70
g1360
sg63
(lp1376
g56
(g57
g58
NtRp1377
(dp1378
g61
(dp1379
g69
I4
ssg70
g1373
sg63
(lp1380
S'1'
asbasbasbag56
(g72
g58
NtRp1381
(dp1382
g61
(dp1383
sg70
g1006
sg63
(lp1384
g56
(g77
g58
NtRp1385
(dp1386
g61
(dp1387
g81
g82
ssg70
g1381
sg63
(lp1388
S'mod_wsgi_application_group'
p1389
asbag56
(g77
g58
NtRp1390
(dp1391
g61
(dp1392
g88
g89
ssg70
g1381
sg63
(lp1393
S':'
asbag56
(g77
g58
NtRp1394
(dp1395
g61
(dp1396
sg70
g1381
sg63
(lp1397
g56
(g57
g58
NtRp1398
(dp1399
g61
(dp1400
g69
I4
ssg70
g1394
sg63
(lp1401
S'109.169.46.204|'
p1402
asbasbasbag56
(g72
g58
NtRp1403
(dp1404
g61
(dp1405
sg70
g1006
sg63
(lp1406
g56
(g77
g58
NtRp1407
(dp1408
g61
(dp1409
g81
g82
ssg70
g1403
sg63
(lp1410
S'mod_wsgi_callable_object'
p1411
asbag56
(g77
g58
NtRp1412
(dp1413
g61
(dp1414
g88
g89
ssg70
g1403
sg63
(lp1415
S':'
asbag56
(g77
g58
NtRp1416
(dp1417
g61
(dp1418
sg70
g1403
sg63
(lp1419
g56
(g57
g58
NtRp1420
(dp1421
g61
(dp1422
g69
I4
ssg70
g1416
sg63
(lp1423
S'application'
p1424
asbasbasbag56
(g72
g58
NtRp1425
(dp1426
g61
(dp1427
sg70
g1006
sg63
(lp1428
g56
(g77
g58
NtRp1429
(dp1430
g61
(dp1431
g81
g82
ssg70
g1425
sg63
(lp1432
S'mod_wsgi_handler_script'
p1433
asbag56
(g77
g58
NtRp1434
(dp1435
g61
(dp1436
g88
g89
ssg70
g1425
sg63
(lp1437
S':'
asbag56
(g77
g58
NtRp1438
(dp1439
g61
(dp1440
sg70
g1425
sg63
(lp1441
g56
(g57
g58
NtRp1442
(dp1443
g61
(dp1444
g69
I4
ssg70
g1438
sg63
(lp1445
S''
asbasbasbag56
(g72
g58
NtRp1446
(dp1447
g61
(dp1448
sg70
g1006
sg63
(lp1449
g56
(g77
g58
NtRp1450
(dp1451
g61
(dp1452
g81
g82
ssg70
g1446
sg63
(lp1453
S'mod_wsgi_input_chunked'
p1454
asbag56
(g77
g58
NtRp1455
(dp1456
g61
(dp1457
g88
g89
ssg70
g1446
sg63
(lp1458
S':'
asbag56
(g77
g58
NtRp1459
(dp1460
g61
(dp1461
sg70
g1446
sg63
(lp1462
g56
(g57
g58
NtRp1463
(dp1464
g61
(dp1465
g69
I4
ssg70
g1459
sg63
(lp1466
S'0'
asbasbasbag56
(g72
g58
NtRp1467
(dp1468
g61
(dp1469
sg70
g1006
sg63
(lp1470
g56
(g77
g58
NtRp1471
(dp1472
g61
(dp1473
g81
g82
ssg70
g1467
sg63
(lp1474
S'mod_wsgi_listener_host'
p1475
asbag56
(g77
g58
NtRp1476
(dp1477
g61
(dp1478
g88
g89
ssg70
g1467
sg63
(lp1479
S':'
asbag56
(g77
g58
NtRp1480
(dp1481
g61
(dp1482
sg70
g1467
sg63
(lp1483
g56
(g57
g58
NtRp1484
(dp1485
g61
(dp1486
g69
I4
ssg70
g1480
sg63
(lp1487
S''
asbasbasbag56
(g72
g58
NtRp1488
(dp1489
g61
(dp1490
sg70
g1006
sg63
(lp1491
g56
(g77
g58
NtRp1492
(dp1493
g61
(dp1494
g81
g82
ssg70
g1488
sg63
(lp1495
S'mod_wsgi_listener_port'
p1496
asbag56
(g77
g58
NtRp1497
(dp1498
g61
(dp1499
g88
g89
ssg70
g1488
sg63
(lp1500
S':'
asbag56
(g77
g58
NtRp1501
(dp1502
g61
(dp1503
sg70
g1488
sg63
(lp1504
g56
(g57
g58
NtRp1505
(dp1506
g61
(dp1507
g69
I4
ssg70
g1501
sg63
(lp1508
S'443'
p1509
asbasbasbag56
(g72
g58
NtRp1510
(dp1511
g61
(dp1512
sg70
g1006
sg63
(lp1513
g56
(g77
g58
NtRp1514
(dp1515
g61
(dp1516
g81
g82
ssg70
g1510
sg63
(lp1517
S'mod_wsgi_process_group'
p1518
asbag56
(g77
g58
NtRp1519
(dp1520
g61
(dp1521
g88
g89
ssg70
g1510
sg63
(lp1522
S':'
asbag56
(g77
g58
NtRp1523
(dp1524
g61
(dp1525
sg70
g1510
sg63
(lp1526
g56
(g57
g58
NtRp1527
(dp1528
g61
(dp1529
g69
I4
ssg70
g1523
sg63
(lp1530
S'web2py'
p1531
asbasbasbag56
(g72
g58
NtRp1532
(dp1533
g61
(dp1534
sg70
g1006
sg63
(lp1535
g56
(g77
g58
NtRp1536
(dp1537
g61
(dp1538
g81
g82
ssg70
g1532
sg63
(lp1539
S'mod_wsgi_request_handler'
p1540
asbag56
(g77
g58
NtRp1541
(dp1542
g61
(dp1543
g88
g89
ssg70
g1532
sg63
(lp1544
S':'
asbag56
(g77
g58
NtRp1545
(dp1546
g61
(dp1547
sg70
g1532
sg63
(lp1548
g56
(g57
g58
NtRp1549
(dp1550
g61
(dp1551
g69
I4
ssg70
g1545
sg63
(lp1552
S'wsgi-script'
p1553
asbasbasbag56
(g72
g58
NtRp1554
(dp1555
g61
(dp1556
sg70
g1006
sg63
(lp1557
g56
(g77
g58
NtRp1558
(dp1559
g61
(dp1560
g81
g82
ssg70
g1554
sg63
(lp1561
S'mod_wsgi_script_reloading'
p1562
asbag56
(g77
g58
NtRp1563
(dp1564
g61
(dp1565
g88
g89
ssg70
g1554
sg63
(lp1566
S':'
asbag56
(g77
g58
NtRp1567
(dp1568
g61
(dp1569
sg70
g1554
sg63
(lp1570
g56
(g57
g58
NtRp1571
(dp1572
g61
(dp1573
g69
I4
ssg70
g1567
sg63
(lp1574
S'1'
asbasbasbag56
(g72
g58
NtRp1575
(dp1576
g61
(dp1577
sg70
g1006
sg63
(lp1578
g56
(g77
g58
NtRp1579
(dp1580
g61
(dp1581
g81
g82
ssg70
g1575
sg63
(lp1582
S'mod_wsgi_version'
p1583
asbag56
(g77
g58
NtRp1584
(dp1585
g61
(dp1586
g88
g89
ssg70
g1575
sg63
(lp1587
S':'
asbag56
(g77
g58
NtRp1588
(dp1589
g61
(dp1590
sg70
g1575
sg63
(lp1591
g56
(g57
g58
NtRp1592
(dp1593
g61
(dp1594
g69
I4
ssg70
g1588
sg63
(lp1595
g56
(g65
g58
NtRp1596
(dp1597
g61
(dp1598
g69
I3
ssg70
Nsg63
(lp1599
g56
(g72
g58
NtRp1600
(dp1601
g61
(dp1602
sg70
g1596
sg63
(lp1603
g56
(g77
g58
NtRp1604
(dp1605
g61
(dp1606
sg70
g1600
sg63
(lp1607
g56
(g57
g58
NtRp1608
(dp1609
g61
(dp1610
g69
I3
ssg70
g1604
sg63
(lp1611
S'3'
asbasbasbag56
(g72
g58
NtRp1612
(dp1613
g61
(dp1614
sg70
g1596
sg63
(lp1615
g56
(g77
g58
NtRp1616
(dp1617
g61
(dp1618
sg70
g1612
sg63
(lp1619
g56
(g57
g58
NtRp1620
(dp1621
g61
(dp1622
g69
I3
ssg70
g1616
sg63
(lp1623
S'2'
asbasbasbasbasbasbasbag56
(g72
g58
NtRp1624
(dp1625
g61
(dp1626
sg70
g1006
sg63
(lp1627
g56
(g77
g58
NtRp1628
(dp1629
g61
(dp1630
g81
g82
ssg70
g1624
sg63
(lp1631
S'path_info'
p1632
asbag56
(g77
g58
NtRp1633
(dp1634
g61
(dp1635
g88
g89
ssg70
g1624
sg63
(lp1636
S':'
asbag56
(g77
g58
NtRp1637
(dp1638
g61
(dp1639
sg70
g1624
sg63
(lp1640
g56
(g57
g58
NtRp1641
(dp1642
g61
(dp1643
g69
I4
ssg70
g1637
sg63
(lp1644
S'/rdcdss/default/index.pdf'
p1645
asbasbasbag56
(g72
g58
NtRp1646
(dp1647
g61
(dp1648
sg70
g1006
sg63
(lp1649
g56
(g77
g58
NtRp1650
(dp1651
g61
(dp1652
g81
g82
ssg70
g1646
sg63
(lp1653
S'path_translated'
p1654
asbag56
(g77
g58
NtRp1655
(dp1656
g61
(dp1657
g88
g89
ssg70
g1646
sg63
(lp1658
S':'
asbag56
(g77
g58
NtRp1659
(dp1660
g61
(dp1661
sg70
g1646
sg63
(lp1662
g56
(g57
g58
NtRp1663
(dp1664
g61
(dp1665
g69
I4
ssg70
g1659
sg63
(lp1666
S'/home/www-data/web2py/wsgihandler.py/rdcdss/default/index.pdf'
p1667
asbasbasbag56
(g72
g58
NtRp1668
(dp1669
g61
(dp1670
sg70
g1006
sg63
(lp1671
g56
(g77
g58
NtRp1672
(dp1673
g61
(dp1674
g81
g82
ssg70
g1668
sg63
(lp1675
S'query_string'
p1676
asbag56
(g77
g58
NtRp1677
(dp1678
g61
(dp1679
g88
g89
ssg70
g1668
sg63
(lp1680
S':'
asbag56
(g77
g58
NtRp1681
(dp1682
g61
(dp1683
sg70
g1668
sg63
(lp1684
g56
(g57
g58
NtRp1685
(dp1686
g61
(dp1687
g69
I4
ssg70
g1681
sg63
(lp1688
S''
asbasbasbag56
(g72
g58
NtRp1689
(dp1690
g61
(dp1691
sg70
g1006
sg63
(lp1692
g56
(g77
g58
NtRp1693
(dp1694
g61
(dp1695
g81
g82
ssg70
g1689
sg63
(lp1696
S'remote_addr'
p1697
asbag56
(g77
g58
NtRp1698
(dp1699
g61
(dp1700
g88
g89
ssg70
g1689
sg63
(lp1701
S':'
asbag56
(g77
g58
NtRp1702
(dp1703
g61
(dp1704
sg70
g1689
sg63
(lp1705
g56
(g57
g58
NtRp1706
(dp1707
g61
(dp1708
g69
I4
ssg70
g1702
sg63
(lp1709
g189
asbasbasbag56
(g72
g58
NtRp1710
(dp1711
g61
(dp1712
sg70
g1006
sg63
(lp1713
g56
(g77
g58
NtRp1714
(dp1715
g61
(dp1716
g81
g82
ssg70
g1710
sg63
(lp1717
S'remote_port'
p1718
asbag56
(g77
g58
NtRp1719
(dp1720
g61
(dp1721
g88
g89
ssg70
g1710
sg63
(lp1722
S':'
asbag56
(g77
g58
NtRp1723
(dp1724
g61
(dp1725
sg70
g1710
sg63
(lp1726
g56
(g57
g58
NtRp1727
(dp1728
g61
(dp1729
g69
I4
ssg70
g1723
sg63
(lp1730
S'59881'
p1731
asbasbasbag56
(g72
g58
NtRp1732
(dp1733
g61
(dp1734
sg70
g1006
sg63
(lp1735
g56
(g77
g58
NtRp1736
(dp1737
g61
(dp1738
g81
g82
ssg70
g1732
sg63
(lp1739
S'request_method'
p1740
asbag56
(g77
g58
NtRp1741
(dp1742
g61
(dp1743
g88
g89
ssg70
g1732
sg63
(lp1744
S':'
asbag56
(g77
g58
NtRp1745
(dp1746
g61
(dp1747
sg70
g1732
sg63
(lp1748
g56
(g57
g58
NtRp1749
(dp1750
g61
(dp1751
g69
I4
ssg70
g1745
sg63
(lp1752
S'GET'
p1753
asbasbasbag56
(g72
g58
NtRp1754
(dp1755
g61
(dp1756
sg70
g1006
sg63
(lp1757
g56
(g77
g58
NtRp1758
(dp1759
g61
(dp1760
g81
g82
ssg70
g1754
sg63
(lp1761
S'request_uri'
p1762
asbag56
(g77
g58
NtRp1763
(dp1764
g61
(dp1765
g88
g89
ssg70
g1754
sg63
(lp1766
S':'
asbag56
(g77
g58
NtRp1767
(dp1768
g61
(dp1769
sg70
g1754
sg63
(lp1770
g56
(g57
g58
NtRp1771
(dp1772
g61
(dp1773
g69
I4
ssg70
g1767
sg63
(lp1774
S'/rdcdss/default/index.pdf'
p1775
asbasbasbag56
(g72
g58
NtRp1776
(dp1777
g61
(dp1778
sg70
g1006
sg63
(lp1779
g56
(g77
g58
NtRp1780
(dp1781
g61
(dp1782
g81
g82
ssg70
g1776
sg63
(lp1783
S'script_filename'
p1784
asbag56
(g77
g58
NtRp1785
(dp1786
g61
(dp1787
g88
g89
ssg70
g1776
sg63
(lp1788
S':'
asbag56
(g77
g58
NtRp1789
(dp1790
g61
(dp1791
sg70
g1776
sg63
(lp1792
g56
(g57
g58
NtRp1793
(dp1794
g61
(dp1795
g69
I4
ssg70
g1789
sg63
(lp1796
S'/home/www-data/web2py/wsgihandler.py'
p1797
asbasbasbag56
(g72
g58
NtRp1798
(dp1799
g61
(dp1800
sg70
g1006
sg63
(lp1801
g56
(g77
g58
NtRp1802
(dp1803
g61
(dp1804
g81
g82
ssg70
g1798
sg63
(lp1805
S'script_name'
p1806
asbag56
(g77
g58
NtRp1807
(dp1808
g61
(dp1809
g88
g89
ssg70
g1798
sg63
(lp1810
S':'
asbag56
(g77
g58
NtRp1811
(dp1812
g61
(dp1813
sg70
g1798
sg63
(lp1814
g56
(g57
g58
NtRp1815
(dp1816
g61
(dp1817
g69
I4
ssg70
g1811
sg63
(lp1818
S''
asbasbasbag56
(g72
g58
NtRp1819
(dp1820
g61
(dp1821
sg70
g1006
sg63
(lp1822
g56
(g77
g58
NtRp1823
(dp1824
g61
(dp1825
g81
g82
ssg70
g1819
sg63
(lp1826
S'server_addr'
p1827
asbag56
(g77
g58
NtRp1828
(dp1829
g61
(dp1830
g88
g89
ssg70
g1819
sg63
(lp1831
S':'
asbag56
(g77
g58
NtRp1832
(dp1833
g61
(dp1834
sg70
g1819
sg63
(lp1835
g56
(g57
g58
NtRp1836
(dp1837
g61
(dp1838
g69
I4
ssg70
g1832
sg63
(lp1839
S'109.169.46.204'
p1840
asbasbasbag56
(g72
g58
NtRp1841
(dp1842
g61
(dp1843
sg70
g1006
sg63
(lp1844
g56
(g77
g58
NtRp1845
(dp1846
g61
(dp1847
g81
g82
ssg70
g1841
sg63
(lp1848
S'server_admin'
p1849
asbag56
(g77
g58
NtRp1850
(dp1851
g61
(dp1852
g88
g89
ssg70
g1841
sg63
(lp1853
S':'
asbag56
(g77
g58
NtRp1854
(dp1855
g61
(dp1856
sg70
g1841
sg63
(lp1857
g56
(g57
g58
NtRp1858
(dp1859
g61
(dp1860
g69
I4
ssg70
g1854
sg63
(lp1861
S'[no address given]'
p1862
asbasbasbag56
(g72
g58
NtRp1863
(dp1864
g61
(dp1865
sg70
g1006
sg63
(lp1866
g56
(g77
g58
NtRp1867
(dp1868
g61
(dp1869
g81
g82
ssg70
g1863
sg63
(lp1870
S'server_name'
p1871
asbag56
(g77
g58
NtRp1872
(dp1873
g61
(dp1874
g88
g89
ssg70
g1863
sg63
(lp1875
S':'
asbag56
(g77
g58
NtRp1876
(dp1877
g61
(dp1878
sg70
g1863
sg63
(lp1879
g56
(g57
g58
NtRp1880
(dp1881
g61
(dp1882
g69
I4
ssg70
g1876
sg63
(lp1883
S'costanza.dragusin.ro'
p1884
asbasbasbag56
(g72
g58
NtRp1885
(dp1886
g61
(dp1887
sg70
g1006
sg63
(lp1888
g56
(g77
g58
NtRp1889
(dp1890
g61
(dp1891
g81
g82
ssg70
g1885
sg63
(lp1892
S'server_port'
p1893
asbag56
(g77
g58
NtRp1894
(dp1895
g61
(dp1896
g88
g89
ssg70
g1885
sg63
(lp1897
S':'
asbag56
(g77
g58
NtRp1898
(dp1899
g61
(dp1900
sg70
g1885
sg63
(lp1901
g56
(g57
g58
NtRp1902
(dp1903
g61
(dp1904
g69
I4
ssg70
g1898
sg63
(lp1905
S'443'
p1906
asbasbasbag56
(g72
g58
NtRp1907
(dp1908
g61
(dp1909
sg70
g1006
sg63
(lp1910
g56
(g77
g58
NtRp1911
(dp1912
g61
(dp1913
g81
g82
ssg70
g1907
sg63
(lp1914
S'server_protocol'
p1915
asbag56
(g77
g58
NtRp1916
(dp1917
g61
(dp1918
g88
g89
ssg70
g1907
sg63
(lp1919
S':'
asbag56
(g77
g58
NtRp1920
(dp1921
g61
(dp1922
sg70
g1907
sg63
(lp1923
g56
(g57
g58
NtRp1924
(dp1925
g61
(dp1926
g69
I4
ssg70
g1920
sg63
(lp1927
S'HTTP/1.1'
p1928
asbasbasbag56
(g72
g58
NtRp1929
(dp1930
g61
(dp1931
sg70
g1006
sg63
(lp1932
g56
(g77
g58
NtRp1933
(dp1934
g61
(dp1935
g81
g82
ssg70
g1929
sg63
(lp1936
S'server_signature'
p1937
asbag56
(g77
g58
NtRp1938
(dp1939
g61
(dp1940
g88
g89
ssg70
g1929
sg63
(lp1941
S':'
asbag56
(g77
g58
NtRp1942
(dp1943
g61
(dp1944
sg70
g1929
sg63
(lp1945
g56
(g57
g58
NtRp1946
(dp1947
g61
(dp1948
g69
I4
ssg70
g1942
sg63
(lp1949
S'<address>Apache/2.2.16 (Ubuntu) Server at costanza.dragusin.ro Port 443</address>\n'
p1950
asbasbasbag56
(g72
g58
NtRp1951
(dp1952
g61
(dp1953
sg70
g1006
sg63
(lp1954
g56
(g77
g58
NtRp1955
(dp1956
g61
(dp1957
g81
g82
ssg70
g1951
sg63
(lp1958
S'server_software'
p1959
asbag56
(g77
g58
NtRp1960
(dp1961
g61
(dp1962
g88
g89
ssg70
g1951
sg63
(lp1963
S':'
asbag56
(g77
g58
NtRp1964
(dp1965
g61
(dp1966
sg70
g1951
sg63
(lp1967
g56
(g57
g58
NtRp1968
(dp1969
g61
(dp1970
g69
I4
ssg70
g1964
sg63
(lp1971
S'Apache/2.2.16 (Ubuntu)'
p1972
asbasbasbag56
(g72
g58
NtRp1973
(dp1974
g61
(dp1975
sg70
g1006
sg63
(lp1976
g56
(g77
g58
NtRp1977
(dp1978
g61
(dp1979
g81
g82
ssg70
g1973
sg63
(lp1980
S'ssl_tls_sni'
p1981
asbag56
(g77
g58
NtRp1982
(dp1983
g61
(dp1984
g88
g89
ssg70
g1973
sg63
(lp1985
S':'
asbag56
(g77
g58
NtRp1986
(dp1987
g61
(dp1988
sg70
g1973
sg63
(lp1989
g56
(g57
g58
NtRp1990
(dp1991
g61
(dp1992
g69
I4
ssg70
g1986
sg63
(lp1993
S'costanza.dragusin.ro'
p1994
asbasbasbag56
(g72
g58
NtRp1995
(dp1996
g61
(dp1997
sg70
g1006
sg63
(lp1998
g56
(g77
g58
NtRp1999
(dp2000
g61
(dp2001
g81
g82
ssg70
g1995
sg63
(lp2002
S'web2py_path'
p2003
asbag56
(g77
g58
NtRp2004
(dp2005
g61
(dp2006
g88
g89
ssg70
g1995
sg63
(lp2007
S':'
asbag56
(g77
g58
NtRp2008
(dp2009
g61
(dp2010
sg70
g1995
sg63
(lp2011
g56
(g57
g58
NtRp2012
(dp2013
g61
(dp2014
g69
I4
ssg70
g2008
sg63
(lp2015
g1053
asbasbasbag56
(g72
g58
NtRp2016
(dp2017
g61
(dp2018
sg70
g1006
sg63
(lp2019
g56
(g77
g58
NtRp2020
(dp2021
g61
(dp2022
g81
g82
ssg70
g2016
sg63
(lp2023
S'web2py_version'
p2024
asbag56
(g77
g58
NtRp2025
(dp2026
g61
(dp2027
g88
g89
ssg70
g2016
sg63
(lp2028
S':'
asbag56
(g77
g58
NtRp2029
(dp2030
g61
(dp2031
sg70
g2016
sg63
(lp2032
g56
(g57
g58
NtRp2033
(dp2034
g61
(dp2035
g69
I4
ssg70
g2029
sg63
(lp2036
S'Version 1.95.1 (2011-04-25 15:04:14)\n'
p2037
asbasbasbag56
(g72
g58
NtRp2038
(dp2039
g61
(dp2040
sg70
g1006
sg63
(lp2041
g56
(g77
g58
NtRp2042
(dp2043
g61
(dp2044
g81
g82
ssg70
g2038
sg63
(lp2045
S'wsgi_errors'
p2046
asbag56
(g77
g58
NtRp2047
(dp2048
g61
(dp2049
g88
g89
ssg70
g2038
sg63
(lp2050
S':'
asbag56
(g77
g58
NtRp2051
(dp2052
g61
(dp2053
sg70
g2038
sg63
(lp2054
g56
(g57
g58
NtRp2055
(dp2056
g61
(dp2057
g69
I4
ssg70
g2051
sg63
(lp2058
S'<mod_wsgi.Log object at 0x2b9bdb846930>'
p2059
asbasbasbag56
(g72
g58
NtRp2060
(dp2061
g61
(dp2062
sg70
g1006
sg63
(lp2063
g56
(g77
g58
NtRp2064
(dp2065
g61
(dp2066
g81
g82
ssg70
g2060
sg63
(lp2067
S'wsgi_file_wrapper'
p2068
asbag56
(g77
g58
NtRp2069
(dp2070
g61
(dp2071
g88
g89
ssg70
g2060
sg63
(lp2072
S':'
asbag56
(g77
g58
NtRp2073
(dp2074
g61
(dp2075
sg70
g2060
sg63
(lp2076
g56
(g57
g58
NtRp2077
(dp2078
g61
(dp2079
g69
I4
ssg70
g2073
sg63
(lp2080
S'<built-in method file_wrapper of mod_wsgi.Adapter object at 0x2b9bdb7a7eb8>'
p2081
asbasbasbag56
(g72
g58
NtRp2082
(dp2083
g61
(dp2084
sg70
g1006
sg63
(lp2085
g56
(g77
g58
NtRp2086
(dp2087
g61
(dp2088
g81
g82
ssg70
g2082
sg63
(lp2089
S'wsgi_input'
p2090
asbag56
(g77
g58
NtRp2091
(dp2092
g61
(dp2093
g88
g89
ssg70
g2082
sg63
(lp2094
S':'
asbag56
(g77
g58
NtRp2095
(dp2096
g61
(dp2097
sg70
g2082
sg63
(lp2098
g56
(g57
g58
NtRp2099
(dp2100
g61
(dp2101
g69
I4
ssg70
g2095
sg63
(lp2102
S'<mod_wsgi.Input object at 0x2b9be06babf0>'
p2103
asbasbasbag56
(g72
g58
NtRp2104
(dp2105
g61
(dp2106
sg70
g1006
sg63
(lp2107
g56
(g77
g58
NtRp2108
(dp2109
g61
(dp2110
g81
g82
ssg70
g2104
sg63
(lp2111
S'wsgi_multiprocess'
p2112
asbag56
(g77
g58
NtRp2113
(dp2114
g61
(dp2115
g88
g89
ssg70
g2104
sg63
(lp2116
S':'
asbag56
(g77
g58
NtRp2117
(dp2118
g61
(dp2119
sg70
g2104
sg63
(lp2120
g56
(g57
g58
NtRp2121
(dp2122
g61
(dp2123
g69
I4
ssg70
g2117
sg63
(lp2124
g99
asbasbasbag56
(g72
g58
NtRp2125
(dp2126
g61
(dp2127
sg70
g1006
sg63
(lp2128
g56
(g77
g58
NtRp2129
(dp2130
g61
(dp2131
g81
g82
ssg70
g2125
sg63
(lp2132
S'wsgi_multithread'
p2133
asbag56
(g77
g58
NtRp2134
(dp2135
g61
(dp2136
g88
g89
ssg70
g2125
sg63
(lp2137
S':'
asbag56
(g77
g58
NtRp2138
(dp2139
g61
(dp2140
sg70
g2125
sg63
(lp2141
g56
(g57
g58
NtRp2142
(dp2143
g61
(dp2144
g69
I4
ssg70
g2138
sg63
(lp2145
S'True'
p2146
asbasbasbag56
(g72
g58
NtRp2147
(dp2148
g61
(dp2149
sg70
g1006
sg63
(lp2150
g56
(g77
g58
NtRp2151
(dp2152
g61
(dp2153
g81
g82
ssg70
g2147
sg63
(lp2154
S'wsgi_run_once'
p2155
asbag56
(g77
g58
NtRp2156
(dp2157
g61
(dp2158
g88
g89
ssg70
g2147
sg63
(lp2159
S':'
asbag56
(g77
g58
NtRp2160
(dp2161
g61
(dp2162
sg70
g2147
sg63
(lp2163
g56
(g57
g58
NtRp2164
(dp2165
g61
(dp2166
g69
I4
ssg70
g2160
sg63
(lp2167
g99
asbasbasbag56
(g72
g58
NtRp2168
(dp2169
g61
(dp2170
sg70
g1006
sg63
(lp2171
g56
(g77
g58
NtRp2172
(dp2173
g61
(dp2174
g81
g82
ssg70
g2168
sg63
(lp2175
S'wsgi_url_scheme'
p2176
asbag56
(g77
g58
NtRp2177
(dp2178
g61
(dp2179
g88
g89
ssg70
g2168
sg63
(lp2180
S':'
asbag56
(g77
g58
NtRp2181
(dp2182
g61
(dp2183
sg70
g2168
sg63
(lp2184
g56
(g57
g58
NtRp2185
(dp2186
g61
(dp2187
g69
I4
ssg70
g2181
sg63
(lp2188
S'https'
p2189
asbasbasbag56
(g72
g58
NtRp2190
(dp2191
g61
(dp2192
sg70
g1006
sg63
(lp2193
g56
(g77
g58
NtRp2194
(dp2195
g61
(dp2196
g81
g82
ssg70
g2190
sg63
(lp2197
S'wsgi_version'
p2198
asbag56
(g77
g58
NtRp2199
(dp2200
g61
(dp2201
g88
g89
ssg70
g2190
sg63
(lp2202
S':'
asbag56
(g77
g58
NtRp2203
(dp2204
g61
(dp2205
sg70
g2190
sg63
(lp2206
g56
(g57
g58
NtRp2207
(dp2208
g61
(dp2209
g69
I4
ssg70
g2203
sg63
(lp2210
g56
(g65
g58
NtRp2211
(dp2212
g61
(dp2213
g69
I3
ssg70
Nsg63
(lp2214
g56
(g72
g58
NtRp2215
(dp2216
g61
(dp2217
sg70
g2211
sg63
(lp2218
g56
(g77
g58
NtRp2219
(dp2220
g61
(dp2221
sg70
g2215
sg63
(lp2222
g56
(g57
g58
NtRp2223
(dp2224
g61
(dp2225
g69
I3
ssg70
g2219
sg63
(lp2226
S'1'
asbasbasbag56
(g72
g58
NtRp2227
(dp2228
g61
(dp2229
sg70
g2211
sg63
(lp2230
g56
(g77
g58
NtRp2231
(dp2232
g61
(dp2233
sg70
g2227
sg63
(lp2234
g56
(g57
g58
NtRp2235
(dp2236
g61
(dp2237
g69
I3
ssg70
g2231
sg63
(lp2238
S'1'
asbasbasbasbasbasbasbasbasbasbasbag56
(g72
g58
NtRp2239
(dp2240
g61
(dp2241
sg70
g66
sg63
(lp2242
g56
(g77
g58
NtRp2243
(dp2244
g61
(dp2245
g81
g82
ssg70
g2239
sg63
(lp2246
S'extension'
p2247
asbag56
(g77
g58
NtRp2248
(dp2249
g61
(dp2250
g88
g89
ssg70
g2239
sg63
(lp2251
S':'
asbag56
(g77
g58
NtRp2252
(dp2253
g61
(dp2254
sg70
g2239
sg63
(lp2255
g56
(g57
g58
NtRp2256
(dp2257
g61
(dp2258
g69
I5
ssg70
g2252
sg63
(lp2259
S'pdf'
p2260
asbasbasbag56
(g72
g58
NtRp2261
(dp2262
g61
(dp2263
sg70
g66
sg63
(lp2264
g56
(g77
g58
NtRp2265
(dp2266
g61
(dp2267
g81
g82
ssg70
g2261
sg63
(lp2268
S'folder'
p2269
asbag56
(g77
g58
NtRp2270
(dp2271
g61
(dp2272
g88
g89
ssg70
g2261
sg63
(lp2273
S':'
asbag56
(g77
g58
NtRp2274
(dp2275
g61
(dp2276
sg70
g2261
sg63
(lp2277
g56
(g57
g58
NtRp2278
(dp2279
g61
(dp2280
g69
I5
ssg70
g2274
sg63
(lp2281
S'/home/www-data/web2py/applications/rdcdss/'
p2282
asbasbasbag56
(g72
g58
NtRp2283
(dp2284
g61
(dp2285
sg70
g66
sg63
(lp2286
g56
(g77
g58
NtRp2287
(dp2288
g61
(dp2289
g81
g82
ssg70
g2283
sg63
(lp2290
S'function'
p2291
asbag56
(g77
g58
NtRp2292
(dp2293
g61
(dp2294
g88
g89
ssg70
g2283
sg63
(lp2295
S':'
asbag56
(g77
g58
NtRp2296
(dp2297
g61
(dp2298
sg70
g2283
sg63
(lp2299
g56
(g57
g58
NtRp2300
(dp2301
g61
(dp2302
g69
I5
ssg70
g2296
sg63
(lp2303
S'index'
p2304
asbasbasbag56
(g72
g58
NtRp2305
(dp2306
g61
(dp2307
sg70
g66
sg63
(lp2308
g56
(g77
g58
NtRp2309
(dp2310
g61
(dp2311
g81
g82
ssg70
g2305
sg63
(lp2312
S'get_vars'
p2313
asbag56
(g77
g58
NtRp2314
(dp2315
g61
(dp2316
g88
g89
ssg70
g2305
sg63
(lp2317
S':'
asbag56
(g77
g58
NtRp2318
(dp2319
g61
(dp2320
sg70
g2305
sg63
(lp2321
g56
(g57
g58
NtRp2322
(dp2323
g61
(dp2324
g69
I5
ssg70
g2318
sg63
(lp2325
g56
(g65
g58
NtRp2326
(dp2327
g61
(dp2328
g69
I4
ssg70
Nsg63
(lp2329
sbasbasbasbag56
(g72
g58
NtRp2330
(dp2331
g61
(dp2332
sg70
g66
sg63
(lp2333
g56
(g77
g58
NtRp2334
(dp2335
g61
(dp2336
g81
g82
ssg70
g2330
sg63
(lp2337
S'is_restful'
p2338
asbag56
(g77
g58
NtRp2339
(dp2340
g61
(dp2341
g88
g89
ssg70
g2330
sg63
(lp2342
S':'
asbag56
(g77
g58
NtRp2343
(dp2344
g61
(dp2345
sg70
g2330
sg63
(lp2346
g56
(g57
g58
NtRp2347
(dp2348
g61
(dp2349
g69
I5
ssg70
g2343
sg63
(lp2350
g99
asbasbasbag56
(g72
g58
NtRp2351
(dp2352
g61
(dp2353
sg70
g66
sg63
(lp2354
g56
(g77
g58
NtRp2355
(dp2356
g61
(dp2357
g81
g82
ssg70
g2351
sg63
(lp2358
S'now'
p2359
asbag56
(g77
g58
NtRp2360
(dp2361
g61
(dp2362
g88
g89
ssg70
g2351
sg63
(lp2363
S':'
asbag56
(g77
g58
NtRp2364
(dp2365
g61
(dp2366
sg70
g2351
sg63
(lp2367
g56
(g57
g58
NtRp2368
(dp2369
g61
(dp2370
g69
I5
ssg70
g2364
sg63
(lp2371
S'datetime.datetime(2011, 6, 30, 19, 22, 5, 420458)'
p2372
asbasbasbag56
(g72
g58
NtRp2373
(dp2374
g61
(dp2375
sg70
g66
sg63
(lp2376
g56
(g77
g58
NtRp2377
(dp2378
g61
(dp2379
g81
g82
ssg70
g2373
sg63
(lp2380
S'post_vars'
p2381
asbag56
(g77
g58
NtRp2382
(dp2383
g61
(dp2384
g88
g89
ssg70
g2373
sg63
(lp2385
S':'
asbag56
(g77
g58
NtRp2386
(dp2387
g61
(dp2388
sg70
g2373
sg63
(lp2389
g56
(g57
g58
NtRp2390
(dp2391
g61
(dp2392
g69
I5
ssg70
g2386
sg63
(lp2393
g56
(g65
g58
NtRp2394
(dp2395
g61
(dp2396
g69
I4
ssg70
Nsg63
(lp2397
sbasbasbasbag56
(g72
g58
NtRp2398
(dp2399
g61
(dp2400
sg70
g66
sg63
(lp2401
g56
(g77
g58
NtRp2402
(dp2403
g61
(dp2404
g81
g82
ssg70
g2398
sg63
(lp2405
S'raw_extension'
p2406
asbag56
(g77
g58
NtRp2407
(dp2408
g61
(dp2409
g88
g89
ssg70
g2398
sg63
(lp2410
S':'
asbag56
(g77
g58
NtRp2411
(dp2412
g61
(dp2413
sg70
g2398
sg63
(lp2414
g56
(g57
g58
NtRp2415
(dp2416
g61
(dp2417
g69
I5
ssg70
g2411
sg63
(lp2418
g2260
asbasbasbag56
(g72
g58
NtRp2419
(dp2420
g61
(dp2421
sg70
g66
sg63
(lp2422
g56
(g77
g58
NtRp2423
(dp2424
g61
(dp2425
g81
g82
ssg70
g2419
sg63
(lp2426
S'url'
p2427
asbag56
(g77
g58
NtRp2428
(dp2429
g61
(dp2430
g88
g89
ssg70
g2419
sg63
(lp2431
S':'
asbag56
(g77
g58
NtRp2432
(dp2433
g61
(dp2434
sg70
g2419
sg63
(lp2435
g56
(g57
g58
NtRp2436
(dp2437
g61
(dp2438
g69
I5
ssg70
g2432
sg63
(lp2439
S'/rdcdss/default/index.pdf'
p2440
asbasbasbag56
(g72
g58
NtRp2441
(dp2442
g61
(dp2443
sg70
g66
sg63
(lp2444
g56
(g77
g58
NtRp2445
(dp2446
g61
(dp2447
g81
g82
ssg70
g2441
sg63
(lp2448
S'uuid'
p2449
asbag56
(g77
g58
NtRp2450
(dp2451
g61
(dp2452
g88
g89
ssg70
g2441
sg63
(lp2453
S':'
asbag56
(g77
g58
NtRp2454
(dp2455
g61
(dp2456
sg70
g2441
sg63
(lp2457
g56
(g57
g58
NtRp2458
(dp2459
g61
(dp2460
g69
I5
ssg70
g2454
sg63
(lp2461
S'rdcdss/89.123.2.193.2011-06-30.19-22-05.307f91ec-5dce-4d78-a477-605527d3d672'
p2462
asbasbasbag56
(g72
g58
NtRp2463
(dp2464
g61
(dp2465
sg70
g66
sg63
(lp2466
g56
(g77
g58
NtRp2467
(dp2468
g61
(dp2469
g81
g82
ssg70
g2463
sg63
(lp2470
S'vars'
p2471
asbag56
(g77
g58
NtRp2472
(dp2473
g61
(dp2474
g88
g89
ssg70
g2463
sg63
(lp2475
S':'
asbag56
(g77
g58
NtRp2476
(dp2477
g61
(dp2478
sg70
g2463
sg63
(lp2479
g56
(g57
g58
NtRp2480
(dp2481
g61
(dp2482
g69
I5
ssg70
g2476
sg63
(lp2483
g56
(g65
g58
NtRp2484
(dp2485
g61
(dp2486
g69
I4
ssg70
Nsg63
(lp2487
sbasbasbasbag56
(g72
g58
NtRp2488
(dp2489
g61
(dp2490
sg70
g66
sg63
(lp2491
g56
(g77
g58
NtRp2492
(dp2493
g61
(dp2494
g81
g82
ssg70
g2488
sg63
(lp2495
S'wsgi'
p2496
asbag56
(g77
g58
NtRp2497
(dp2498
g61
(dp2499
g88
g89
ssg70
g2488
sg63
(lp2500
S':'
asbag56
(g77
g58
NtRp2501
(dp2502
g61
(dp2503
sg70
g2488
sg63
(lp2504
g56
(g57
g58
NtRp2505
(dp2506
g61
(dp2507
g69
I5
ssg70
g2501
sg63
(lp2508
g56
(g65
g58
NtRp2509
(dp2510
g61
(dp2511
g69
I4
ssg70
Nsg63
(lp2512
g56
(g72
g58
NtRp2513
(dp2514
g61
(dp2515
sg70
g2509
sg63
(lp2516
g56
(g77
g58
NtRp2517
(dp2518
g61
(dp2519
g81
g82
ssg70
g2513
sg63
(lp2520
S'environ'
p2521
asbag56
(g77
g58
NtRp2522
(dp2523
g61
(dp2524
g88
g89
ssg70
g2513
sg63
(lp2525
S':'
asbag56
(g77
g58
NtRp2526
(dp2527
g61
(dp2528
sg70
g2513
sg63
(lp2529
g56
(g57
g58
NtRp2530
(dp2531
g61
(dp2532
g69
I4
ssg70
g2526
sg63
(lp2533
g56
(g65
g58
NtRp2534
(dp2535
g61
(dp2536
g69
I3
ssg70
Nsg63
(lp2537
g56
(g72
g58
NtRp2538
(dp2539
g61
(dp2540
sg70
g2534
sg63
(lp2541
g56
(g77
g58
NtRp2542
(dp2543
g61
(dp2544
g81
g82
ssg70
g2538
sg63
(lp2545
S'DOCUMENT_ROOT'
p2546
asbag56
(g77
g58
NtRp2547
(dp2548
g61
(dp2549
g88
g89
ssg70
g2538
sg63
(lp2550
S':'
asbag56
(g77
g58
NtRp2551
(dp2552
g61
(dp2553
sg70
g2538
sg63
(lp2554
g56
(g57
g58
NtRp2555
(dp2556
g61
(dp2557
g69
I3
ssg70
g2551
sg63
(lp2558
g1118
asbasbasbag56
(g72
g58
NtRp2559
(dp2560
g61
(dp2561
sg70
g2534
sg63
(lp2562
g56
(g77
g58
NtRp2563
(dp2564
g61
(dp2565
g81
g82
ssg70
g2559
sg63
(lp2566
S'GATEWAY_INTERFACE'
p2567
asbag56
(g77
g58
NtRp2568
(dp2569
g61
(dp2570
g88
g89
ssg70
g2559
sg63
(lp2571
S':'
asbag56
(g77
g58
NtRp2572
(dp2573
g61
(dp2574
sg70
g2559
sg63
(lp2575
g56
(g57
g58
NtRp2576
(dp2577
g61
(dp2578
g69
I3
ssg70
g2572
sg63
(lp2579
g1140
asbasbasbag56
(g72
g58
NtRp2580
(dp2581
g61
(dp2582
sg70
g2534
sg63
(lp2583
g56
(g77
g58
NtRp2584
(dp2585
g61
(dp2586
g81
g82
ssg70
g2580
sg63
(lp2587
S'HTTPS'
p2588
asbag56
(g77
g58
NtRp2589
(dp2590
g61
(dp2591
g88
g89
ssg70
g2580
sg63
(lp2592
S':'
asbag56
(g77
g58
NtRp2593
(dp2594
g61
(dp2595
sg70
g2580
sg63
(lp2596
g56
(g57
g58
NtRp2597
(dp2598
g61
(dp2599
g69
I3
ssg70
g2593
sg63
(lp2600
S'1'
asbasbasbag56
(g72
g58
NtRp2601
(dp2602
g61
(dp2603
sg70
g2534
sg63
(lp2604
g56
(g77
g58
NtRp2605
(dp2606
g61
(dp2607
g81
g82
ssg70
g2601
sg63
(lp2608
S'HTTP_ACCEPT'
p2609
asbag56
(g77
g58
NtRp2610
(dp2611
g61
(dp2612
g88
g89
ssg70
g2601
sg63
(lp2613
S':'
asbag56
(g77
g58
NtRp2614
(dp2615
g61
(dp2616
sg70
g2601
sg63
(lp2617
g56
(g57
g58
NtRp2618
(dp2619
g61
(dp2620
g69
I3
ssg70
g2614
sg63
(lp2621
g1183
asbasbasbag56
(g72
g58
NtRp2622
(dp2623
g61
(dp2624
sg70
g2534
sg63
(lp2625
g56
(g77
g58
NtRp2626
(dp2627
g61
(dp2628
g81
g82
ssg70
g2622
sg63
(lp2629
S'HTTP_ACCEPT_CHARSET'
p2630
asbag56
(g77
g58
NtRp2631
(dp2632
g61
(dp2633
g88
g89
ssg70
g2622
sg63
(lp2634
S':'
asbag56
(g77
g58
NtRp2635
(dp2636
g61
(dp2637
sg70
g2622
sg63
(lp2638
g56
(g57
g58
NtRp2639
(dp2640
g61
(dp2641
g69
I3
ssg70
g2635
sg63
(lp2642
g1205
asbasbasbag56
(g72
g58
NtRp2643
(dp2644
g61
(dp2645
sg70
g2534
sg63
(lp2646
g56
(g77
g58
NtRp2647
(dp2648
g61
(dp2649
g81
g82
ssg70
g2643
sg63
(lp2650
S'HTTP_ACCEPT_ENCODING'
p2651
asbag56
(g77
g58
NtRp2652
(dp2653
g61
(dp2654
g88
g89
ssg70
g2643
sg63
(lp2655
S':'
asbag56
(g77
g58
NtRp2656
(dp2657
g61
(dp2658
sg70
g2643
sg63
(lp2659
g56
(g57
g58
NtRp2660
(dp2661
g61
(dp2662
g69
I3
ssg70
g2656
sg63
(lp2663
g1227
asbasbasbag56
(g72
g58
NtRp2664
(dp2665
g61
(dp2666
sg70
g2534
sg63
(lp2667
g56
(g77
g58
NtRp2668
(dp2669
g61
(dp2670
g81
g82
ssg70
g2664
sg63
(lp2671
S'HTTP_ACCEPT_LANGUAGE'
p2672
asbag56
(g77
g58
NtRp2673
(dp2674
g61
(dp2675
g88
g89
ssg70
g2664
sg63
(lp2676
S':'
asbag56
(g77
g58
NtRp2677
(dp2678
g61
(dp2679
sg70
g2664
sg63
(lp2680
g56
(g57
g58
NtRp2681
(dp2682
g61
(dp2683
g69
I3
ssg70
g2677
sg63
(lp2684
g1249
asbasbasbag56
(g72
g58
NtRp2685
(dp2686
g61
(dp2687
sg70
g2534
sg63
(lp2688
g56
(g77
g58
NtRp2689
(dp2690
g61
(dp2691
g81
g82
ssg70
g2685
sg63
(lp2692
S'HTTP_CACHE_CONTROL'
p2693
asbag56
(g77
g58
NtRp2694
(dp2695
g61
(dp2696
g88
g89
ssg70
g2685
sg63
(lp2697
S':'
asbag56
(g77
g58
NtRp2698
(dp2699
g61
(dp2700
sg70
g2685
sg63
(lp2701
g56
(g57
g58
NtRp2702
(dp2703
g61
(dp2704
g69
I3
ssg70
g2698
sg63
(lp2705
g1271
asbasbasbag56
(g72
g58
NtRp2706
(dp2707
g61
(dp2708
sg70
g2534
sg63
(lp2709
g56
(g77
g58
NtRp2710
(dp2711
g61
(dp2712
g81
g82
ssg70
g2706
sg63
(lp2713
S'HTTP_CONNECTION'
p2714
asbag56
(g77
g58
NtRp2715
(dp2716
g61
(dp2717
g88
g89
ssg70
g2706
sg63
(lp2718
S':'
asbag56
(g77
g58
NtRp2719
(dp2720
g61
(dp2721
sg70
g2706
sg63
(lp2722
g56
(g57
g58
NtRp2723
(dp2724
g61
(dp2725
g69
I3
ssg70
g2719
sg63
(lp2726
g1293
asbasbasbag56
(g72
g58
NtRp2727
(dp2728
g61
(dp2729
sg70
g2534
sg63
(lp2730
g56
(g77
g58
NtRp2731
(dp2732
g61
(dp2733
g81
g82
ssg70
g2727
sg63
(lp2734
S'HTTP_COOKIE'
p2735
asbag56
(g77
g58
NtRp2736
(dp2737
g61
(dp2738
g88
g89
ssg70
g2727
sg63
(lp2739
S':'
asbag56
(g77
g58
NtRp2740
(dp2741
g61
(dp2742
sg70
g2727
sg63
(lp2743
g56
(g57
g58
NtRp2744
(dp2745
g61
(dp2746
g69
I3
ssg70
g2740
sg63
(lp2747
g1315
asbasbasbag56
(g72
g58
NtRp2748
(dp2749
g61
(dp2750
sg70
g2534
sg63
(lp2751
g56
(g77
g58
NtRp2752
(dp2753
g61
(dp2754
g81
g82
ssg70
g2748
sg63
(lp2755
S'HTTP_HOST'
p2756
asbag56
(g77
g58
NtRp2757
(dp2758
g61
(dp2759
g88
g89
ssg70
g2748
sg63
(lp2760
S':'
asbag56
(g77
g58
NtRp2761
(dp2762
g61
(dp2763
sg70
g2748
sg63
(lp2764
g56
(g57
g58
NtRp2765
(dp2766
g61
(dp2767
g69
I3
ssg70
g2761
sg63
(lp2768
g1337
asbasbasbag56
(g72
g58
NtRp2769
(dp2770
g61
(dp2771
sg70
g2534
sg63
(lp2772
g56
(g77
g58
NtRp2773
(dp2774
g61
(dp2775
g81
g82
ssg70
g2769
sg63
(lp2776
S'HTTP_USER_AGENT'
p2777
asbag56
(g77
g58
NtRp2778
(dp2779
g61
(dp2780
g88
g89
ssg70
g2769
sg63
(lp2781
S':'
asbag56
(g77
g58
NtRp2782
(dp2783
g61
(dp2784
sg70
g2769
sg63
(lp2785
g56
(g57
g58
NtRp2786
(dp2787
g61
(dp2788
g69
I3
ssg70
g2782
sg63
(lp2789
g1359
asbasbasbag56
(g72
g58
NtRp2790
(dp2791
g61
(dp2792
sg70
g2534
sg63
(lp2793
g56
(g77
g58
NtRp2794
(dp2795
g61
(dp2796
g81
g82
ssg70
g2790
sg63
(lp2797
S'PATH_INFO'
p2798
asbag56
(g77
g58
NtRp2799
(dp2800
g61
(dp2801
g88
g89
ssg70
g2790
sg63
(lp2802
S':'
asbag56
(g77
g58
NtRp2803
(dp2804
g61
(dp2805
sg70
g2790
sg63
(lp2806
g56
(g57
g58
NtRp2807
(dp2808
g61
(dp2809
g69
I3
ssg70
g2803
sg63
(lp2810
g1645
asbasbasbag56
(g72
g58
NtRp2811
(dp2812
g61
(dp2813
sg70
g2534
sg63
(lp2814
g56
(g77
g58
NtRp2815
(dp2816
g61
(dp2817
g81
g82
ssg70
g2811
sg63
(lp2818
S'PATH_TRANSLATED'
p2819
asbag56
(g77
g58
NtRp2820
(dp2821
g61
(dp2822
g88
g89
ssg70
g2811
sg63
(lp2823
S':'
asbag56
(g77
g58
NtRp2824
(dp2825
g61
(dp2826
sg70
g2811
sg63
(lp2827
g56
(g57
g58
NtRp2828
(dp2829
g61
(dp2830
g69
I3
ssg70
g2824
sg63
(lp2831
g1667
asbasbasbag56
(g72
g58
NtRp2832
(dp2833
g61
(dp2834
sg70
g2534
sg63
(lp2835
g56
(g77
g58
NtRp2836
(dp2837
g61
(dp2838
g81
g82
ssg70
g2832
sg63
(lp2839
S'QUERY_STRING'
p2840
asbag56
(g77
g58
NtRp2841
(dp2842
g61
(dp2843
g88
g89
ssg70
g2832
sg63
(lp2844
S':'
asbag56
(g77
g58
NtRp2845
(dp2846
g61
(dp2847
sg70
g2832
sg63
(lp2848
g56
(g57
g58
NtRp2849
(dp2850
g61
(dp2851
g69
I3
ssg70
g2845
sg63
(lp2852
S''
asbasbasbag56
(g72
g58
NtRp2853
(dp2854
g61
(dp2855
sg70
g2534
sg63
(lp2856
g56
(g77
g58
NtRp2857
(dp2858
g61
(dp2859
g81
g82
ssg70
g2853
sg63
(lp2860
S'REMOTE_ADDR'
p2861
asbag56
(g77
g58
NtRp2862
(dp2863
g61
(dp2864
g88
g89
ssg70
g2853
sg63
(lp2865
S':'
asbag56
(g77
g58
NtRp2866
(dp2867
g61
(dp2868
sg70
g2853
sg63
(lp2869
g56
(g57
g58
NtRp2870
(dp2871
g61
(dp2872
g69
I3
ssg70
g2866
sg63
(lp2873
g189
asbasbasbag56
(g72
g58
NtRp2874
(dp2875
g61
(dp2876
sg70
g2534
sg63
(lp2877
g56
(g77
g58
NtRp2878
(dp2879
g61
(dp2880
g81
g82
ssg70
g2874
sg63
(lp2881
S'REMOTE_PORT'
p2882
asbag56
(g77
g58
NtRp2883
(dp2884
g61
(dp2885
g88
g89
ssg70
g2874
sg63
(lp2886
S':'
asbag56
(g77
g58
NtRp2887
(dp2888
g61
(dp2889
sg70
g2874
sg63
(lp2890
g56
(g57
g58
NtRp2891
(dp2892
g61
(dp2893
g69
I3
ssg70
g2887
sg63
(lp2894
g1731
asbasbasbag56
(g72
g58
NtRp2895
(dp2896
g61
(dp2897
sg70
g2534
sg63
(lp2898
g56
(g77
g58
NtRp2899
(dp2900
g61
(dp2901
g81
g82
ssg70
g2895
sg63
(lp2902
S'REQUEST_METHOD'
p2903
asbag56
(g77
g58
NtRp2904
(dp2905
g61
(dp2906
g88
g89
ssg70
g2895
sg63
(lp2907
S':'
asbag56
(g77
g58
NtRp2908
(dp2909
g61
(dp2910
sg70
g2895
sg63
(lp2911
g56
(g57
g58
NtRp2912
(dp2913
g61
(dp2914
g69
I3
ssg70
g2908
sg63
(lp2915
g1753
asbasbasbag56
(g72
g58
NtRp2916
(dp2917
g61
(dp2918
sg70
g2534
sg63
(lp2919
g56
(g77
g58
NtRp2920
(dp2921
g61
(dp2922
g81
g82
ssg70
g2916
sg63
(lp2923
S'REQUEST_URI'
p2924
asbag56
(g77
g58
NtRp2925
(dp2926
g61
(dp2927
g88
g89
ssg70
g2916
sg63
(lp2928
S':'
asbag56
(g77
g58
NtRp2929
(dp2930
g61
(dp2931
sg70
g2916
sg63
(lp2932
g56
(g57
g58
NtRp2933
(dp2934
g61
(dp2935
g69
I3
ssg70
g2929
sg63
(lp2936
g1775
asbasbasbag56
(g72
g58
NtRp2937
(dp2938
g61
(dp2939
sg70
g2534
sg63
(lp2940
g56
(g77
g58
NtRp2941
(dp2942
g61
(dp2943
g81
g82
ssg70
g2937
sg63
(lp2944
S'SCRIPT_FILENAME'
p2945
asbag56
(g77
g58
NtRp2946
(dp2947
g61
(dp2948
g88
g89
ssg70
g2937
sg63
(lp2949
S':'
asbag56
(g77
g58
NtRp2950
(dp2951
g61
(dp2952
sg70
g2937
sg63
(lp2953
g56
(g57
g58
NtRp2954
(dp2955
g61
(dp2956
g69
I3
ssg70
g2950
sg63
(lp2957
g1797
asbasbasbag56
(g72
g58
NtRp2958
(dp2959
g61
(dp2960
sg70
g2534
sg63
(lp2961
g56
(g77
g58
NtRp2962
(dp2963
g61
(dp2964
g81
g82
ssg70
g2958
sg63
(lp2965
S'SCRIPT_NAME'
p2966
asbag56
(g77
g58
NtRp2967
(dp2968
g61
(dp2969
g88
g89
ssg70
g2958
sg63
(lp2970
S':'
asbag56
(g77
g58
NtRp2971
(dp2972
g61
(dp2973
sg70
g2958
sg63
(lp2974
g56
(g57
g58
NtRp2975
(dp2976
g61
(dp2977
g69
I3
ssg70
g2971
sg63
(lp2978
S''
asbasbasbag56
(g72
g58
NtRp2979
(dp2980
g61
(dp2981
sg70
g2534
sg63
(lp2982
g56
(g77
g58
NtRp2983
(dp2984
g61
(dp2985
g81
g82
ssg70
g2979
sg63
(lp2986
S'SERVER_ADDR'
p2987
asbag56
(g77
g58
NtRp2988
(dp2989
g61
(dp2990
g88
g89
ssg70
g2979
sg63
(lp2991
S':'
asbag56
(g77
g58
NtRp2992
(dp2993
g61
(dp2994
sg70
g2979
sg63
(lp2995
g56
(g57
g58
NtRp2996
(dp2997
g61
(dp2998
g69
I3
ssg70
g2992
sg63
(lp2999
g1840
asbasbasbag56
(g72
g58
NtRp3000
(dp3001
g61
(dp3002
sg70
g2534
sg63
(lp3003
g56
(g77
g58
NtRp3004
(dp3005
g61
(dp3006
g81
g82
ssg70
g3000
sg63
(lp3007
S'SERVER_ADMIN'
p3008
asbag56
(g77
g58
NtRp3009
(dp3010
g61
(dp3011
g88
g89
ssg70
g3000
sg63
(lp3012
S':'
asbag56
(g77
g58
NtRp3013
(dp3014
g61
(dp3015
sg70
g3000
sg63
(lp3016
g56
(g57
g58
NtRp3017
(dp3018
g61
(dp3019
g69
I3
ssg70
g3013
sg63
(lp3020
g1862
asbasbasbag56
(g72
g58
NtRp3021
(dp3022
g61
(dp3023
sg70
g2534
sg63
(lp3024
g56
(g77
g58
NtRp3025
(dp3026
g61
(dp3027
g81
g82
ssg70
g3021
sg63
(lp3028
S'SERVER_NAME'
p3029
asbag56
(g77
g58
NtRp3030
(dp3031
g61
(dp3032
g88
g89
ssg70
g3021
sg63
(lp3033
S':'
asbag56
(g77
g58
NtRp3034
(dp3035
g61
(dp3036
sg70
g3021
sg63
(lp3037
g56
(g57
g58
NtRp3038
(dp3039
g61
(dp3040
g69
I3
ssg70
g3034
sg63
(lp3041
g1884
asbasbasbag56
(g72
g58
NtRp3042
(dp3043
g61
(dp3044
sg70
g2534
sg63
(lp3045
g56
(g77
g58
NtRp3046
(dp3047
g61
(dp3048
g81
g82
ssg70
g3042
sg63
(lp3049
S'SERVER_PORT'
p3050
asbag56
(g77
g58
NtRp3051
(dp3052
g61
(dp3053
g88
g89
ssg70
g3042
sg63
(lp3054
S':'
asbag56
(g77
g58
NtRp3055
(dp3056
g61
(dp3057
sg70
g3042
sg63
(lp3058
g56
(g57
g58
NtRp3059
(dp3060
g61
(dp3061
g69
I3
ssg70
g3055
sg63
(lp3062
g1906
asbasbasbag56
(g72
g58
NtRp3063
(dp3064
g61
(dp3065
sg70
g2534
sg63
(lp3066
g56
(g77
g58
NtRp3067
(dp3068
g61
(dp3069
g81
g82
ssg70
g3063
sg63
(lp3070
S'SERVER_PROTOCOL'
p3071
asbag56
(g77
g58
NtRp3072
(dp3073
g61
(dp3074
g88
g89
ssg70
g3063
sg63
(lp3075
S':'
asbag56
(g77
g58
NtRp3076
(dp3077
g61
(dp3078
sg70
g3063
sg63
(lp3079
g56
(g57
g58
NtRp3080
(dp3081
g61
(dp3082
g69
I3
ssg70
g3076
sg63
(lp3083
g1928
asbasbasbag56
(g72
g58
NtRp3084
(dp3085
g61
(dp3086
sg70
g2534
sg63
(lp3087
g56
(g77
g58
NtRp3088
(dp3089
g61
(dp3090
g81
g82
ssg70
g3084
sg63
(lp3091
S'SERVER_SIGNATURE'
p3092
asbag56
(g77
g58
NtRp3093
(dp3094
g61
(dp3095
g88
g89
ssg70
g3084
sg63
(lp3096
S':'
asbag56
(g77
g58
NtRp3097
(dp3098
g61
(dp3099
sg70
g3084
sg63
(lp3100
g56
(g57
g58
NtRp3101
(dp3102
g61
(dp3103
g69
I3
ssg70
g3097
sg63
(lp3104
g1950
asbasbasbag56
(g72
g58
NtRp3105
(dp3106
g61
(dp3107
sg70
g2534
sg63
(lp3108
g56
(g77
g58
NtRp3109
(dp3110
g61
(dp3111
g81
g82
ssg70
g3105
sg63
(lp3112
S'SERVER_SOFTWARE'
p3113
asbag56
(g77
g58
NtRp3114
(dp3115
g61
(dp3116
g88
g89
ssg70
g3105
sg63
(lp3117
S':'
asbag56
(g77
g58
NtRp3118
(dp3119
g61
(dp3120
sg70
g3105
sg63
(lp3121
g56
(g57
g58
NtRp3122
(dp3123
g61
(dp3124
g69
I3
ssg70
g3118
sg63
(lp3125
g1972
asbasbasbag56
(g72
g58
NtRp3126
(dp3127
g61
(dp3128
sg70
g2534
sg63
(lp3129
g56
(g77
g58
NtRp3130
(dp3131
g61
(dp3132
g81
g82
ssg70
g3126
sg63
(lp3133
S'SSL_TLS_SNI'
p3134
asbag56
(g77
g58
NtRp3135
(dp3136
g61
(dp3137
g88
g89
ssg70
g3126
sg63
(lp3138
S':'
asbag56
(g77
g58
NtRp3139
(dp3140
g61
(dp3141
sg70
g3126
sg63
(lp3142
g56
(g57
g58
NtRp3143
(dp3144
g61
(dp3145
g69
I3
ssg70
g3139
sg63
(lp3146
g1994
asbasbasbag56
(g72
g58
NtRp3147
(dp3148
g61
(dp3149
sg70
g2534
sg63
(lp3150
g56
(g77
g58
NtRp3151
(dp3152
g61
(dp3153
g81
g82
ssg70
g3147
sg63
(lp3154
S'mod_wsgi.application_group'
p3155
asbag56
(g77
g58
NtRp3156
(dp3157
g61
(dp3158
g88
g89
ssg70
g3147
sg63
(lp3159
S':'
asbag56
(g77
g58
NtRp3160
(dp3161
g61
(dp3162
sg70
g3147
sg63
(lp3163
g56
(g57
g58
NtRp3164
(dp3165
g61
(dp3166
g69
I3
ssg70
g3160
sg63
(lp3167
g1402
asbasbasbag56
(g72
g58
NtRp3168
(dp3169
g61
(dp3170
sg70
g2534
sg63
(lp3171
g56
(g77
g58
NtRp3172
(dp3173
g61
(dp3174
g81
g82
ssg70
g3168
sg63
(lp3175
S'mod_wsgi.callable_object'
p3176
asbag56
(g77
g58
NtRp3177
(dp3178
g61
(dp3179
g88
g89
ssg70
g3168
sg63
(lp3180
S':'
asbag56
(g77
g58
NtRp3181
(dp3182
g61
(dp3183
sg70
g3168
sg63
(lp3184
g56
(g57
g58
NtRp3185
(dp3186
g61
(dp3187
g69
I3
ssg70
g3181
sg63
(lp3188
g1424
asbasbasbag56
(g72
g58
NtRp3189
(dp3190
g61
(dp3191
sg70
g2534
sg63
(lp3192
g56
(g77
g58
NtRp3193
(dp3194
g61
(dp3195
g81
g82
ssg70
g3189
sg63
(lp3196
S'mod_wsgi.handler_script'
p3197
asbag56
(g77
g58
NtRp3198
(dp3199
g61
(dp3200
g88
g89
ssg70
g3189
sg63
(lp3201
S':'
asbag56
(g77
g58
NtRp3202
(dp3203
g61
(dp3204
sg70
g3189
sg63
(lp3205
g56
(g57
g58
NtRp3206
(dp3207
g61
(dp3208
g69
I3
ssg70
g3202
sg63
(lp3209
S''
asbasbasbag56
(g72
g58
NtRp3210
(dp3211
g61
(dp3212
sg70
g2534
sg63
(lp3213
g56
(g77
g58
NtRp3214
(dp3215
g61
(dp3216
g81
g82
ssg70
g3210
sg63
(lp3217
S'mod_wsgi.input_chunked'
p3218
asbag56
(g77
g58
NtRp3219
(dp3220
g61
(dp3221
g88
g89
ssg70
g3210
sg63
(lp3222
S':'
asbag56
(g77
g58
NtRp3223
(dp3224
g61
(dp3225
sg70
g3210
sg63
(lp3226
g56
(g57
g58
NtRp3227
(dp3228
g61
(dp3229
g69
I3
ssg70
g3223
sg63
(lp3230
S'0'
asbasbasbag56
(g72
g58
NtRp3231
(dp3232
g61
(dp3233
sg70
g2534
sg63
(lp3234
g56
(g77
g58
NtRp3235
(dp3236
g61
(dp3237
g81
g82
ssg70
g3231
sg63
(lp3238
S'mod_wsgi.listener_host'
p3239
asbag56
(g77
g58
NtRp3240
(dp3241
g61
(dp3242
g88
g89
ssg70
g3231
sg63
(lp3243
S':'
asbag56
(g77
g58
NtRp3244
(dp3245
g61
(dp3246
sg70
g3231
sg63
(lp3247
g56
(g57
g58
NtRp3248
(dp3249
g61
(dp3250
g69
I3
ssg70
g3244
sg63
(lp3251
S''
asbasbasbag56
(g72
g58
NtRp3252
(dp3253
g61
(dp3254
sg70
g2534
sg63
(lp3255
g56
(g77
g58
NtRp3256
(dp3257
g61
(dp3258
g81
g82
ssg70
g3252
sg63
(lp3259
S'mod_wsgi.listener_port'
p3260
asbag56
(g77
g58
NtRp3261
(dp3262
g61
(dp3263
g88
g89
ssg70
g3252
sg63
(lp3264
S':'
asbag56
(g77
g58
NtRp3265
(dp3266
g61
(dp3267
sg70
g3252
sg63
(lp3268
g56
(g57
g58
NtRp3269
(dp3270
g61
(dp3271
g69
I3
ssg70
g3265
sg63
(lp3272
g1509
asbasbasbag56
(g72
g58
NtRp3273
(dp3274
g61
(dp3275
sg70
g2534
sg63
(lp3276
g56
(g77
g58
NtRp3277
(dp3278
g61
(dp3279
g81
g82
ssg70
g3273
sg63
(lp3280
S'mod_wsgi.process_group'
p3281
asbag56
(g77
g58
NtRp3282
(dp3283
g61
(dp3284
g88
g89
ssg70
g3273
sg63
(lp3285
S':'
asbag56
(g77
g58
NtRp3286
(dp3287
g61
(dp3288
sg70
g3273
sg63
(lp3289
g56
(g57
g58
NtRp3290
(dp3291
g61
(dp3292
g69
I3
ssg70
g3286
sg63
(lp3293
g1531
asbasbasbag56
(g72
g58
NtRp3294
(dp3295
g61
(dp3296
sg70
g2534
sg63
(lp3297
g56
(g77
g58
NtRp3298
(dp3299
g61
(dp3300
g81
g82
ssg70
g3294
sg63
(lp3301
S'mod_wsgi.request_handler'
p3302
asbag56
(g77
g58
NtRp3303
(dp3304
g61
(dp3305
g88
g89
ssg70
g3294
sg63
(lp3306
S':'
asbag56
(g77
g58
NtRp3307
(dp3308
g61
(dp3309
sg70
g3294
sg63
(lp3310
g56
(g57
g58
NtRp3311
(dp3312
g61
(dp3313
g69
I3
ssg70
g3307
sg63
(lp3314
g1553
asbasbasbag56
(g72
g58
NtRp3315
(dp3316
g61
(dp3317
sg70
g2534
sg63
(lp3318
g56
(g77
g58
NtRp3319
(dp3320
g61
(dp3321
g81
g82
ssg70
g3315
sg63
(lp3322
S'mod_wsgi.script_reloading'
p3323
asbag56
(g77
g58
NtRp3324
(dp3325
g61
(dp3326
g88
g89
ssg70
g3315
sg63
(lp3327
S':'
asbag56
(g77
g58
NtRp3328
(dp3329
g61
(dp3330
sg70
g3315
sg63
(lp3331
g56
(g57
g58
NtRp3332
(dp3333
g61
(dp3334
g69
I3
ssg70
g3328
sg63
(lp3335
S'1'
asbasbasbag56
(g72
g58
NtRp3336
(dp3337
g61
(dp3338
sg70
g2534
sg63
(lp3339
g56
(g77
g58
NtRp3340
(dp3341
g61
(dp3342
g81
g82
ssg70
g3336
sg63
(lp3343
S'mod_wsgi.version'
p3344
asbag56
(g77
g58
NtRp3345
(dp3346
g61
(dp3347
g88
g89
ssg70
g3336
sg63
(lp3348
S':'
asbag56
(g77
g58
NtRp3349
(dp3350
g61
(dp3351
sg70
g3336
sg63
(lp3352
g56
(g57
g58
NtRp3353
(dp3354
g61
(dp3355
g69
I3
ssg70
g3349
sg63
(lp3356
g56
(g65
g58
NtRp3357
(dp3358
g61
(dp3359
g69
I2
ssg70
Nsg63
(lp3360
g56
(g72
g58
NtRp3361
(dp3362
g61
(dp3363
sg70
g3357
sg63
(lp3364
g56
(g77
g58
NtRp3365
(dp3366
g61
(dp3367
sg70
g3361
sg63
(lp3368
g56
(g57
g58
NtRp3369
(dp3370
g61
(dp3371
g69
I2
ssg70
g3365
sg63
(lp3372
S'3'
asbasbasbag56
(g72
g58
NtRp3373
(dp3374
g61
(dp3375
sg70
g3357
sg63
(lp3376
g56
(g77
g58
NtRp3377
(dp3378
g61
(dp3379
sg70
g3373
sg63
(lp3380
g56
(g57
g58
NtRp3381
(dp3382
g61
(dp3383
g69
I2
ssg70
g3377
sg63
(lp3384
S'2'
asbasbasbasbasbasbasbag56
(g72
g58
NtRp3385
(dp3386
g61
(dp3387
sg70
g2534
sg63
(lp3388
g56
(g77
g58
NtRp3389
(dp3390
g61
(dp3391
g81
g82
ssg70
g3385
sg63
(lp3392
S'wsgi.errors'
p3393
asbag56
(g77
g58
NtRp3394
(dp3395
g61
(dp3396
g88
g89
ssg70
g3385
sg63
(lp3397
S':'
asbag56
(g77
g58
NtRp3398
(dp3399
g61
(dp3400
sg70
g3385
sg63
(lp3401
g56
(g57
g58
NtRp3402
(dp3403
g61
(dp3404
g69
I3
ssg70
g3398
sg63
(lp3405
S'<mod_wsgi.Log object at 0x2b9bdb846930>'
p3406
asbasbasbag56
(g72
g58
NtRp3407
(dp3408
g61
(dp3409
sg70
g2534
sg63
(lp3410
g56
(g77
g58
NtRp3411
(dp3412
g61
(dp3413
g81
g82
ssg70
g3407
sg63
(lp3414
S'wsgi.file_wrapper'
p3415
asbag56
(g77
g58
NtRp3416
(dp3417
g61
(dp3418
g88
g89
ssg70
g3407
sg63
(lp3419
S':'
asbag56
(g77
g58
NtRp3420
(dp3421
g61
(dp3422
sg70
g3407
sg63
(lp3423
g56
(g57
g58
NtRp3424
(dp3425
g61
(dp3426
g69
I3
ssg70
g3420
sg63
(lp3427
S'<built-in method file_wrapper of mod_wsgi.Adapter object at 0x2b9bdb7a7eb8>'
p3428
asbasbasbag56
(g72
g58
NtRp3429
(dp3430
g61
(dp3431
sg70
g2534
sg63
(lp3432
g56
(g77
g58
NtRp3433
(dp3434
g61
(dp3435
g81
g82
ssg70
g3429
sg63
(lp3436
S'wsgi.input'
p3437
asbag56
(g77
g58
NtRp3438
(dp3439
g61
(dp3440
g88
g89
ssg70
g3429
sg63
(lp3441
S':'
asbag56
(g77
g58
NtRp3442
(dp3443
g61
(dp3444
sg70
g3429
sg63
(lp3445
g56
(g57
g58
NtRp3446
(dp3447
g61
(dp3448
g69
I3
ssg70
g3442
sg63
(lp3449
S'<cStringIO.StringO object at 0x2b9bdb854458>'
p3450
asbasbasbag56
(g72
g58
NtRp3451
(dp3452
g61
(dp3453
sg70
g2534
sg63
(lp3454
g56
(g77
g58
NtRp3455
(dp3456
g61
(dp3457
g81
g82
ssg70
g3451
sg63
(lp3458
S'wsgi.multiprocess'
p3459
asbag56
(g77
g58
NtRp3460
(dp3461
g61
(dp3462
g88
g89
ssg70
g3451
sg63
(lp3463
S':'
asbag56
(g77
g58
NtRp3464
(dp3465
g61
(dp3466
sg70
g3451
sg63
(lp3467
g56
(g57
g58
NtRp3468
(dp3469
g61
(dp3470
g69
I3
ssg70
g3464
sg63
(lp3471
g99
asbasbasbag56
(g72
g58
NtRp3472
(dp3473
g61
(dp3474
sg70
g2534
sg63
(lp3475
g56
(g77
g58
NtRp3476
(dp3477
g61
(dp3478
g81
g82
ssg70
g3472
sg63
(lp3479
S'wsgi.multithread'
p3480
asbag56
(g77
g58
NtRp3481
(dp3482
g61
(dp3483
g88
g89
ssg70
g3472
sg63
(lp3484
S':'
asbag56
(g77
g58
NtRp3485
(dp3486
g61
(dp3487
sg70
g3472
sg63
(lp3488
g56
(g57
g58
NtRp3489
(dp3490
g61
(dp3491
g69
I3
ssg70
g3485
sg63
(lp3492
g2146
asbasbasbag56
(g72
g58
NtRp3493
(dp3494
g61
(dp3495
sg70
g2534
sg63
(lp3496
g56
(g77
g58
NtRp3497
(dp3498
g61
(dp3499
g81
g82
ssg70
g3493
sg63
(lp3500
S'wsgi.run_once'
p3501
asbag56
(g77
g58
NtRp3502
(dp3503
g61
(dp3504
g88
g89
ssg70
g3493
sg63
(lp3505
S':'
asbag56
(g77
g58
NtRp3506
(dp3507
g61
(dp3508
sg70
g3493
sg63
(lp3509
g56
(g57
g58
NtRp3510
(dp3511
g61
(dp3512
g69
I3
ssg70
g3506
sg63
(lp3513
g99
asbasbasbag56
(g72
g58
NtRp3514
(dp3515
g61
(dp3516
sg70
g2534
sg63
(lp3517
g56
(g77
g58
NtRp3518
(dp3519
g61
(dp3520
g81
g82
ssg70
g3514
sg63
(lp3521
S'wsgi.url_scheme'
p3522
asbag56
(g77
g58
NtRp3523
(dp3524
g61
(dp3525
g88
g89
ssg70
g3514
sg63
(lp3526
S':'
asbag56
(g77
g58
NtRp3527
(dp3528
g61
(dp3529
sg70
g3514
sg63
(lp3530
g56
(g57
g58
NtRp3531
(dp3532
g61
(dp3533
g69
I3
ssg70
g3527
sg63
(lp3534
g2189
asbasbasbag56
(g72
g58
NtRp3535
(dp3536
g61
(dp3537
sg70
g2534
sg63
(lp3538
g56
(g77
g58
NtRp3539
(dp3540
g61
(dp3541
g81
g82
ssg70
g3535
sg63
(lp3542
S'wsgi.version'
p3543
asbag56
(g77
g58
NtRp3544
(dp3545
g61
(dp3546
g88
g89
ssg70
g3535
sg63
(lp3547
S':'
asbag56
(g77
g58
NtRp3548
(dp3549
g61
(dp3550
sg70
g3535
sg63
(lp3551
g56
(g57
g58
NtRp3552
(dp3553
g61
(dp3554
g69
I3
ssg70
g3548
sg63
(lp3555
S'1'
asbasbasbasbasbasbasbasbasbasbasbasbasbsS'frames'
p3556
(lp3557
(dp3558
S'file'
p3559
S'/home/www-data/web2py/gluon/restricted.py'
p3560
sS'dump'
p3561
(dp3562
S'environment'
p3563
S"{'A': <class 'gluon.html.A'>, 'Auth': <class 'gluon.tools.Auth'>, 'B': <class 'gluon.html.B'>, 'BEAUTIFY': <class 'gluon.html.BEAUTIFY'>, 'BODY': <class 'gluon.html.BODY'>, 'BR': <class 'gluon.html.BR'>, 'CENTER': <class 'gluon.html.CENTER'>, 'CLEANUP': <class 'gluon.validators.CLEANUP'>, 'CODE': <class 'gluon.html.CODE'>, 'CRYPT': <class 'gluon.validators.CRYPT'>, ...}"
p3564
sS'ccode'
p3565
S'<code object <module> at 0x2b9be0578f30, file "/...y/applications/rdcdss/views/generic.pdf", line 1>'
p3566
ssS'lnum'
p3567
I181
sS'lines'
p3568
(dp3569
I176
S'    try:'
p3570
sI177
S'        if type(code) == types.CodeType:'
p3571
sI178
S'            ccode = code'
p3572
sI179
S'        else:'
p3573
sI180
S'            ccode = compile2(code,layer)'
p3574
sI181
S'        exec ccode in environment'
p3575
sI182
S'    except HTTP:'
p3576
sI183
S'        raise'
p3577
sI184
S'    except Exception:'
p3578
sI185
S'        # XXX Show exception in Wing IDE if running in debugger'
p3579
ssS'call'
p3580
S'(code="import re\\nfrom gluon.contrib.markmin.markmin2pdf...alse)\\n    pass\\nresponse.write(\'\\\\n\', escape=False)", environment={\'A\': <class \'gluon.html.A\'>, \'Auth\': <class \'gluon.tools.Auth\'>, \'B\': <class \'gluon.html.B\'>, \'BEAUTIFY\': <class \'gluon.html.BEAUTIFY\'>, \'BODY\': <class \'gluon.html.BODY\'>, \'BR\': <class \'gluon.html.BR\'>, \'CENTER\': <class \'gluon.html.CENTER\'>, \'CLEANUP\': <class \'gluon.validators.CLEANUP\'>, \'CODE\': <class \'gluon.html.CODE\'>, \'CRYPT\': <class \'gluon.validators.CRYPT\'>, ...}, layer=\'/home/www-data/web2py/applications/rdcdss/views/generic.pdf\')'
p3581
sS'func'
p3582
S'restricted'
p3583
sa(dp3584
g3559
S'/home/www-data/web2py/applications/rdcdss/views/generic.pdf'
p3585
sg3561
(dp3586
S'request.controller'
p3587
S"'default'"
p3588
sS'response.render'
p3589
S"<bound method Response.render of <Storage {'body...bda> at 0x2b9be0d78d70>, 'view': 'generic.pdf'}>>"
p3590
sS'request'
p3591
S"<Storage {'function': 'index', 'body': <cStringI....19-22-05.307f91ec-5dce-4d78-a477-605527d3d672'}>"
p3592
sS'html'
p3593
S'\'\\n<!DOCTYPE html>\\n<html lang="en" class="no-js"><...      </script>\\n       -->    \\n  </body>\\n</html>\\n\''
p3594
sS'request.function'
p3595
S"'index'"
p3596
sS'response'
p3597
S"<Storage {'body': <cStringIO.StringO object at 0...mbda> at 0x2b9be0d78d70>, 'view': 'generic.pdf'}>"
p3598
ssg3567
I21
sg3568
(dp3599
I16
S"    if tag in ['b','strong','label']: return '**%s**' % text"
p3600
sI17
S'    if tag in [\'em\',\'i\']: return "\'\'%s\'\'" % text'
p3601
sI18
S"    if tag in ['tt','code']: return '``%s``' % text"
p3602
sI19
S"    if tag=='a': return '[[%s %s]]' % (text,attr.get('_href',''))"
p3603
sI20
S'    return text'
p3604
sI21
S"html=response.render('%s/%s.html' % (request.controller,request.function))"
p3605
sI22
S"markmin=TAG(html).element('#content').flatten(markmin_serializer)"
p3606
sI23
S'pdf,warnings,errors=markmin2pdf(markmin)'
p3607
sI24
S'if errors:'
p3608
sI25
S"   response.headers['Content-Type']='text'"
p3609
ssg3580
S'()'
p3610
sg3582
S'<module>'
p3611
sa(dp3612
g3559
S'/home/www-data/web2py/gluon/html.py'
p3613
sg3561
(dp3614
S'decoder.decoder'
p3615
S'<function decoder>'
p3616
sS'global decoder'
p3617
S"<module 'gluon.decoder' from '/home/www-data/web2py/gluon/decoder.pyc'>"
p3618
sS'global web2pyHTMLParser'
p3619
S'<class gluon.html.web2pyHTMLParser>'
p3620
sS'html'
p3621
S'\'\\n<!DOCTYPE html>\\n<html lang="en" class="no-js"><...      </script>\\n       -->    \\n  </body>\\n</html>\\n\''
p3622
sS').tree'
p3623
S'undefined'
p3624
ssg3567
I1014
sg3568
(dp3625
I1009
S'            tag = name'
p3626
sI1010
S''
sI1011
S'        return lambda *a, **b: __tag__(*a, **b)'
p3627
sI1012
S''
sI1013
S'    def __call__(self,html):'
p3628
sI1014
S'        return web2pyHTMLParser(decoder.decoder(html)).tree'
p3629
sI1015
S''
sI1016
S'TAG = __TAG__()'
p3630
sI1017
S''
sI1018
S''
ssg3580
S'(self=<gluon.html.__TAG__ object>, html=\'\\n<!DOCTYPE html>\\n<html lang="en" class="no-js"><...      </script>\\n       -->    \\n  </body>\\n</html>\\n\')'
p3631
sg3582
S'__call__'
p3632
sa(dp3633
g3559
S'/home/www-data/web2py/gluon/html.py'
p3634
sg3561
(dp3635
S'self.feed'
p3636
S'<bound method web2pyHTMLParser.feed of <gluon.html.web2pyHTMLParser instance>>'
p3637
sS'self'
p3638
S'<gluon.html.web2pyHTMLParser instance>'
p3639
sS'text'
p3640
S'\'\\n<!DOCTYPE html>\\n<html lang="en" class="no-js"><...      </script>\\n       -->    \\n  </body>\\n</html>\\n\''
p3641
ssg3567
I1995
sg3568
(dp3642
I1990
S'        HTMLParser.__init__(self)'
p3643
sI1991
S"        self.tree = self.parent = TAG['']()"
p3644
sI1992
S'        self.closed = closed'
p3645
sI1993
S'        self.tags = [x for x in __all__ if isinstance(eval(x),DIV)]'
p3646
sI1994
S'        self.last = None'
p3647
sI1995
S'        self.feed(text)'
p3648
sI1996
S'    def handle_starttag(self, tagname, attrs):'
p3649
sI1997
S'        if tagname.upper() in self.tags:'
p3650
sI1998
S'            tag=eval(tagname.upper())'
p3651
sI1999
S'        else:'
p3652
ssg3580
S'(self=<gluon.html.web2pyHTMLParser instance>, text=\'\\n<!DOCTYPE html>\\n<html lang="en" class="no-js"><...      </script>\\n       -->    \\n  </body>\\n</html>\\n\', closed=(\'input\', \'link\'))'
p3653
sg3582
g49
sa(dp3654
g3559
S'/usr/lib/python2.6/HTMLParser.py'
p3655
sg3561
(dp3656
S'self.goahead'
p3657
S'<bound method web2pyHTMLParser.goahead of <gluon.html.web2pyHTMLParser instance>>'
p3658
sS'self'
p3659
S'<gluon.html.web2pyHTMLParser instance>'
p3660
ssg3567
I108
sg3568
(dp3661
I103
S''
sI104
S'        Call this as often as you want, with as little or as much text'
p3662
sI105
S"        as you want (may include '\\n')."
p3663
sI106
S'        """'
p3664
sI107
S'        self.rawdata = self.rawdata + data'
p3665
sI108
S'        self.goahead(0)'
p3666
sI109
S''
sI110
S'    def close(self):'
p3667
sI111
S'        """Handle any buffered data."""'
p3668
sI112
S'        self.goahead(1)'
p3669
ssg3580
S'(self=<gluon.html.web2pyHTMLParser instance>, data=\'\\n<!DOCTYPE html>\\n<html lang="en" class="no-js"><...      </script>\\n       -->    \\n  </body>\\n</html>\\n\')'
p3670
sg3582
S'feed'
p3671
sa(dp3672
g3559
S'/usr/lib/python2.6/HTMLParser.py'
p3673
sg3561
(dp3674
S'i'
S'14843'
p3675
sS'k'
S'14644'
p3676
sS'self.parse_endtag'
p3677
S'<bound method web2pyHTMLParser.parse_endtag of <gluon.html.web2pyHTMLParser instance>>'
p3678
sS'self'
p3679
S'<gluon.html.web2pyHTMLParser instance>'
p3680
ssg3567
I150
sg3568
(dp3681
I145
S'            startswith = rawdata.startswith'
p3682
sI146
S"            if startswith('<', i):"
p3683
sI147
S'                if starttagopen.match(rawdata, i): # < + letter'
p3684
sI148
S'                    k = self.parse_starttag(i)'
p3685
sI149
S'                elif startswith("</", i):'
p3686
sI150
S'                    k = self.parse_endtag(i)'
p3687
sI151
S'                elif startswith("<!--", i):'
p3688
sI152
S'                    k = self.parse_comment(i)'
p3689
sI153
S'                elif startswith("<?", i):'
p3690
sI154
S'                    k = self.parse_pi(i)'
p3691
ssg3580
S'(self=<gluon.html.web2pyHTMLParser instance>, end=0)'
p3692
sg3582
S'goahead'
p3693
sa(dp3694
g3559
S'/usr/lib/python2.6/HTMLParser.py'
p3695
sg3561
(dp3696
S'self'
p3697
S'<gluon.html.web2pyHTMLParser instance>'
p3698
sS'tag'
p3699
S"'script'"
p3700
sS'tag.lower'
p3701
S'<built-in method lower of str object>'
p3702
sS'self.handle_endtag'
p3703
S'<bound method web2pyHTMLParser.handle_endtag of <gluon.html.web2pyHTMLParser instance>>'
p3704
ssg3567
I319
sg3568
(dp3705
I320
S'        self.clear_cdata_mode()'
p3706
sI321
S'        return j'
p3707
sI322
S''
sI323
S'    # Overridable -- finish processing of start+end tag: <tag.../>'
p3708
sI314
S'        j = match.end()'
p3709
sI315
S'        match = endtagfind.match(rawdata, i) # </ + tag + >'
p3710
sI316
S'        if not match:'
p3711
sI317
S'            self.error("bad end tag: %r" % (rawdata[i:j],))'
p3712
sI318
S'        tag = match.group(1)'
p3713
sI319
S'        self.handle_endtag(tag.lower())'
p3714
ssg3580
S'(self=<gluon.html.web2pyHTMLParser instance>, i=14843)'
p3715
sg3582
S'parse_endtag'
p3716
sa(dp3717
g3559
S'/home/www-data/web2py/gluon/html.py'
p3718
sg3561
(dp3719
S'builtinRuntimeError'
p3720
S"<type 'exceptions.RuntimeError'>"
p3721
sS'tagname'
p3722
S"'script'"
p3723
ssg3567
I2030
sg3568
(dp3724
I2025
S'        while True:'
p3725
sI2026
S'            try:'
p3726
sI2027
S'                parent_tagname=self.parent.tag'
p3727
sI2028
S'                self.parent = self.parent.parent'
p3728
sI2029
S'            except:'
p3729
sI2030
S'                raise RuntimeError, "unable to balance tag %s" % tagname'
p3730
sI2031
S'            if parent_tagname[:len(tagname)]==tagname: break'
p3731
sI2032
S''
sI2033
S'def markdown_serializer(text,tag=None,attr={}):'
p3732
sI2034
S"    if tag is None: return re.sub('\\s+',' ',text)"
p3733
ssg3580
S"(self=<gluon.html.web2pyHTMLParser instance>, tagname='script')"
p3734
sg3582
S'handle_endtag'
p3735
sasS'pyver'
p3736
S'Python 2.6.6: /usr/bin/python'
p3737
sS'session'
p3738
g56
(g57
g58
NtRp3739
(dp3740
g61
(dp3741
sg63
(lp3742
g56
(g65
g58
NtRp3743
(dp3744
g61
(dp3745
g69
I5
ssg70
Nsg63
(lp3746
g56
(g72
g58
NtRp3747
(dp3748
g61
(dp3749
sg70
g3743
sg63
(lp3750
g56
(g77
g58
NtRp3751
(dp3752
g61
(dp3753
g81
g82
ssg70
g3747
sg63
(lp3754
S'data'
p3755
asbag56
(g77
g58
NtRp3756
(dp3757
g61
(dp3758
g88
g89
ssg70
g3747
sg63
(lp3759
S':'
asbag56
(g77
g58
NtRp3760
(dp3761
g61
(dp3762
sg70
g3747
sg63
(lp3763
g56
(g57
g58
NtRp3764
(dp3765
g61
(dp3766
g69
I5
ssg70
g3760
sg63
(lp3767
g56
(g65
g58
NtRp3768
(dp3769
g61
(dp3770
g69
I4
ssg70
Nsg63
(lp3771
sbasbasbasbag56
(g72
g58
NtRp3772
(dp3773
g61
(dp3774
sg70
g3743
sg63
(lp3775
g56
(g77
g58
NtRp3776
(dp3777
g61
(dp3778
g81
g82
ssg70
g3772
sg63
(lp3779
S'hashstring'
p3780
asbag56
(g77
g58
NtRp3781
(dp3782
g61
(dp3783
g88
g89
ssg70
g3772
sg63
(lp3784
S':'
asbag56
(g77
g58
NtRp3785
(dp3786
g61
(dp3787
sg70
g3772
sg63
(lp3788
g56
(g57
g58
NtRp3789
(dp3790
g61
(dp3791
g69
I5
ssg70
g3785
sg63
(lp3792
S'c66a0f402c97efc17bf51a3167813f41'
p3793
asbasbasbag56
(g72
g58
NtRp3794
(dp3795
g61
(dp3796
sg70
g3743
sg63
(lp3797
g56
(g77
g58
NtRp3798
(dp3799
g61
(dp3800
g81
g82
ssg70
g3794
sg63
(lp3801
S'query'
p3802
asbag56
(g77
g58
NtRp3803
(dp3804
g61
(dp3805
g88
g89
ssg70
g3794
sg63
(lp3806
S':'
asbag56
(g77
g58
NtRp3807
(dp3808
g61
(dp3809
sg70
g3794
sg63
(lp3810
g56
(g57
g58
NtRp3811
(dp3812
g61
(dp3813
g69
I5
ssg70
g3807
sg63
(lp3814
S''
asbasbasbasbasbsS'etype'
p3815
S"<type 'exceptions.RuntimeError'>"
p3816
sS'date'
p3817
S'Thu Jun 30 19:22:05 2011'
p3818
sS'response'
p3819
g56
(g57
g58
NtRp3820
(dp3821
g61
(dp3822
sg63
(lp3823
g56
(g65
g58
NtRp3824
(dp3825
g61
(dp3826
g69
I5
ssg70
Nsg63
(lp3827
g56
(g72
g58
NtRp3828
(dp3829
g61
(dp3830
sg70
g3824
sg63
(lp3831
g56
(g77
g58
NtRp3832
(dp3833
g61
(dp3834
g81
g82
ssg70
g3828
sg63
(lp3835
g154
asbag56
(g77
g58
NtRp3836
(dp3837
g61
(dp3838
g88
g89
ssg70
g3828
sg63
(lp3839
S':'
asbag56
(g77
g58
NtRp3840
(dp3841
g61
(dp3842
sg70
g3828
sg63
(lp3843
g56
(g57
g58
NtRp3844
(dp3845
g61
(dp3846
g69
I5
ssg70
g3840
sg63
(lp3847
S'<cStringIO.StringO object at 0x2b9bd9767e30>'
p3848
asbasbasbag56
(g72
g58
NtRp3849
(dp3850
g61
(dp3851
sg70
g3824
sg63
(lp3852
g56
(g77
g58
NtRp3853
(dp3854
g61
(dp3855
g81
g82
ssg70
g3849
sg63
(lp3856
g220
asbag56
(g77
g58
NtRp3857
(dp3858
g61
(dp3859
g88
g89
ssg70
g3849
sg63
(lp3860
S':'
asbag56
(g77
g58
NtRp3861
(dp3862
g61
(dp3863
sg70
g3849
sg63
(lp3864
g56
(g57
g58
NtRp3865
(dp3866
g61
(dp3867
g69
I5
ssg70
g3861
sg63
(lp3868
g56
(g65
g58
NtRp3869
(dp3870
g61
(dp3871
g69
I4
ssg70
Nsg63
(lp3872
g56
(g72
g58
NtRp3873
(dp3874
g61
(dp3875
sg70
g3869
sg63
(lp3876
g56
(g77
g58
NtRp3877
(dp3878
g61
(dp3879
g81
g82
ssg70
g3873
sg63
(lp3880
S'session_id_rdcdss'
p3881
asbag56
(g77
g58
NtRp3882
(dp3883
g61
(dp3884
g88
g89
ssg70
g3873
sg63
(lp3885
S':'
asbag56
(g77
g58
NtRp3886
(dp3887
g61
(dp3888
sg70
g3873
sg63
(lp3889
g56
(g57
g58
NtRp3890
(dp3891
g61
(dp3892
g69
I4
ssg70
g3886
sg63
(lp3893
g56
(g65
g58
NtRp3894
(dp3895
g61
(dp3896
g69
I3
ssg70
Nsg63
(lp3897
g56
(g72
g58
NtRp3898
(dp3899
g61
(dp3900
sg70
g3894
sg63
(lp3901
g56
(g77
g58
NtRp3902
(dp3903
g61
(dp3904
g81
g82
ssg70
g3898
sg63
(lp3905
g270
asbag56
(g77
g58
NtRp3906
(dp3907
g61
(dp3908
g88
g89
ssg70
g3898
sg63
(lp3909
S':'
asbag56
(g77
g58
NtRp3910
(dp3911
g61
(dp3912
sg70
g3898
sg63
(lp3913
g56
(g57
g58
NtRp3914
(dp3915
g61
(dp3916
g69
I3
ssg70
g3910
sg63
(lp3917
S''
asbasbasbag56
(g72
g58
NtRp3918
(dp3919
g61
(dp3920
sg70
g3894
sg63
(lp3921
g56
(g77
g58
NtRp3922
(dp3923
g61
(dp3924
g81
g82
ssg70
g3918
sg63
(lp3925
g291
asbag56
(g77
g58
NtRp3926
(dp3927
g61
(dp3928
g88
g89
ssg70
g3918
sg63
(lp3929
S':'
asbag56
(g77
g58
NtRp3930
(dp3931
g61
(dp3932
sg70
g3918
sg63
(lp3933
g56
(g57
g58
NtRp3934
(dp3935
g61
(dp3936
g69
I3
ssg70
g3930
sg63
(lp3937
S''
asbasbasbag56
(g72
g58
NtRp3938
(dp3939
g61
(dp3940
sg70
g3894
sg63
(lp3941
g56
(g77
g58
NtRp3942
(dp3943
g61
(dp3944
g81
g82
ssg70
g3938
sg63
(lp3945
g312
asbag56
(g77
g58
NtRp3946
(dp3947
g61
(dp3948
g88
g89
ssg70
g3938
sg63
(lp3949
S':'
asbag56
(g77
g58
NtRp3950
(dp3951
g61
(dp3952
sg70
g3938
sg63
(lp3953
g56
(g57
g58
NtRp3954
(dp3955
g61
(dp3956
g69
I3
ssg70
g3950
sg63
(lp3957
S''
asbasbasbag56
(g72
g58
NtRp3958
(dp3959
g61
(dp3960
sg70
g3894
sg63
(lp3961
g56
(g77
g58
NtRp3962
(dp3963
g61
(dp3964
g81
g82
ssg70
g3958
sg63
(lp3965
g333
asbag56
(g77
g58
NtRp3966
(dp3967
g61
(dp3968
g88
g89
ssg70
g3958
sg63
(lp3969
S':'
asbag56
(g77
g58
NtRp3970
(dp3971
g61
(dp3972
sg70
g3958
sg63
(lp3973
g56
(g57
g58
NtRp3974
(dp3975
g61
(dp3976
g69
I3
ssg70
g3970
sg63
(lp3977
S''
asbasbasbag56
(g72
g58
NtRp3978
(dp3979
g61
(dp3980
sg70
g3894
sg63
(lp3981
g56
(g77
g58
NtRp3982
(dp3983
g61
(dp3984
g81
g82
ssg70
g3978
sg63
(lp3985
g354
asbag56
(g77
g58
NtRp3986
(dp3987
g61
(dp3988
g88
g89
ssg70
g3978
sg63
(lp3989
S':'
asbag56
(g77
g58
NtRp3990
(dp3991
g61
(dp3992
sg70
g3978
sg63
(lp3993
g56
(g57
g58
NtRp3994
(dp3995
g61
(dp3996
g69
I3
ssg70
g3990
sg63
(lp3997
S''
asbasbasbag56
(g72
g58
NtRp3998
(dp3999
g61
(dp4000
sg70
g3894
sg63
(lp4001
g56
(g77
g58
NtRp4002
(dp4003
g61
(dp4004
g81
g82
ssg70
g3998
sg63
(lp4005
g375
asbag56
(g77
g58
NtRp4006
(dp4007
g61
(dp4008
g88
g89
ssg70
g3998
sg63
(lp4009
S':'
asbag56
(g77
g58
NtRp4010
(dp4011
g61
(dp4012
sg70
g3998
sg63
(lp4013
g56
(g57
g58
NtRp4014
(dp4015
g61
(dp4016
g69
I3
ssg70
g4010
sg63
(lp4017
S'/'
asbasbasbag56
(g72
g58
NtRp4018
(dp4019
g61
(dp4020
sg70
g3894
sg63
(lp4021
g56
(g77
g58
NtRp4022
(dp4023
g61
(dp4024
g81
g82
ssg70
g4018
sg63
(lp4025
g396
asbag56
(g77
g58
NtRp4026
(dp4027
g61
(dp4028
g88
g89
ssg70
g4018
sg63
(lp4029
S':'
asbag56
(g77
g58
NtRp4030
(dp4031
g61
(dp4032
sg70
g4018
sg63
(lp4033
g56
(g57
g58
NtRp4034
(dp4035
g61
(dp4036
g69
I3
ssg70
g4030
sg63
(lp4037
S''
asbasbasbag56
(g72
g58
NtRp4038
(dp4039
g61
(dp4040
sg70
g3894
sg63
(lp4041
g56
(g77
g58
NtRp4042
(dp4043
g61
(dp4044
g81
g82
ssg70
g4038
sg63
(lp4045
g417
asbag56
(g77
g58
NtRp4046
(dp4047
g61
(dp4048
g88
g89
ssg70
g4038
sg63
(lp4049
S':'
asbag56
(g77
g58
NtRp4050
(dp4051
g61
(dp4052
sg70
g4038
sg63
(lp4053
g56
(g57
g58
NtRp4054
(dp4055
g61
(dp4056
g69
I3
ssg70
g4050
sg63
(lp4057
S''
asbasbasbasbasbasbasbasbasbasbasbag56
(g72
g58
NtRp4058
(dp4059
g61
(dp4060
sg70
g3824
sg63
(lp4061
g56
(g77
g58
NtRp4062
(dp4063
g61
(dp4064
g81
g82
ssg70
g4058
sg63
(lp4065
S'files'
p4066
asbag56
(g77
g58
NtRp4067
(dp4068
g61
(dp4069
g88
g89
ssg70
g4058
sg63
(lp4070
S':'
asbag56
(g77
g58
NtRp4071
(dp4072
g61
(dp4073
sg70
g4058
sg63
(lp4074
g56
(g57
g58
NtRp4075
(dp4076
g61
(dp4077
g69
I5
ssg70
g4071
sg63
(lp4078
g56
(g65
g58
NtRp4079
(dp4080
g61
(dp4081
g69
I4
ssg70
Nsg63
(lp4082
g56
(g72
g58
NtRp4083
(dp4084
g61
(dp4085
sg70
g4079
sg63
(lp4086
g56
(g77
g58
NtRp4087
(dp4088
g61
(dp4089
sg70
g4083
sg63
(lp4090
g56
(g57
g58
NtRp4091
(dp4092
g61
(dp4093
g69
I4
ssg70
g4087
sg63
(lp4094
S'/rdcdss/static/js/jquery.js'
p4095
asbasbasbag56
(g72
g58
NtRp4096
(dp4097
g61
(dp4098
sg70
g4079
sg63
(lp4099
g56
(g77
g58
NtRp4100
(dp4101
g61
(dp4102
sg70
g4096
sg63
(lp4103
g56
(g57
g58
NtRp4104
(dp4105
g61
(dp4106
g69
I4
ssg70
g4100
sg63
(lp4107
S'/rdcdss/static/css/calendar.css'
p4108
asbasbasbag56
(g72
g58
NtRp4109
(dp4110
g61
(dp4111
sg70
g4079
sg63
(lp4112
g56
(g77
g58
NtRp4113
(dp4114
g61
(dp4115
sg70
g4109
sg63
(lp4116
g56
(g57
g58
NtRp4117
(dp4118
g61
(dp4119
g69
I4
ssg70
g4113
sg63
(lp4120
S'/rdcdss/static/js/calendar.js'
p4121
asbasbasbag56
(g72
g58
NtRp4122
(dp4123
g61
(dp4124
sg70
g4079
sg63
(lp4125
g56
(g77
g58
NtRp4126
(dp4127
g61
(dp4128
sg70
g4122
sg63
(lp4129
g56
(g57
g58
NtRp4130
(dp4131
g61
(dp4132
g69
I4
ssg70
g4126
sg63
(lp4133
S'/rdcdss/static/css/base.css'
p4134
asbasbasbag56
(g72
g58
NtRp4135
(dp4136
g61
(dp4137
sg70
g4079
sg63
(lp4138
g56
(g77
g58
NtRp4139
(dp4140
g61
(dp4141
sg70
g4135
sg63
(lp4142
g56
(g57
g58
NtRp4143
(dp4144
g61
(dp4145
g69
I4
ssg70
g4139
sg63
(lp4146
S'/rdcdss/static/css/superfish.css'
p4147
asbasbasbag56
(g72
g58
NtRp4148
(dp4149
g61
(dp4150
sg70
g4079
sg63
(lp4151
g56
(g77
g58
NtRp4152
(dp4153
g61
(dp4154
sg70
g4148
sg63
(lp4155
g56
(g57
g58
NtRp4156
(dp4157
g61
(dp4158
g69
I4
ssg70
g4152
sg63
(lp4159
S'/rdcdss/static/js/superfish.js'
p4160
asbasbasbasbasbasbasbag56
(g72
g58
NtRp4161
(dp4162
g61
(dp4163
sg70
g3824
sg63
(lp4164
g56
(g77
g58
NtRp4165
(dp4166
g61
(dp4167
g81
g82
ssg70
g4161
sg63
(lp4168
S'flash'
p4169
asbag56
(g77
g58
NtRp4170
(dp4171
g61
(dp4172
g88
g89
ssg70
g4161
sg63
(lp4173
S':'
asbag56
(g77
g58
NtRp4174
(dp4175
g61
(dp4176
sg70
g4161
sg63
(lp4177
g56
(g57
g58
NtRp4178
(dp4179
g61
(dp4180
g69
I5
ssg70
g4174
sg63
(lp4181
S''
asbasbasbag56
(g72
g58
NtRp4182
(dp4183
g61
(dp4184
sg70
g3824
sg63
(lp4185
g56
(g77
g58
NtRp4186
(dp4187
g61
(dp4188
g81
g82
ssg70
g4182
sg63
(lp4189
S'headers'
p4190
asbag56
(g77
g58
NtRp4191
(dp4192
g61
(dp4193
g88
g89
ssg70
g4182
sg63
(lp4194
S':'
asbag56
(g77
g58
NtRp4195
(dp4196
g61
(dp4197
sg70
g4182
sg63
(lp4198
g56
(g57
g58
NtRp4199
(dp4200
g61
(dp4201
g69
I5
ssg70
g4195
sg63
(lp4202
g56
(g65
g58
NtRp4203
(dp4204
g61
(dp4205
g69
I4
ssg70
Nsg63
(lp4206
g56
(g72
g58
NtRp4207
(dp4208
g61
(dp4209
sg70
g4203
sg63
(lp4210
g56
(g77
g58
NtRp4211
(dp4212
g61
(dp4213
g81
g82
ssg70
g4207
sg63
(lp4214
S'Cache-Control'
p4215
asbag56
(g77
g58
NtRp4216
(dp4217
g61
(dp4218
g88
g89
ssg70
g4207
sg63
(lp4219
S':'
asbag56
(g77
g58
NtRp4220
(dp4221
g61
(dp4222
sg70
g4207
sg63
(lp4223
g56
(g57
g58
NtRp4224
(dp4225
g61
(dp4226
g69
I4
ssg70
g4220
sg63
(lp4227
S'no-store, no-cache, must-revalidate, post-check=0, pre-check=0'
p4228
asbasbasbag56
(g72
g58
NtRp4229
(dp4230
g61
(dp4231
sg70
g4203
sg63
(lp4232
g56
(g77
g58
NtRp4233
(dp4234
g61
(dp4235
g81
g82
ssg70
g4229
sg63
(lp4236
S'Content-Type'
p4237
asbag56
(g77
g58
NtRp4238
(dp4239
g61
(dp4240
g88
g89
ssg70
g4229
sg63
(lp4241
S':'
asbag56
(g77
g58
NtRp4242
(dp4243
g61
(dp4244
sg70
g4229
sg63
(lp4245
g56
(g57
g58
NtRp4246
(dp4247
g61
(dp4248
g69
I4
ssg70
g4242
sg63
(lp4249
S'application/pdf'
p4250
asbasbasbag56
(g72
g58
NtRp4251
(dp4252
g61
(dp4253
sg70
g4203
sg63
(lp4254
g56
(g77
g58
NtRp4255
(dp4256
g61
(dp4257
g81
g82
ssg70
g4251
sg63
(lp4258
S'Expires'
p4259
asbag56
(g77
g58
NtRp4260
(dp4261
g61
(dp4262
g88
g89
ssg70
g4251
sg63
(lp4263
S':'
asbag56
(g77
g58
NtRp4264
(dp4265
g61
(dp4266
sg70
g4251
sg63
(lp4267
g56
(g57
g58
NtRp4268
(dp4269
g61
(dp4270
g69
I4
ssg70
g4264
sg63
(lp4271
S'Thu, 30 Jun 2011 15:22:05 GMT'
p4272
asbasbasbag56
(g72
g58
NtRp4273
(dp4274
g61
(dp4275
sg70
g4203
sg63
(lp4276
g56
(g77
g58
NtRp4277
(dp4278
g61
(dp4279
g81
g82
ssg70
g4273
sg63
(lp4280
S'Pragma'
p4281
asbag56
(g77
g58
NtRp4282
(dp4283
g61
(dp4284
g88
g89
ssg70
g4273
sg63
(lp4285
S':'
asbag56
(g77
g58
NtRp4286
(dp4287
g61
(dp4288
sg70
g4273
sg63
(lp4289
g56
(g57
g58
NtRp4290
(dp4291
g61
(dp4292
g69
I4
ssg70
g4286
sg63
(lp4293
S'no-cache'
p4294
asbasbasbasbasbasbasbag56
(g72
g58
NtRp4295
(dp4296
g61
(dp4297
sg70
g3824
sg63
(lp4298
g56
(g77
g58
NtRp4299
(dp4300
g61
(dp4301
g81
g82
ssg70
g4295
sg63
(lp4302
S'menu'
p4303
asbag56
(g77
g58
NtRp4304
(dp4305
g61
(dp4306
g88
g89
ssg70
g4295
sg63
(lp4307
S':'
asbag56
(g77
g58
NtRp4308
(dp4309
g61
(dp4310
sg70
g4295
sg63
(lp4311
g56
(g57
g58
NtRp4312
(dp4313
g61
(dp4314
g69
I5
ssg70
g4308
sg63
(lp4315
g56
(g65
g58
NtRp4316
(dp4317
g61
(dp4318
g69
I4
ssg70
Nsg63
(lp4319
g56
(g72
g58
NtRp4320
(dp4321
g61
(dp4322
sg70
g4316
sg63
(lp4323
g56
(g77
g58
NtRp4324
(dp4325
g61
(dp4326
sg70
g4320
sg63
(lp4327
g56
(g57
g58
NtRp4328
(dp4329
g61
(dp4330
g69
I4
ssg70
g4324
sg63
(lp4331
g56
(g65
g58
NtRp4332
(dp4333
g61
(dp4334
g69
I3
ssg70
Nsg63
(lp4335
g56
(g72
g58
NtRp4336
(dp4337
g61
(dp4338
sg70
g4332
sg63
(lp4339
g56
(g77
g58
NtRp4340
(dp4341
g61
(dp4342
sg70
g4336
sg63
(lp4343
g56
(g57
g58
NtRp4344
(dp4345
g61
(dp4346
g69
I3
ssg70
g4340
sg63
(lp4347
cgluon.languages
lazyT_unpickle
p4348
(S's\x04\x00\x00\x00Home'
tRp4349
asbasbasbag56
(g72
g58
NtRp4350
(dp4351
g61
(dp4352
sg70
g4332
sg63
(lp4353
g56
(g77
g58
NtRp4354
(dp4355
g61
(dp4356
sg70
g4350
sg63
(lp4357
g56
(g57
g58
NtRp4358
(dp4359
g61
(dp4360
g69
I3
ssg70
g4354
sg63
(lp4361
g99
asbasbasbag56
(g72
g58
NtRp4362
(dp4363
g61
(dp4364
sg70
g4332
sg63
(lp4365
g56
(g77
g58
NtRp4366
(dp4367
g61
(dp4368
sg70
g4362
sg63
(lp4369
g56
(g57
g58
NtRp4370
(dp4371
g61
(dp4372
g69
I3
ssg70
g4366
sg63
(lp4373
S'/rdcdss/default/index'
p4374
asbasbasbag56
(g72
g58
NtRp4375
(dp4376
g61
(dp4377
sg70
g4332
sg63
(lp4378
g56
(g77
g58
NtRp4379
(dp4380
g61
(dp4381
sg70
g4375
sg63
(lp4382
g56
(g57
g58
NtRp4383
(dp4384
g61
(dp4385
g69
I3
ssg70
g4379
sg63
(lp4386
g56
(g65
g58
NtRp4387
(dp4388
g61
(dp4389
g69
I2
ssg70
Nsg63
(lp4390
sbasbasbasbasbasbasbasbag56
(g72
g58
NtRp4391
(dp4392
g61
(dp4393
sg70
g4316
sg63
(lp4394
g56
(g77
g58
NtRp4395
(dp4396
g61
(dp4397
sg70
g4391
sg63
(lp4398
g56
(g57
g58
NtRp4399
(dp4400
g61
(dp4401
g69
I4
ssg70
g4395
sg63
(lp4402
g56
(g65
g58
NtRp4403
(dp4404
g61
(dp4405
g69
I3
ssg70
Nsg63
(lp4406
g56
(g72
g58
NtRp4407
(dp4408
g61
(dp4409
sg70
g4403
sg63
(lp4410
g56
(g77
g58
NtRp4411
(dp4412
g61
(dp4413
sg70
g4407
sg63
(lp4414
g56
(g57
g58
NtRp4415
(dp4416
g61
(dp4417
g69
I3
ssg70
g4411
sg63
(lp4418
g4348
(S's\x08\x00\x00\x00This App'
tRp4419
asbasbasbag56
(g72
g58
NtRp4420
(dp4421
g61
(dp4422
sg70
g4403
sg63
(lp4423
g56
(g77
g58
NtRp4424
(dp4425
g61
(dp4426
sg70
g4420
sg63
(lp4427
g56
(g57
g58
NtRp4428
(dp4429
g61
(dp4430
g69
I3
ssg70
g4424
sg63
(lp4431
g99
asbasbasbag56
(g72
g58
NtRp4432
(dp4433
g61
(dp4434
sg70
g4403
sg63
(lp4435
g56
(g77
g58
NtRp4436
(dp4437
g61
(dp4438
sg70
g4432
sg63
(lp4439
g56
(g57
g58
NtRp4440
(dp4441
g61
(dp4442
g69
I3
ssg70
g4436
sg63
(lp4443
S'/admin/default/design/rdcdss'
p4444
asbasbasbag56
(g72
g58
NtRp4445
(dp4446
g61
(dp4447
sg70
g4403
sg63
(lp4448
g56
(g77
g58
NtRp4449
(dp4450
g61
(dp4451
sg70
g4445
sg63
(lp4452
g56
(g57
g58
NtRp4453
(dp4454
g61
(dp4455
g69
I3
ssg70
g4449
sg63
(lp4456
g56
(g65
g58
NtRp4457
(dp4458
g61
(dp4459
g69
I2
ssg70
Nsg63
(lp4460
g56
(g72
g58
NtRp4461
(dp4462
g61
(dp4463
sg70
g4457
sg63
(lp4464
g56
(g77
g58
NtRp4465
(dp4466
g61
(dp4467
sg70
g4461
sg63
(lp4468
g56
(g57
g58
NtRp4469
(dp4470
g61
(dp4471
g69
I2
ssg70
g4465
sg63
(lp4472
g56
(g65
g58
NtRp4473
(dp4474
g61
(dp4475
g69
I1
ssg70
Nsg63
(lp4476
g56
(g72
g58
NtRp4477
(dp4478
g61
(dp4479
sg70
g4473
sg63
(lp4480
g56
(g77
g58
NtRp4481
(dp4482
g61
(dp4483
sg70
g4477
sg63
(lp4484
g56
(g57
g58
NtRp4485
(dp4486
g61
(dp4487
g69
I1
ssg70
g4481
sg63
(lp4488
g4348
(S's\n\x00\x00\x00Controller'
tRp4489
asbasbasbag56
(g72
g58
NtRp4490
(dp4491
g61
(dp4492
sg70
g4473
sg63
(lp4493
g56
(g77
g58
NtRp4494
(dp4495
g61
(dp4496
sg70
g4490
sg63
(lp4497
g56
(g57
g58
NtRp4498
(dp4499
g61
(dp4500
g69
I1
ssg70
g4494
sg63
(lp4501
I00
asbasbasbag56
(g72
g58
NtRp4502
(dp4503
g61
(dp4504
sg70
g4473
sg63
(lp4505
g56
(g77
g58
NtRp4506
(dp4507
g61
(dp4508
sg70
g4502
sg63
(lp4509
g56
(g57
g58
NtRp4510
(dp4511
g61
(dp4512
g69
I1
ssg70
g4506
sg63
(lp4513
S'/admin/default/edit/rdcdss/controllers/default.py'
p4514
asbasbasbasbasbasbasbag56
(g72
g58
NtRp4515
(dp4516
g61
(dp4517
sg70
g4457
sg63
(lp4518
g56
(g77
g58
NtRp4519
(dp4520
g61
(dp4521
sg70
g4515
sg63
(lp4522
g56
(g57
g58
NtRp4523
(dp4524
g61
(dp4525
g69
I2
ssg70
g4519
sg63
(lp4526
g56
(g65
g58
NtRp4527
(dp4528
g61
(dp4529
g69
I1
ssg70
Nsg63
(lp4530
g56
(g72
g58
NtRp4531
(dp4532
g61
(dp4533
sg70
g4527
sg63
(lp4534
g56
(g77
g58
NtRp4535
(dp4536
g61
(dp4537
sg70
g4531
sg63
(lp4538
g56
(g57
g58
NtRp4539
(dp4540
g61
(dp4541
g69
I1
ssg70
g4535
sg63
(lp4542
g4348
(S's\x04\x00\x00\x00View'
tRp4543
asbasbasbag56
(g72
g58
NtRp4544
(dp4545
g61
(dp4546
sg70
g4527
sg63
(lp4547
g56
(g77
g58
NtRp4548
(dp4549
g61
(dp4550
sg70
g4544
sg63
(lp4551
g56
(g57
g58
NtRp4552
(dp4553
g61
(dp4554
g69
I1
ssg70
g4548
sg63
(lp4555
I00
asbasbasbag56
(g72
g58
NtRp4556
(dp4557
g61
(dp4558
sg70
g4527
sg63
(lp4559
g56
(g77
g58
NtRp4560
(dp4561
g61
(dp4562
sg70
g4556
sg63
(lp4563
g56
(g57
g58
NtRp4564
(dp4565
g61
(dp4566
g69
I1
ssg70
g4560
sg63
(lp4567
S'/admin/default/edit/rdcdss/views/default/index.pdf'
p4568
asbasbasbasbasbasbasbag56
(g72
g58
NtRp4569
(dp4570
g61
(dp4571
sg70
g4457
sg63
(lp4572
g56
(g77
g58
NtRp4573
(dp4574
g61
(dp4575
sg70
g4569
sg63
(lp4576
g56
(g57
g58
NtRp4577
(dp4578
g61
(dp4579
g69
I2
ssg70
g4573
sg63
(lp4580
g56
(g65
g58
NtRp4581
(dp4582
g61
(dp4583
g69
I1
ssg70
Nsg63
(lp4584
g56
(g72
g58
NtRp4585
(dp4586
g61
(dp4587
sg70
g4581
sg63
(lp4588
g56
(g77
g58
NtRp4589
(dp4590
g61
(dp4591
sg70
g4585
sg63
(lp4592
g56
(g57
g58
NtRp4593
(dp4594
g61
(dp4595
g69
I1
ssg70
g4589
sg63
(lp4596
g4348
(S's\x06\x00\x00\x00Layout'
tRp4597
asbasbasbag56
(g72
g58
NtRp4598
(dp4599
g61
(dp4600
sg70
g4581
sg63
(lp4601
g56
(g77
g58
NtRp4602
(dp4603
g61
(dp4604
sg70
g4598
sg63
(lp4605
g56
(g57
g58
NtRp4606
(dp4607
g61
(dp4608
g69
I1
ssg70
g4602
sg63
(lp4609
I00
asbasbasbag56
(g72
g58
NtRp4610
(dp4611
g61
(dp4612
sg70
g4581
sg63
(lp4613
g56
(g77
g58
NtRp4614
(dp4615
g61
(dp4616
sg70
g4610
sg63
(lp4617
g56
(g57
g58
NtRp4618
(dp4619
g61
(dp4620
g69
I1
ssg70
g4614
sg63
(lp4621
S'/admin/default/edit/rdcdss/views/layout.html'
p4622
asbasbasbasbasbasbasbag56
(g72
g58
NtRp4623
(dp4624
g61
(dp4625
sg70
g4457
sg63
(lp4626
g56
(g77
g58
NtRp4627
(dp4628
g61
(dp4629
sg70
g4623
sg63
(lp4630
g56
(g57
g58
NtRp4631
(dp4632
g61
(dp4633
g69
I2
ssg70
g4627
sg63
(lp4634
g56
(g65
g58
NtRp4635
(dp4636
g61
(dp4637
g69
I1
ssg70
Nsg63
(lp4638
g56
(g72
g58
NtRp4639
(dp4640
g61
(dp4641
sg70
g4635
sg63
(lp4642
g56
(g77
g58
NtRp4643
(dp4644
g61
(dp4645
sg70
g4639
sg63
(lp4646
g56
(g57
g58
NtRp4647
(dp4648
g61
(dp4649
g69
I1
ssg70
g4643
sg63
(lp4650
g4348
(S's\n\x00\x00\x00Stylesheet'
tRp4651
asbasbasbag56
(g72
g58
NtRp4652
(dp4653
g61
(dp4654
sg70
g4635
sg63
(lp4655
g56
(g77
g58
NtRp4656
(dp4657
g61
(dp4658
sg70
g4652
sg63
(lp4659
g56
(g57
g58
NtRp4660
(dp4661
g61
(dp4662
g69
I1
ssg70
g4656
sg63
(lp4663
I00
asbasbasbag56
(g72
g58
NtRp4664
(dp4665
g61
(dp4666
sg70
g4635
sg63
(lp4667
g56
(g77
g58
NtRp4668
(dp4669
g61
(dp4670
sg70
g4664
sg63
(lp4671
g56
(g57
g58
NtRp4672
(dp4673
g61
(dp4674
g69
I1
ssg70
g4668
sg63
(lp4675
S'/admin/default/edit/rdcdss/static/base.css'
p4676
asbasbasbasbasbasbasbag56
(g72
g58
NtRp4677
(dp4678
g61
(dp4679
sg70
g4457
sg63
(lp4680
g56
(g77
g58
NtRp4681
(dp4682
g61
(dp4683
sg70
g4677
sg63
(lp4684
g56
(g57
g58
NtRp4685
(dp4686
g61
(dp4687
g69
I2
ssg70
g4681
sg63
(lp4688
g56
(g65
g58
NtRp4689
(dp4690
g61
(dp4691
g69
I1
ssg70
Nsg63
(lp4692
g56
(g72
g58
NtRp4693
(dp4694
g61
(dp4695
sg70
g4689
sg63
(lp4696
g56
(g77
g58
NtRp4697
(dp4698
g61
(dp4699
sg70
g4693
sg63
(lp4700
g56
(g57
g58
NtRp4701
(dp4702
g61
(dp4703
g69
I1
ssg70
g4697
sg63
(lp4704
g4348
(S's\x08\x00\x00\x00DB Model'
tRp4705
asbasbasbag56
(g72
g58
NtRp4706
(dp4707
g61
(dp4708
sg70
g4689
sg63
(lp4709
g56
(g77
g58
NtRp4710
(dp4711
g61
(dp4712
sg70
g4706
sg63
(lp4713
g56
(g57
g58
NtRp4714
(dp4715
g61
(dp4716
g69
I1
ssg70
g4710
sg63
(lp4717
I00
asbasbasbag56
(g72
g58
NtRp4718
(dp4719
g61
(dp4720
sg70
g4689
sg63
(lp4721
g56
(g77
g58
NtRp4722
(dp4723
g61
(dp4724
sg70
g4718
sg63
(lp4725
g56
(g57
g58
NtRp4726
(dp4727
g61
(dp4728
g69
I1
ssg70
g4722
sg63
(lp4729
S'/admin/default/edit/rdcdss/models/db.py'
p4730
asbasbasbasbasbasbasbag56
(g72
g58
NtRp4731
(dp4732
g61
(dp4733
sg70
g4457
sg63
(lp4734
g56
(g77
g58
NtRp4735
(dp4736
g61
(dp4737
sg70
g4731
sg63
(lp4738
g56
(g57
g58
NtRp4739
(dp4740
g61
(dp4741
g69
I2
ssg70
g4735
sg63
(lp4742
g56
(g65
g58
NtRp4743
(dp4744
g61
(dp4745
g69
I1
ssg70
Nsg63
(lp4746
g56
(g72
g58
NtRp4747
(dp4748
g61
(dp4749
sg70
g4743
sg63
(lp4750
g56
(g77
g58
NtRp4751
(dp4752
g61
(dp4753
sg70
g4747
sg63
(lp4754
g56
(g57
g58
NtRp4755
(dp4756
g61
(dp4757
g69
I1
ssg70
g4751
sg63
(lp4758
g4348
(S's\n\x00\x00\x00Menu Model'
tRp4759
asbasbasbag56
(g72
g58
NtRp4760
(dp4761
g61
(dp4762
sg70
g4743
sg63
(lp4763
g56
(g77
g58
NtRp4764
(dp4765
g61
(dp4766
sg70
g4760
sg63
(lp4767
g56
(g57
g58
NtRp4768
(dp4769
g61
(dp4770
g69
I1
ssg70
g4764
sg63
(lp4771
I00
asbasbasbag56
(g72
g58
NtRp4772
(dp4773
g61
(dp4774
sg70
g4743
sg63
(lp4775
g56
(g77
g58
NtRp4776
(dp4777
g61
(dp4778
sg70
g4772
sg63
(lp4779
g56
(g57
g58
NtRp4780
(dp4781
g61
(dp4782
g69
I1
ssg70
g4776
sg63
(lp4783
S'/admin/default/edit/rdcdss/models/menu.py'
p4784
asbasbasbasbasbasbasbag56
(g72
g58
NtRp4785
(dp4786
g61
(dp4787
sg70
g4457
sg63
(lp4788
g56
(g77
g58
NtRp4789
(dp4790
g61
(dp4791
sg70
g4785
sg63
(lp4792
g56
(g57
g58
NtRp4793
(dp4794
g61
(dp4795
g69
I2
ssg70
g4789
sg63
(lp4796
g56
(g65
g58
NtRp4797
(dp4798
g61
(dp4799
g69
I1
ssg70
Nsg63
(lp4800
g56
(g72
g58
NtRp4801
(dp4802
g61
(dp4803
sg70
g4797
sg63
(lp4804
g56
(g77
g58
NtRp4805
(dp4806
g61
(dp4807
sg70
g4801
sg63
(lp4808
g56
(g57
g58
NtRp4809
(dp4810
g61
(dp4811
g69
I1
ssg70
g4805
sg63
(lp4812
g4348
(S's\x08\x00\x00\x00Database'
tRp4813
asbasbasbag56
(g72
g58
NtRp4814
(dp4815
g61
(dp4816
sg70
g4797
sg63
(lp4817
g56
(g77
g58
NtRp4818
(dp4819
g61
(dp4820
sg70
g4814
sg63
(lp4821
g56
(g57
g58
NtRp4822
(dp4823
g61
(dp4824
g69
I1
ssg70
g4818
sg63
(lp4825
I00
asbasbasbag56
(g72
g58
NtRp4826
(dp4827
g61
(dp4828
sg70
g4797
sg63
(lp4829
g56
(g77
g58
NtRp4830
(dp4831
g61
(dp4832
sg70
g4826
sg63
(lp4833
g56
(g57
g58
NtRp4834
(dp4835
g61
(dp4836
g69
I1
ssg70
g4830
sg63
(lp4837
S'/rdcdss/appadmin/index'
p4838
asbasbasbasbasbasbasbag56
(g72
g58
NtRp4839
(dp4840
g61
(dp4841
sg70
g4457
sg63
(lp4842
g56
(g77
g58
NtRp4843
(dp4844
g61
(dp4845
sg70
g4839
sg63
(lp4846
g56
(g57
g58
NtRp4847
(dp4848
g61
(dp4849
g69
I2
ssg70
g4843
sg63
(lp4850
g56
(g65
g58
NtRp4851
(dp4852
g61
(dp4853
g69
I1
ssg70
Nsg63
(lp4854
g56
(g72
g58
NtRp4855
(dp4856
g61
(dp4857
sg70
g4851
sg63
(lp4858
g56
(g77
g58
NtRp4859
(dp4860
g61
(dp4861
sg70
g4855
sg63
(lp4862
g56
(g57
g58
NtRp4863
(dp4864
g61
(dp4865
g69
I1
ssg70
g4859
sg63
(lp4866
g4348
(S's\x06\x00\x00\x00Errors'
tRp4867
asbasbasbag56
(g72
g58
NtRp4868
(dp4869
g61
(dp4870
sg70
g4851
sg63
(lp4871
g56
(g77
g58
NtRp4872
(dp4873
g61
(dp4874
sg70
g4868
sg63
(lp4875
g56
(g57
g58
NtRp4876
(dp4877
g61
(dp4878
g69
I1
ssg70
g4872
sg63
(lp4879
I00
asbasbasbag56
(g72
g58
NtRp4880
(dp4881
g61
(dp4882
sg70
g4851
sg63
(lp4883
g56
(g77
g58
NtRp4884
(dp4885
g61
(dp4886
sg70
g4880
sg63
(lp4887
g56
(g57
g58
NtRp4888
(dp4889
g61
(dp4890
g69
I1
ssg70
g4884
sg63
(lp4891
S'/admin/default/errors/rdcdss'
p4892
asbasbasbasbasbasbasbag56
(g72
g58
NtRp4893
(dp4894
g61
(dp4895
sg70
g4457
sg63
(lp4896
g56
(g77
g58
NtRp4897
(dp4898
g61
(dp4899
sg70
g4893
sg63
(lp4900
g56
(g57
g58
NtRp4901
(dp4902
g61
(dp4903
g69
I2
ssg70
g4897
sg63
(lp4904
g56
(g65
g58
NtRp4905
(dp4906
g61
(dp4907
g69
I1
ssg70
Nsg63
(lp4908
g56
(g72
g58
NtRp4909
(dp4910
g61
(dp4911
sg70
g4905
sg63
(lp4912
g56
(g77
g58
NtRp4913
(dp4914
g61
(dp4915
sg70
g4909
sg63
(lp4916
g56
(g57
g58
NtRp4917
(dp4918
g61
(dp4919
g69
I1
ssg70
g4913
sg63
(lp4920
g4348
(S's\x05\x00\x00\x00About'
tRp4921
asbasbasbag56
(g72
g58
NtRp4922
(dp4923
g61
(dp4924
sg70
g4905
sg63
(lp4925
g56
(g77
g58
NtRp4926
(dp4927
g61
(dp4928
sg70
g4922
sg63
(lp4929
g56
(g57
g58
NtRp4930
(dp4931
g61
(dp4932
g69
I1
ssg70
g4926
sg63
(lp4933
I00
asbasbasbag56
(g72
g58
NtRp4934
(dp4935
g61
(dp4936
sg70
g4905
sg63
(lp4937
g56
(g77
g58
NtRp4938
(dp4939
g61
(dp4940
sg70
g4934
sg63
(lp4941
g56
(g57
g58
NtRp4942
(dp4943
g61
(dp4944
g69
I1
ssg70
g4938
sg63
(lp4945
S'/admin/default/about/rdcdss'
p4946
asbasbasbasbasbasbasbasbasbasbasbasbasbasbasbag56
(g72
g58
NtRp4947
(dp4948
g61
(dp4949
sg70
g4316
sg63
(lp4950
g56
(g77
g58
NtRp4951
(dp4952
g61
(dp4953
sg70
g4947
sg63
(lp4954
g56
(g57
g58
NtRp4955
(dp4956
g61
(dp4957
g69
I4
ssg70
g4951
sg63
(lp4958
g56
(g65
g58
NtRp4959
(dp4960
g61
(dp4961
g69
I3
ssg70
Nsg63
(lp4962
g56
(g72
g58
NtRp4963
(dp4964
g61
(dp4965
sg70
g4959
sg63
(lp4966
g56
(g77
g58
NtRp4967
(dp4968
g61
(dp4969
sg70
g4963
sg63
(lp4970
g56
(g57
g58
NtRp4971
(dp4972
g61
(dp4973
g69
I3
ssg70
g4967
sg63
(lp4974
g4348
(S's\t\x00\x00\x00Resources'
tRp4975
asbasbasbag56
(g72
g58
NtRp4976
(dp4977
g61
(dp4978
sg70
g4959
sg63
(lp4979
g56
(g77
g58
NtRp4980
(dp4981
g61
(dp4982
sg70
g4976
sg63
(lp4983
g56
(g57
g58
NtRp4984
(dp4985
g61
(dp4986
g69
I3
ssg70
g4980
sg63
(lp4987
g99
asbasbasbag56
(g72
g58
NtRp4988
(dp4989
g61
(dp4990
sg70
g4959
sg63
(lp4991
g56
(g77
g58
NtRp4992
(dp4993
g61
(dp4994
sg70
g4988
sg63
(lp4995
g56
(g57
g58
NtRp4996
(dp4997
g61
(dp4998
g69
I3
ssg70
g4992
sg63
(lp4999
S'None'
p5000
asbasbasbag56
(g72
g58
NtRp5001
(dp5002
g61
(dp5003
sg70
g4959
sg63
(lp5004
g56
(g77
g58
NtRp5005
(dp5006
g61
(dp5007
sg70
g5001
sg63
(lp5008
g56
(g57
g58
NtRp5009
(dp5010
g61
(dp5011
g69
I3
ssg70
g5005
sg63
(lp5012
g56
(g65
g58
NtRp5013
(dp5014
g61
(dp5015
g69
I2
ssg70
Nsg63
(lp5016
g56
(g72
g58
NtRp5017
(dp5018
g61
(dp5019
sg70
g5013
sg63
(lp5020
g56
(g77
g58
NtRp5021
(dp5022
g61
(dp5023
sg70
g5017
sg63
(lp5024
g56
(g57
g58
NtRp5025
(dp5026
g61
(dp5027
g69
I2
ssg70
g5021
sg63
(lp5028
g56
(g65
g58
NtRp5029
(dp5030
g61
(dp5031
g69
I1
ssg70
Nsg63
(lp5032
g56
(g72
g58
NtRp5033
(dp5034
g61
(dp5035
sg70
g5029
sg63
(lp5036
g56
(g77
g58
NtRp5037
(dp5038
g61
(dp5039
sg70
g5033
sg63
(lp5040
g56
(g57
g58
NtRp5041
(dp5042
g61
(dp5043
g69
I1
ssg70
g5037
sg63
(lp5044
g4348
(S's\r\x00\x00\x00Documentation'
tRp5045
asbasbasbag56
(g72
g58
NtRp5046
(dp5047
g61
(dp5048
sg70
g5029
sg63
(lp5049
g56
(g77
g58
NtRp5050
(dp5051
g61
(dp5052
sg70
g5046
sg63
(lp5053
g56
(g57
g58
NtRp5054
(dp5055
g61
(dp5056
g69
I1
ssg70
g5050
sg63
(lp5057
I00
asbasbasbag56
(g72
g58
NtRp5058
(dp5059
g61
(dp5060
sg70
g5029
sg63
(lp5061
g56
(g77
g58
NtRp5062
(dp5063
g61
(dp5064
sg70
g5058
sg63
(lp5065
g56
(g57
g58
NtRp5066
(dp5067
g61
(dp5068
g69
I1
ssg70
g5062
sg63
(lp5069
S'http://www.web2py.com/book'
p5070
asbasbasbag56
(g72
g58
NtRp5071
(dp5072
g61
(dp5073
sg70
g5029
sg63
(lp5074
g56
(g77
g58
NtRp5075
(dp5076
g61
(dp5077
sg70
g5071
sg63
(lp5078
g56
(g57
g58
NtRp5079
(dp5080
g61
(dp5081
g69
I1
ssg70
g5075
sg63
(lp5082
(lp5083
(g4348
(S's\x07\x00\x00\x00Preface'
tRp5084
I00
S'http://www.web2py.com/book/default/chapter/00'
tp5085
a(g4348
(S's\x0c\x00\x00\x00Introduction'
tRp5086
I00
S'http://www.web2py.com/book/default/chapter/01'
tp5087
a(g4348
(S's\x06\x00\x00\x00Python'
tRp5088
I00
S'http://www.web2py.com/book/default/chapter/02'
tp5089
a(g4348
(S's\x08\x00\x00\x00Overview'
tRp5090
I00
S'http://www.web2py.com/book/default/chapter/03'
tp5091
a(g4348
(S's\x08\x00\x00\x00The Core'
tRp5092
I00
S'http://www.web2py.com/book/default/chapter/04'
tp5093
a(g4348
(S's\t\x00\x00\x00The Views'
tRp5094
I00
S'http://www.web2py.com/book/default/chapter/05'
tp5095
a(g4348
(S's\x08\x00\x00\x00Database'
tRp5096
I00
S'http://www.web2py.com/book/default/chapter/06'
tp5097
a(g4348
(S's\x14\x00\x00\x00Forms and Validators'
tRp5098
I00
S'http://www.web2py.com/book/default/chapter/07'
tp5099
a(g4348
(S's\x0e\x00\x00\x00Access Control'
tRp5100
I00
S'http://www.web2py.com/book/default/chapter/08'
tp5101
a(g4348
(S's\x08\x00\x00\x00Services'
tRp5102
I00
S'http://www.web2py.com/book/default/chapter/09'
tp5103
a(g4348
(S's\x0c\x00\x00\x00Ajax Recipes'
tRp5104
I00
S'http://www.web2py.com/book/default/chapter/10'
tp5105
a(g4348
(S's\x12\x00\x00\x00Deployment Recipes'
tRp5106
I00
S'http://www.web2py.com/book/default/chapter/11'
tp5107
a(g4348
(S's\r\x00\x00\x00Other Recipes'
tRp5108
I00
S'http://www.web2py.com/book/default/chapter/12'
tp5109
a(g4348
(S's\r\x00\x00\x00Buy this book'
tRp5110
I00
S'http://stores.lulu.com/web2py'
tp5111
aasbasbasbasbasbasbasbag56
(g72
g58
NtRp5112
(dp5113
g61
(dp5114
sg70
g5013
sg63
(lp5115
g56
(g77
g58
NtRp5116
(dp5117
g61
(dp5118
sg70
g5112
sg63
(lp5119
g56
(g57
g58
NtRp5120
(dp5121
g61
(dp5122
g69
I2
ssg70
g5116
sg63
(lp5123
g56
(g65
g58
NtRp5124
(dp5125
g61
(dp5126
g69
I1
ssg70
Nsg63
(lp5127
g56
(g72
g58
NtRp5128
(dp5129
g61
(dp5130
sg70
g5124
sg63
(lp5131
g56
(g77
g58
NtRp5132
(dp5133
g61
(dp5134
sg70
g5128
sg63
(lp5135
g56
(g57
g58
NtRp5136
(dp5137
g61
(dp5138
g69
I1
ssg70
g5132
sg63
(lp5139
g4348
(S's\t\x00\x00\x00Community'
tRp5140
asbasbasbag56
(g72
g58
NtRp5141
(dp5142
g61
(dp5143
sg70
g5124
sg63
(lp5144
g56
(g77
g58
NtRp5145
(dp5146
g61
(dp5147
sg70
g5141
sg63
(lp5148
g56
(g57
g58
NtRp5149
(dp5150
g61
(dp5151
g69
I1
ssg70
g5145
sg63
(lp5152
I00
asbasbasbag56
(g72
g58
NtRp5153
(dp5154
g61
(dp5155
sg70
g5124
sg63
(lp5156
g56
(g77
g58
NtRp5157
(dp5158
g61
(dp5159
sg70
g5153
sg63
(lp5160
g56
(g57
g58
NtRp5161
(dp5162
g61
(dp5163
g69
I1
ssg70
g5157
sg63
(lp5164
Nasbasbasbag56
(g72
g58
NtRp5165
(dp5166
g61
(dp5167
sg70
g5124
sg63
(lp5168
g56
(g77
g58
NtRp5169
(dp5170
g61
(dp5171
sg70
g5165
sg63
(lp5172
g56
(g57
g58
NtRp5173
(dp5174
g61
(dp5175
g69
I1
ssg70
g5169
sg63
(lp5176
(lp5177
(g4348
(S's\x06\x00\x00\x00Groups'
tRp5178
I00
S'http://www.web2py.com/examples/default/usergroups'
tp5179
a(g4348
(S's\x07\x00\x00\x00Twitter'
tRp5180
I00
S'http://twitter.com/web2py'
tp5181
a(g4348
(S's\t\x00\x00\x00Live chat'
tRp5182
I00
S'http://mibbit.com/?channel=%23web2py&server=irc.mibbit.net'
tp5183
a(g4348
(S's\n\x00\x00\x00User Voice'
tRp5184
I00
S'http://web2py.uservoice.com/'
tp5185
aasbasbasbasbasbasbasbag56
(g72
g58
NtRp5186
(dp5187
g61
(dp5188
sg70
g5013
sg63
(lp5189
g56
(g77
g58
NtRp5190
(dp5191
g61
(dp5192
sg70
g5186
sg63
(lp5193
g56
(g57
g58
NtRp5194
(dp5195
g61
(dp5196
g69
I2
ssg70
g5190
sg63
(lp5197
g56
(g65
g58
NtRp5198
(dp5199
g61
(dp5200
g69
I1
ssg70
Nsg63
(lp5201
g56
(g72
g58
NtRp5202
(dp5203
g61
(dp5204
sg70
g5198
sg63
(lp5205
g56
(g77
g58
NtRp5206
(dp5207
g61
(dp5208
sg70
g5202
sg63
(lp5209
g56
(g57
g58
NtRp5210
(dp5211
g61
(dp5212
g69
I1
ssg70
g5206
sg63
(lp5213
g4348
(S's\x06\x00\x00\x00Web2py'
tRp5214
asbasbasbag56
(g72
g58
NtRp5215
(dp5216
g61
(dp5217
sg70
g5198
sg63
(lp5218
g56
(g77
g58
NtRp5219
(dp5220
g61
(dp5221
sg70
g5215
sg63
(lp5222
g56
(g57
g58
NtRp5223
(dp5224
g61
(dp5225
g69
I1
ssg70
g5219
sg63
(lp5226
I00
asbasbasbag56
(g72
g58
NtRp5227
(dp5228
g61
(dp5229
sg70
g5198
sg63
(lp5230
g56
(g77
g58
NtRp5231
(dp5232
g61
(dp5233
sg70
g5227
sg63
(lp5234
g56
(g57
g58
NtRp5235
(dp5236
g61
(dp5237
g69
I1
ssg70
g5231
sg63
(lp5238
S'http://www.web2py.com'
p5239
asbasbasbag56
(g72
g58
NtRp5240
(dp5241
g61
(dp5242
sg70
g5198
sg63
(lp5243
g56
(g77
g58
NtRp5244
(dp5245
g61
(dp5246
sg70
g5240
sg63
(lp5247
g56
(g57
g58
NtRp5248
(dp5249
g61
(dp5250
g69
I1
ssg70
g5244
sg63
(lp5251
(lp5252
(g4348
(S's\x08\x00\x00\x00Download'
tRp5253
I00
S'http://www.web2py.com/examples/default/download'
tp5254
a(g4348
(S's\x07\x00\x00\x00Support'
tRp5255
I00
S'http://www.web2py.com/examples/default/support'
tp5256
a(g4348
(S's\x0e\x00\x00\x00Quick Examples'
tRp5257
I00
S'http://web2py.com/examples/default/examples'
tp5258
a(g4348
(S's\x03\x00\x00\x00FAQ'
tRp5259
I00
S'http://web2py.com/AlterEgo'
tp5260
a(g4348
(S's\x11\x00\x00\x00Free Applications'
tRp5261
I00
S'http://web2py.com/appliances'
tp5262
a(g4348
(S's\x07\x00\x00\x00Plugins'
tRp5263
I00
S'http://web2py.com/plugins'
tp5264
a(g4348
(S's\x07\x00\x00\x00Recipes'
tRp5265
I00
S'http://web2pyslices.com/'
tp5266
a(g4348
(S's\x04\x00\x00\x00Demo'
tRp5267
I00
S'http://web2py.com/demo_admin'
tp5268
a(g4348
(S's\x08\x00\x00\x00Semantic'
tRp5269
I00
S'http://web2py.com/semantic'
tp5270
a(g4348
(S's\x07\x00\x00\x00Layouts'
tRp5271
I00
S'http://web2py.com/layouts'
tp5272
a(g4348
(S's\x06\x00\x00\x00Videos'
tRp5273
I00
S'http://www.web2py.com/examples/default/videos/'
tp5274
aasbasbasbasbasbasbasbasbasbasbasbasbasbasbasbasbasbasbasbag56
(g72
g58
NtRp5275
(dp5276
g61
(dp5277
sg70
g3824
sg63
(lp5278
g56
(g77
g58
NtRp5279
(dp5280
g61
(dp5281
g81
g82
ssg70
g5275
sg63
(lp5282
S'meta'
p5283
asbag56
(g77
g58
NtRp5284
(dp5285
g61
(dp5286
g88
g89
ssg70
g5275
sg63
(lp5287
S':'
asbag56
(g77
g58
NtRp5288
(dp5289
g61
(dp5290
sg70
g5275
sg63
(lp5291
g56
(g57
g58
NtRp5292
(dp5293
g61
(dp5294
g69
I5
ssg70
g5288
sg63
(lp5295
g56
(g65
g58
NtRp5296
(dp5297
g61
(dp5298
g69
I4
ssg70
Nsg63
(lp5299
g56
(g72
g58
NtRp5300
(dp5301
g61
(dp5302
sg70
g5296
sg63
(lp5303
g56
(g77
g58
NtRp5304
(dp5305
g61
(dp5306
g81
g82
ssg70
g5300
sg63
(lp5307
S'author'
p5308
asbag56
(g77
g58
NtRp5309
(dp5310
g61
(dp5311
g88
g89
ssg70
g5300
sg63
(lp5312
S':'
asbag56
(g77
g58
NtRp5313
(dp5314
g61
(dp5315
sg70
g5300
sg63
(lp5316
g56
(g57
g58
NtRp5317
(dp5318
g61
(dp5319
g69
I4
ssg70
g5313
sg63
(lp5320
S'you'
p5321
asbasbasbag56
(g72
g58
NtRp5322
(dp5323
g61
(dp5324
sg70
g5296
sg63
(lp5325
g56
(g77
g58
NtRp5326
(dp5327
g61
(dp5328
g81
g82
ssg70
g5322
sg63
(lp5329
S'copyright'
p5330
asbag56
(g77
g58
NtRp5331
(dp5332
g61
(dp5333
g88
g89
ssg70
g5322
sg63
(lp5334
S':'
asbag56
(g77
g58
NtRp5335
(dp5336
g61
(dp5337
sg70
g5322
sg63
(lp5338
g56
(g57
g58
NtRp5339
(dp5340
g61
(dp5341
g69
I4
ssg70
g5335
sg63
(lp5342
S'Copyright 2007-2010'
p5343
asbasbasbag56
(g72
g58
NtRp5344
(dp5345
g61
(dp5346
sg70
g5296
sg63
(lp5347
g56
(g77
g58
NtRp5348
(dp5349
g61
(dp5350
g81
g82
ssg70
g5344
sg63
(lp5351
S'description'
p5352
asbag56
(g77
g58
NtRp5353
(dp5354
g61
(dp5355
g88
g89
ssg70
g5344
sg63
(lp5356
S':'
asbag56
(g77
g58
NtRp5357
(dp5358
g61
(dp5359
sg70
g5344
sg63
(lp5360
g56
(g57
g58
NtRp5361
(dp5362
g61
(dp5363
g69
I4
ssg70
g5357
sg63
(lp5364
S'Free and open source full-stack enterprise framework for agile development of fast, scalable, secure and portable database-driven web-based applications. Written and programmable in Python'
p5365
asbasbasbag56
(g72
g58
NtRp5366
(dp5367
g61
(dp5368
sg70
g5296
sg63
(lp5369
g56
(g77
g58
NtRp5370
(dp5371
g61
(dp5372
g81
g82
ssg70
g5366
sg63
(lp5373
S'generator'
p5374
asbag56
(g77
g58
NtRp5375
(dp5376
g61
(dp5377
g88
g89
ssg70
g5366
sg63
(lp5378
S':'
asbag56
(g77
g58
NtRp5379
(dp5380
g61
(dp5381
sg70
g5366
sg63
(lp5382
g56
(g57
g58
NtRp5383
(dp5384
g61
(dp5385
g69
I4
ssg70
g5379
sg63
(lp5386
S'Web2py Enterprise Framework'
p5387
asbasbasbag56
(g72
g58
NtRp5388
(dp5389
g61
(dp5390
sg70
g5296
sg63
(lp5391
g56
(g77
g58
NtRp5392
(dp5393
g61
(dp5394
g81
g82
ssg70
g5388
sg63
(lp5395
S'keywords'
p5396
asbag56
(g77
g58
NtRp5397
(dp5398
g61
(dp5399
g88
g89
ssg70
g5388
sg63
(lp5400
S':'
asbag56
(g77
g58
NtRp5401
(dp5402
g61
(dp5403
sg70
g5388
sg63
(lp5404
g56
(g57
g58
NtRp5405
(dp5406
g61
(dp5407
g69
I4
ssg70
g5401
sg63
(lp5408
S'web2py, python, framework'
p5409
asbasbasbasbasbasbasbag56
(g72
g58
NtRp5410
(dp5411
g61
(dp5412
sg70
g3824
sg63
(lp5413
g56
(g77
g58
NtRp5414
(dp5415
g61
(dp5416
g81
g82
ssg70
g5410
sg63
(lp5417
S'postprocessing'
p5418
asbag56
(g77
g58
NtRp5419
(dp5420
g61
(dp5421
g88
g89
ssg70
g5410
sg63
(lp5422
S':'
asbag56
(g77
g58
NtRp5423
(dp5424
g61
(dp5425
sg70
g5410
sg63
(lp5426
g56
(g57
g58
NtRp5427
(dp5428
g61
(dp5429
g69
I5
ssg70
g5423
sg63
(lp5430
g56
(g65
g58
NtRp5431
(dp5432
g61
(dp5433
g69
I4
ssg70
Nsg63
(lp5434
sbasbasbasbag56
(g72
g58
NtRp5435
(dp5436
g61
(dp5437
sg70
g3824
sg63
(lp5438
g56
(g77
g58
NtRp5439
(dp5440
g61
(dp5441
g81
g82
ssg70
g5435
sg63
(lp5442
S'session_file'
p5443
asbag56
(g77
g58
NtRp5444
(dp5445
g61
(dp5446
g88
g89
ssg70
g5435
sg63
(lp5447
S':'
asbag56
(g77
g58
NtRp5448
(dp5449
g61
(dp5450
sg70
g5435
sg63
(lp5451
g56
(g57
g58
NtRp5452
(dp5453
g61
(dp5454
g69
I5
ssg70
g5448
sg63
(lp5455
S"<open file '/home/www-data/web2py/applications/rdcdss/sessions/89.123.2.193-4e1de357-5b7c-4409-92bc-12a58f0742b6', mode 'rb+' at 0x2b9be09faf60>"
p5456
asbasbasbag56
(g72
g58
NtRp5457
(dp5458
g61
(dp5459
sg70
g3824
sg63
(lp5460
g56
(g77
g58
NtRp5461
(dp5462
g61
(dp5463
g81
g82
ssg70
g5457
sg63
(lp5464
S'session_filename'
p5465
asbag56
(g77
g58
NtRp5466
(dp5467
g61
(dp5468
g88
g89
ssg70
g5457
sg63
(lp5469
S':'
asbag56
(g77
g58
NtRp5470
(dp5471
g61
(dp5472
sg70
g5457
sg63
(lp5473
g56
(g57
g58
NtRp5474
(dp5475
g61
(dp5476
g69
I5
ssg70
g5470
sg63
(lp5477
S'/home/www-data/web2py/applications/rdcdss/sessions/89.123.2.193-4e1de357-5b7c-4409-92bc-12a58f0742b6'
p5478
asbasbasbag56
(g72
g58
NtRp5479
(dp5480
g61
(dp5481
sg70
g3824
sg63
(lp5482
g56
(g77
g58
NtRp5483
(dp5484
g61
(dp5485
g81
g82
ssg70
g5479
sg63
(lp5486
S'session_id'
p5487
asbag56
(g77
g58
NtRp5488
(dp5489
g61
(dp5490
g88
g89
ssg70
g5479
sg63
(lp5491
S':'
asbag56
(g77
g58
NtRp5492
(dp5493
g61
(dp5494
sg70
g5479
sg63
(lp5495
g56
(g57
g58
NtRp5496
(dp5497
g61
(dp5498
g69
I5
ssg70
g5492
sg63
(lp5499
S'89.123.2.193-4e1de357-5b7c-4409-92bc-12a58f0742b6'
p5500
asbasbasbag56
(g72
g58
NtRp5501
(dp5502
g61
(dp5503
sg70
g3824
sg63
(lp5504
g56
(g77
g58
NtRp5505
(dp5506
g61
(dp5507
g81
g82
ssg70
g5501
sg63
(lp5508
S'session_id_name'
p5509
asbag56
(g77
g58
NtRp5510
(dp5511
g61
(dp5512
g88
g89
ssg70
g5501
sg63
(lp5513
S':'
asbag56
(g77
g58
NtRp5514
(dp5515
g61
(dp5516
sg70
g5501
sg63
(lp5517
g56
(g57
g58
NtRp5518
(dp5519
g61
(dp5520
g69
I5
ssg70
g5514
sg63
(lp5521
g3881
asbasbasbag56
(g72
g58
NtRp5522
(dp5523
g61
(dp5524
sg70
g3824
sg63
(lp5525
g56
(g77
g58
NtRp5526
(dp5527
g61
(dp5528
g81
g82
ssg70
g5522
sg63
(lp5529
S'session_locked'
p5530
asbag56
(g77
g58
NtRp5531
(dp5532
g61
(dp5533
g88
g89
ssg70
g5522
sg63
(lp5534
S':'
asbag56
(g77
g58
NtRp5535
(dp5536
g61
(dp5537
sg70
g5522
sg63
(lp5538
g56
(g57
g58
NtRp5539
(dp5540
g61
(dp5541
g69
I5
ssg70
g5535
sg63
(lp5542
g2146
asbasbasbag56
(g72
g58
NtRp5543
(dp5544
g61
(dp5545
sg70
g3824
sg63
(lp5546
g56
(g77
g58
NtRp5547
(dp5548
g61
(dp5549
g81
g82
ssg70
g5543
sg63
(lp5550
S'session_new'
p5551
asbag56
(g77
g58
NtRp5552
(dp5553
g61
(dp5554
g88
g89
ssg70
g5543
sg63
(lp5555
S':'
asbag56
(g77
g58
NtRp5556
(dp5557
g61
(dp5558
sg70
g5543
sg63
(lp5559
g56
(g57
g58
NtRp5560
(dp5561
g61
(dp5562
g69
I5
ssg70
g5556
sg63
(lp5563
g99
asbasbasbag56
(g72
g58
NtRp5564
(dp5565
g61
(dp5566
sg70
g3824
sg63
(lp5567
g56
(g77
g58
NtRp5568
(dp5569
g61
(dp5570
g81
g82
ssg70
g5564
sg63
(lp5571
S'status'
p5572
asbag56
(g77
g58
NtRp5573
(dp5574
g61
(dp5575
g88
g89
ssg70
g5564
sg63
(lp5576
S':'
asbag56
(g77
g58
NtRp5577
(dp5578
g61
(dp5579
sg70
g5564
sg63
(lp5580
g56
(g57
g58
NtRp5581
(dp5582
g61
(dp5583
g69
I5
ssg70
g5577
sg63
(lp5584
S'200'
p5585
asbasbasbag56
(g72
g58
NtRp5586
(dp5587
g61
(dp5588
sg70
g3824
sg63
(lp5589
g56
(g77
g58
NtRp5590
(dp5591
g61
(dp5592
g81
g82
ssg70
g5586
sg63
(lp5593
S'subtitle'
p5594
asbag56
(g77
g58
NtRp5595
(dp5596
g61
(dp5597
g88
g89
ssg70
g5586
sg63
(lp5598
S':'
asbag56
(g77
g58
NtRp5599
(dp5600
g61
(dp5601
sg70
g5586
sg63
(lp5602
g56
(g57
g58
NtRp5603
(dp5604
g61
(dp5605
g69
I5
ssg70
g5599
sg63
(lp5606
g4348
(S's\r\x00\x00\x00customize me!'
tRp5607
asbasbasbag56
(g72
g58
NtRp5608
(dp5609
g61
(dp5610
sg70
g3824
sg63
(lp5611
g56
(g77
g58
NtRp5612
(dp5613
g61
(dp5614
g81
g82
ssg70
g5608
sg63
(lp5615
S'title'
p5616
asbag56
(g77
g58
NtRp5617
(dp5618
g61
(dp5619
g88
g89
ssg70
g5608
sg63
(lp5620
S':'
asbag56
(g77
g58
NtRp5621
(dp5622
g61
(dp5623
sg70
g5608
sg63
(lp5624
g56
(g57
g58
NtRp5625
(dp5626
g61
(dp5627
g69
I5
ssg70
g5621
sg63
(lp5628
g121
asbasbasbag56
(g72
g58
NtRp5629
(dp5630
g61
(dp5631
sg70
g3824
sg63
(lp5632
g56
(g77
g58
NtRp5633
(dp5634
g61
(dp5635
g81
g82
ssg70
g5629
sg63
(lp5636
g2449
asbag56
(g77
g58
NtRp5637
(dp5638
g61
(dp5639
g88
g89
ssg70
g5629
sg63
(lp5640
S':'
asbag56
(g77
g58
NtRp5641
(dp5642
g61
(dp5643
sg70
g5629
sg63
(lp5644
g56
(g57
g58
NtRp5645
(dp5646
g61
(dp5647
g69
I5
ssg70
g5641
sg63
(lp5648
g2462
asbasbasbag56
(g72
g58
NtRp5649
(dp5650
g61
(dp5651
sg70
g3824
sg63
(lp5652
g56
(g77
g58
NtRp5653
(dp5654
g61
(dp5655
g81
g82
ssg70
g5649
sg63
(lp5656
S'view'
p5657
asbag56
(g77
g58
NtRp5658
(dp5659
g61
(dp5660
g88
g89
ssg70
g5649
sg63
(lp5661
S':'
asbag56
(g77
g58
NtRp5662
(dp5663
g61
(dp5664
sg70
g5649
sg63
(lp5665
g56
(g57
g58
NtRp5666
(dp5667
g61
(dp5668
g69
I5
ssg70
g5662
sg63
(lp5669
S'generic.pdf'
p5670
asbasbasbasbasbsS'locals'
p5671
(dp5672
S'self'
p5673
S'<gluon.html.web2pyHTMLParser instance>'
p5674
sS'parent_tagname'
p5675
S"''"
p5676
sS'tagname'
p5677
S"'script'"
p5678
sssS'traceback'
p5679
S'Traceback (most recent call last):\n  File "/home/www-data/web2py/gluon/restricted.py", line 181, in restricted\n    exec ccode in environment\n  File "/home/www-data/web2py/applications/rdcdss/views/generic.pdf", line 21, in <module>\n    html=response.render(\'%s/%s.html\' % (request.controller,request.function))\n  File "/home/www-data/web2py/gluon/html.py", line 1014, in __call__\n    return web2pyHTMLParser(decoder.decoder(html)).tree\n  File "/home/www-data/web2py/gluon/html.py", line 1995, in __init__\n    self.feed(text)\n  File "/usr/lib/python2.6/HTMLParser.py", line 108, in feed\n    self.goahead(0)\n  File "/usr/lib/python2.6/HTMLParser.py", line 150, in goahead\n    k = self.parse_endtag(i)\n  File "/usr/lib/python2.6/HTMLParser.py", line 319, in parse_endtag\n    self.handle_endtag(tag.lower())\n  File "/home/www-data/web2py/gluon/html.py", line 2030, in handle_endtag\n    raise RuntimeError, "unable to balance tag %s" % tagname\nRuntimeError: unable to balance tag script\n'
p5680
s.