(dp1
S'output'
p2
S''
sS'layer'
p3
S'/home/www-data/web2py/applications/rdcdss/views/generic.pdf'
p4
sS'code'
p5
S'import re\nfrom gluon.contrib.markmin.markmin2pdf import markmin2pdf\ndef markmin_serializer(text,tag=None,attr={}):\n    if tag==None: return re.sub(\'\\s+\',\' \',text)\n    if tag==\'br\': return \'\\n\\n\'\n    if tag==\'h1\': return \'# \'+text+\'\\n\\n\'\n    if tag==\'h2\': return \'#\'*2+\' \'+text+\'\\n\\n\'\n    if tag==\'h3\': return \'#\'*3+\' \'+text+\'\\n\\n\'\n    if tag==\'h4\': return \'#\'*4+\' \'+text+\'\\n\\n\'\n    if tag==\'p\': return text+\'\\n\\n\'\n    if tag==\'li\': return \'\\n- \'+text.replace(\'\\n\',\' \')\n    if tag==\'tr\': return text[3:].replace(\'\\n\',\' \')+\'\\n\'\n    if tag in [\'table\',\'blockquote\']: return \'\\n-----\\n\'+text+\'\\n------\\n\'\n    if tag in [\'td\',\'th\']: return \' | \'+text\n    if tag in [\'b\',\'strong\',\'label\']: return \'**%s**\' % text\n    if tag in [\'em\',\'i\']: return "\'\'%s\'\'" % text\n    if tag in [\'tt\',\'code\']: return \'``%s``\' % text\n    if tag==\'a\': return \'[[%s %s]]\' % (text,attr.get(\'_href\',\'\'))\n    return text\nhtml=response.render(\'%s/%s.html\' % (request.controller,request.function))\nmarkmin=TAG(html).element(\'#content\').flatten(markmin_serializer)\npdf,warnings,errors=markmin2pdf(markmin)\nif errors:\n    response.headers[\'Content-Type\']=\'text\'\n    response.write(HTML(BODY(H1(\'errors\'),LU(*errors),H1(\'warnings\'),LU(*warnings))))\nelse:\n    response.headers[\'Content-Type\']=\'application/pdf\'\n    response.write(pdf,escape=False)\n    pass'
p6
sS'snapshot'
p7
(dp8
S'exception'
p9
(dp10
S'__hash__'
p11
S"<method-wrapper '__hash__' of exceptions.RuntimeError object>"
p12
sS'__setattr__'
p13
S"<method-wrapper '__setattr__' of exceptions.RuntimeError object>"
p14
sS'__reduce_ex__'
p15
S'<built-in method __reduce_ex__ of exceptions.RuntimeError object>'
p16
sS'__getslice__'
p17
S"<method-wrapper '__getslice__' of exceptions.RuntimeError object>"
p18
sS'__getitem__'
p19
S"<method-wrapper '__getitem__' of exceptions.RuntimeError object>"
p20
sS'__setstate__'
p21
S'<built-in method __setstate__ of exceptions.RuntimeError object>'
p22
sS'args'
p23
S"('unable to balance tag form',)"
p24
sS'__reduce__'
p25
S'<built-in method __reduce__ of exceptions.RuntimeError object>'
p26
sS'__str__'
p27
S"<method-wrapper '__str__' of exceptions.RuntimeError object>"
p28
sS'__format__'
p29
S'<built-in method __format__ of exceptions.RuntimeError object>'
p30
sS'__getattribute__'
p31
S"<method-wrapper '__getattribute__' of exceptions.RuntimeError object>"
p32
sS'__class__'
p33
S"<type 'exceptions.RuntimeError'>"
p34
sS'__unicode__'
p35
S'<built-in method __unicode__ of exceptions.RuntimeError object>'
p36
sS'__delattr__'
p37
S"<method-wrapper '__delattr__' of exceptions.RuntimeError object>"
p38
sS'__subclasshook__'
p39
S'<built-in method __subclasshook__ of type object>'
p40
sS'__repr__'
p41
S"<method-wrapper '__repr__' of exceptions.RuntimeError object>"
p42
sS'__dict__'
p43
S'{}'
p44
sS'__sizeof__'
p45
S'<built-in method __sizeof__ of exceptions.RuntimeError object>'
p46
sS'__doc__'
p47
S"'Unspecified run-time error.'"
p48
sS'__init__'
p49
S"<method-wrapper '__init__' of exceptions.RuntimeError object>"
p50
sS'__new__'
p51
S'<built-in method __new__ of type object>'
p52
ssS'evalue'
p53
S'unable to balance tag form'
p54
sS'request'
p55
ccopy_reg
_reconstructor
p56
(cgluon.html
BEAUTIFY
p57
c__builtin__
object
p58
NtRp59
(dp60
S'attributes'
p61
(dp62
sS'components'
p63
(lp64
g56
(cgluon.html
TABLE
p65
g58
NtRp66
(dp67
g61
(dp68
S'level'
p69
I5
ssS'parent'
p70
Nsg63
(lp71
g56
(cgluon.html
TR
p72
g58
NtRp73
(dp74
g61
(dp75
sg70
g66
sg63
(lp76
g56
(cgluon.html
TD
p77
g58
NtRp78
(dp79
g61
(dp80
S'_style'
p81
S'font-weight:bold;'
p82
ssg70
g73
sg63
(lp83
S'ajax'
p84
asbag56
(g77
g58
NtRp85
(dp86
g61
(dp87
S'_valign'
p88
S'top'
p89
ssg70
g73
sg63
(lp90
S':'
asbag56
(g77
g58
NtRp91
(dp92
g61
(dp93
sg70
g73
sg63
(lp94
g56
(g57
g58
NtRp95
(dp96
g61
(dp97
g69
I5
ssg70
g91
sg63
(lp98
S'False'
p99
asbasbasbag56
(g72
g58
NtRp100
(dp101
g61
(dp102
sg70
g66
sg63
(lp103
g56
(g77
g58
NtRp104
(dp105
g61
(dp106
g81
g82
ssg70
g100
sg63
(lp107
S'application'
p108
asbag56
(g77
g58
NtRp109
(dp110
g61
(dp111
g88
g89
ssg70
g100
sg63
(lp112
S':'
asbag56
(g77
g58
NtRp113
(dp114
g61
(dp115
sg70
g100
sg63
(lp116
g56
(g57
g58
NtRp117
(dp118
g61
(dp119
g69
I5
ssg70
g113
sg63
(lp120
S'rdcdss'
p121
asbasbasbag56
(g72
g58
NtRp122
(dp123
g61
(dp124
sg70
g66
sg63
(lp125
g56
(g77
g58
NtRp126
(dp127
g61
(dp128
g81
g82
ssg70
g122
sg63
(lp129
g23
asbag56
(g77
g58
NtRp130
(dp131
g61
(dp132
g88
g89
ssg70
g122
sg63
(lp133
S':'
asbag56
(g77
g58
NtRp134
(dp135
g61
(dp136
sg70
g122
sg63
(lp137
g56
(g57
g58
NtRp138
(dp139
g61
(dp140
g69
I5
ssg70
g134
sg63
(lp141
g56
(g65
g58
NtRp142
(dp143
g61
(dp144
g69
I4
ssg70
Nsg63
(lp145
sbasbasbasbag56
(g72
g58
NtRp146
(dp147
g61
(dp148
sg70
g66
sg63
(lp149
g56
(g77
g58
NtRp150
(dp151
g61
(dp152
g81
g82
ssg70
g146
sg63
(lp153
S'body'
p154
asbag56
(g77
g58
NtRp155
(dp156
g61
(dp157
g88
g89
ssg70
g146
sg63
(lp158
S':'
asbag56
(g77
g58
NtRp159
(dp160
g61
(dp161
sg70
g146
sg63
(lp162
g56
(g57
g58
NtRp163
(dp164
g61
(dp165
g69
I5
ssg70
g159
sg63
(lp166
S'<cStringIO.StringO object at 0x2b9bdb749378>'
p167
asbasbasbag56
(g72
g58
NtRp168
(dp169
g61
(dp170
sg70
g66
sg63
(lp171
g56
(g77
g58
NtRp172
(dp173
g61
(dp174
g81
g82
ssg70
g168
sg63
(lp175
S'client'
p176
asbag56
(g77
g58
NtRp177
(dp178
g61
(dp179
g88
g89
ssg70
g168
sg63
(lp180
S':'
asbag56
(g77
g58
NtRp181
(dp182
g61
(dp183
sg70
g168
sg63
(lp184
g56
(g57
g58
NtRp185
(dp186
g61
(dp187
g69
I5
ssg70
g181
sg63
(lp188
S'89.123.2.193'
p189
asbasbasbag56
(g72
g58
NtRp190
(dp191
g61
(dp192
sg70
g66
sg63
(lp193
g56
(g77
g58
NtRp194
(dp195
g61
(dp196
g81
g82
ssg70
g190
sg63
(lp197
S'controller'
p198
asbag56
(g77
g58
NtRp199
(dp200
g61
(dp201
g88
g89
ssg70
g190
sg63
(lp202
S':'
asbag56
(g77
g58
NtRp203
(dp204
g61
(dp205
sg70
g190
sg63
(lp206
g56
(g57
g58
NtRp207
(dp208
g61
(dp209
g69
I5
ssg70
g203
sg63
(lp210
S'default'
p211
asbasbasbag56
(g72
g58
NtRp212
(dp213
g61
(dp214
sg70
g66
sg63
(lp215
g56
(g77
g58
NtRp216
(dp217
g61
(dp218
g81
g82
ssg70
g212
sg63
(lp219
S'cookies'
p220
asbag56
(g77
g58
NtRp221
(dp222
g61
(dp223
g88
g89
ssg70
g212
sg63
(lp224
S':'
asbag56
(g77
g58
NtRp225
(dp226
g61
(dp227
sg70
g212
sg63
(lp228
g56
(g57
g58
NtRp229
(dp230
g61
(dp231
g69
I5
ssg70
g225
sg63
(lp232
g56
(g65
g58
NtRp233
(dp234
g61
(dp235
g69
I4
ssg70
Nsg63
(lp236
g56
(g72
g58
NtRp237
(dp238
g61
(dp239
sg70
g233
sg63
(lp240
g56
(g77
g58
NtRp241
(dp242
g61
(dp243
g81
g82
ssg70
g237
sg63
(lp244
S'session_id_admin'
p245
asbag56
(g77
g58
NtRp246
(dp247
g61
(dp248
g88
g89
ssg70
g237
sg63
(lp249
S':'
asbag56
(g77
g58
NtRp250
(dp251
g61
(dp252
sg70
g237
sg63
(lp253
g56
(g57
g58
NtRp254
(dp255
g61
(dp256
g69
I4
ssg70
g250
sg63
(lp257
g56
(g65
g58
NtRp258
(dp259
g61
(dp260
g69
I3
ssg70
Nsg63
(lp261
g56
(g72
g58
NtRp262
(dp263
g61
(dp264
sg70
g258
sg63
(lp265
g56
(g77
g58
NtRp266
(dp267
g61
(dp268
g81
g82
ssg70
g262
sg63
(lp269
S'comment'
p270
asbag56
(g77
g58
NtRp271
(dp272
g61
(dp273
g88
g89
ssg70
g262
sg63
(lp274
S':'
asbag56
(g77
g58
NtRp275
(dp276
g61
(dp277
sg70
g262
sg63
(lp278
g56
(g57
g58
NtRp279
(dp280
g61
(dp281
g69
I3
ssg70
g275
sg63
(lp282
S''
asbasbasbag56
(g72
g58
NtRp283
(dp284
g61
(dp285
sg70
g258
sg63
(lp286
g56
(g77
g58
NtRp287
(dp288
g61
(dp289
g81
g82
ssg70
g283
sg63
(lp290
S'domain'
p291
asbag56
(g77
g58
NtRp292
(dp293
g61
(dp294
g88
g89
ssg70
g283
sg63
(lp295
S':'
asbag56
(g77
g58
NtRp296
(dp297
g61
(dp298
sg70
g283
sg63
(lp299
g56
(g57
g58
NtRp300
(dp301
g61
(dp302
g69
I3
ssg70
g296
sg63
(lp303
S''
asbasbasbag56
(g72
g58
NtRp304
(dp305
g61
(dp306
sg70
g258
sg63
(lp307
g56
(g77
g58
NtRp308
(dp309
g61
(dp310
g81
g82
ssg70
g304
sg63
(lp311
S'expires'
p312
asbag56
(g77
g58
NtRp313
(dp314
g61
(dp315
g88
g89
ssg70
g304
sg63
(lp316
S':'
asbag56
(g77
g58
NtRp317
(dp318
g61
(dp319
sg70
g304
sg63
(lp320
g56
(g57
g58
NtRp321
(dp322
g61
(dp323
g69
I3
ssg70
g317
sg63
(lp324
S''
asbasbasbag56
(g72
g58
NtRp325
(dp326
g61
(dp327
sg70
g258
sg63
(lp328
g56
(g77
g58
NtRp329
(dp330
g61
(dp331
g81
g82
ssg70
g325
sg63
(lp332
S'httponly'
p333
asbag56
(g77
g58
NtRp334
(dp335
g61
(dp336
g88
g89
ssg70
g325
sg63
(lp337
S':'
asbag56
(g77
g58
NtRp338
(dp339
g61
(dp340
sg70
g325
sg63
(lp341
g56
(g57
g58
NtRp342
(dp343
g61
(dp344
g69
I3
ssg70
g338
sg63
(lp345
S''
asbasbasbag56
(g72
g58
NtRp346
(dp347
g61
(dp348
sg70
g258
sg63
(lp349
g56
(g77
g58
NtRp350
(dp351
g61
(dp352
g81
g82
ssg70
g346
sg63
(lp353
S'max-age'
p354
asbag56
(g77
g58
NtRp355
(dp356
g61
(dp357
g88
g89
ssg70
g346
sg63
(lp358
S':'
asbag56
(g77
g58
NtRp359
(dp360
g61
(dp361
sg70
g346
sg63
(lp362
g56
(g57
g58
NtRp363
(dp364
g61
(dp365
g69
I3
ssg70
g359
sg63
(lp366
S''
asbasbasbag56
(g72
g58
NtRp367
(dp368
g61
(dp369
sg70
g258
sg63
(lp370
g56
(g77
g58
NtRp371
(dp372
g61
(dp373
g81
g82
ssg70
g367
sg63
(lp374
S'path'
p375
asbag56
(g77
g58
NtRp376
(dp377
g61
(dp378
g88
g89
ssg70
g367
sg63
(lp379
S':'
asbag56
(g77
g58
NtRp380
(dp381
g61
(dp382
sg70
g367
sg63
(lp383
g56
(g57
g58
NtRp384
(dp385
g61
(dp386
g69
I3
ssg70
g380
sg63
(lp387
S''
asbasbasbag56
(g72
g58
NtRp388
(dp389
g61
(dp390
sg70
g258
sg63
(lp391
g56
(g77
g58
NtRp392
(dp393
g61
(dp394
g81
g82
ssg70
g388
sg63
(lp395
S'secure'
p396
asbag56
(g77
g58
NtRp397
(dp398
g61
(dp399
g88
g89
ssg70
g388
sg63
(lp400
S':'
asbag56
(g77
g58
NtRp401
(dp402
g61
(dp403
sg70
g388
sg63
(lp404
g56
(g57
g58
NtRp405
(dp406
g61
(dp407
g69
I3
ssg70
g401
sg63
(lp408
S''
asbasbasbag56
(g72
g58
NtRp409
(dp410
g61
(dp411
sg70
g258
sg63
(lp412
g56
(g77
g58
NtRp413
(dp414
g61
(dp415
g81
g82
ssg70
g409
sg63
(lp416
S'version'
p417
asbag56
(g77
g58
NtRp418
(dp419
g61
(dp420
g88
g89
ssg70
g409
sg63
(lp421
S':'
asbag56
(g77
g58
NtRp422
(dp423
g61
(dp424
sg70
g409
sg63
(lp425
g56
(g57
g58
NtRp426
(dp427
g61
(dp428
g69
I3
ssg70
g422
sg63
(lp429
S''
asbasbasbasbasbasbasbag56
(g72
g58
NtRp430
(dp431
g61
(dp432
sg70
g233
sg63
(lp433
g56
(g77
g58
NtRp434
(dp435
g61
(dp436
g81
g82
ssg70
g430
sg63
(lp437
S'session_id_rdcdss'
p438
asbag56
(g77
g58
NtRp439
(dp440
g61
(dp441
g88
g89
ssg70
g430
sg63
(lp442
S':'
asbag56
(g77
g58
NtRp443
(dp444
g61
(dp445
sg70
g430
sg63
(lp446
g56
(g57
g58
NtRp447
(dp448
g61
(dp449
g69
I4
ssg70
g443
sg63
(lp450
g56
(g65
g58
NtRp451
(dp452
g61
(dp453
g69
I3
ssg70
Nsg63
(lp454
g56
(g72
g58
NtRp455
(dp456
g61
(dp457
sg70
g451
sg63
(lp458
g56
(g77
g58
NtRp459
(dp460
g61
(dp461
g81
g82
ssg70
g455
sg63
(lp462
g270
asbag56
(g77
g58
NtRp463
(dp464
g61
(dp465
g88
g89
ssg70
g455
sg63
(lp466
S':'
asbag56
(g77
g58
NtRp467
(dp468
g61
(dp469
sg70
g455
sg63
(lp470
g56
(g57
g58
NtRp471
(dp472
g61
(dp473
g69
I3
ssg70
g467
sg63
(lp474
S''
asbasbasbag56
(g72
g58
NtRp475
(dp476
g61
(dp477
sg70
g451
sg63
(lp478
g56
(g77
g58
NtRp479
(dp480
g61
(dp481
g81
g82
ssg70
g475
sg63
(lp482
g291
asbag56
(g77
g58
NtRp483
(dp484
g61
(dp485
g88
g89
ssg70
g475
sg63
(lp486
S':'
asbag56
(g77
g58
NtRp487
(dp488
g61
(dp489
sg70
g475
sg63
(lp490
g56
(g57
g58
NtRp491
(dp492
g61
(dp493
g69
I3
ssg70
g487
sg63
(lp494
S''
asbasbasbag56
(g72
g58
NtRp495
(dp496
g61
(dp497
sg70
g451
sg63
(lp498
g56
(g77
g58
NtRp499
(dp500
g61
(dp501
g81
g82
ssg70
g495
sg63
(lp502
g312
asbag56
(g77
g58
NtRp503
(dp504
g61
(dp505
g88
g89
ssg70
g495
sg63
(lp506
S':'
asbag56
(g77
g58
NtRp507
(dp508
g61
(dp509
sg70
g495
sg63
(lp510
g56
(g57
g58
NtRp511
(dp512
g61
(dp513
g69
I3
ssg70
g507
sg63
(lp514
S''
asbasbasbag56
(g72
g58
NtRp515
(dp516
g61
(dp517
sg70
g451
sg63
(lp518
g56
(g77
g58
NtRp519
(dp520
g61
(dp521
g81
g82
ssg70
g515
sg63
(lp522
g333
asbag56
(g77
g58
NtRp523
(dp524
g61
(dp525
g88
g89
ssg70
g515
sg63
(lp526
S':'
asbag56
(g77
g58
NtRp527
(dp528
g61
(dp529
sg70
g515
sg63
(lp530
g56
(g57
g58
NtRp531
(dp532
g61
(dp533
g69
I3
ssg70
g527
sg63
(lp534
S''
asbasbasbag56
(g72
g58
NtRp535
(dp536
g61
(dp537
sg70
g451
sg63
(lp538
g56
(g77
g58
NtRp539
(dp540
g61
(dp541
g81
g82
ssg70
g535
sg63
(lp542
g354
asbag56
(g77
g58
NtRp543
(dp544
g61
(dp545
g88
g89
ssg70
g535
sg63
(lp546
S':'
asbag56
(g77
g58
NtRp547
(dp548
g61
(dp549
sg70
g535
sg63
(lp550
g56
(g57
g58
NtRp551
(dp552
g61
(dp553
g69
I3
ssg70
g547
sg63
(lp554
S''
asbasbasbag56
(g72
g58
NtRp555
(dp556
g61
(dp557
sg70
g451
sg63
(lp558
g56
(g77
g58
NtRp559
(dp560
g61
(dp561
g81
g82
ssg70
g555
sg63
(lp562
g375
asbag56
(g77
g58
NtRp563
(dp564
g61
(dp565
g88
g89
ssg70
g555
sg63
(lp566
S':'
asbag56
(g77
g58
NtRp567
(dp568
g61
(dp569
sg70
g555
sg63
(lp570
g56
(g57
g58
NtRp571
(dp572
g61
(dp573
g69
I3
ssg70
g567
sg63
(lp574
S''
asbasbasbag56
(g72
g58
NtRp575
(dp576
g61
(dp577
sg70
g451
sg63
(lp578
g56
(g77
g58
NtRp579
(dp580
g61
(dp581
g81
g82
ssg70
g575
sg63
(lp582
g396
asbag56
(g77
g58
NtRp583
(dp584
g61
(dp585
g88
g89
ssg70
g575
sg63
(lp586
S':'
asbag56
(g77
g58
NtRp587
(dp588
g61
(dp589
sg70
g575
sg63
(lp590
g56
(g57
g58
NtRp591
(dp592
g61
(dp593
g69
I3
ssg70
g587
sg63
(lp594
S''
asbasbasbag56
(g72
g58
NtRp595
(dp596
g61
(dp597
sg70
g451
sg63
(lp598
g56
(g77
g58
NtRp599
(dp600
g61
(dp601
g81
g82
ssg70
g595
sg63
(lp602
g417
asbag56
(g77
g58
NtRp603
(dp604
g61
(dp605
g88
g89
ssg70
g595
sg63
(lp606
S':'
asbag56
(g77
g58
NtRp607
(dp608
g61
(dp609
sg70
g595
sg63
(lp610
g56
(g57
g58
NtRp611
(dp612
g61
(dp613
g69
I3
ssg70
g607
sg63
(lp614
S''
asbasbasbasbasbasbasbasbasbasbasbag56
(g72
g58
NtRp615
(dp616
g61
(dp617
sg70
g66
sg63
(lp618
g56
(g77
g58
NtRp619
(dp620
g61
(dp621
g81
g82
ssg70
g615
sg63
(lp622
S'env'
p623
asbag56
(g77
g58
NtRp624
(dp625
g61
(dp626
g88
g89
ssg70
g615
sg63
(lp627
S':'
asbag56
(g77
g58
NtRp628
(dp629
g61
(dp630
sg70
g615
sg63
(lp631
g56
(g57
g58
NtRp632
(dp633
g61
(dp634
g69
I5
ssg70
g628
sg63
(lp635
g56
(g65
g58
NtRp636
(dp637
g61
(dp638
g69
I4
ssg70
Nsg63
(lp639
g56
(g72
g58
NtRp640
(dp641
g61
(dp642
sg70
g636
sg63
(lp643
g56
(g77
g58
NtRp644
(dp645
g61
(dp646
g81
g82
ssg70
g640
sg63
(lp647
S'app_folders'
p648
asbag56
(g77
g58
NtRp649
(dp650
g61
(dp651
g88
g89
ssg70
g640
sg63
(lp652
S':'
asbag56
(g77
g58
NtRp653
(dp654
g61
(dp655
sg70
g640
sg63
(lp656
g56
(g57
g58
NtRp657
(dp658
g61
(dp659
g69
I4
ssg70
g653
sg63
(lp660
S"set(['/home/www-data/web2py/applications/rdcdss/', '/home/www-data/web2py/applications/examples/', '/home/www-data/web2py/applications/RareDisSS_Stable/', '/home/www-data/web2py/applications/welcome/', '/home/www-data/web2py/applications/admin/', '/home/www-data/web2py/applications/RareDisSS_Devel/'])"
p661
asbasbasbag56
(g72
g58
NtRp662
(dp663
g61
(dp664
sg70
g636
sg63
(lp665
g56
(g77
g58
NtRp666
(dp667
g61
(dp668
g81
g82
ssg70
g662
sg63
(lp669
S'applications_parent'
p670
asbag56
(g77
g58
NtRp671
(dp672
g61
(dp673
g88
g89
ssg70
g662
sg63
(lp674
S':'
asbag56
(g77
g58
NtRp675
(dp676
g61
(dp677
sg70
g662
sg63
(lp678
g56
(g57
g58
NtRp679
(dp680
g61
(dp681
g69
I4
ssg70
g675
sg63
(lp682
S'/home/www-data/web2py'
p683
asbasbasbag56
(g72
g58
NtRp684
(dp685
g61
(dp686
sg70
g636
sg63
(lp687
g56
(g77
g58
NtRp688
(dp689
g61
(dp690
g81
g82
ssg70
g684
sg63
(lp691
S'db_sessions'
p692
asbag56
(g77
g58
NtRp693
(dp694
g61
(dp695
g88
g89
ssg70
g684
sg63
(lp696
S':'
asbag56
(g77
g58
NtRp697
(dp698
g61
(dp699
sg70
g684
sg63
(lp700
g56
(g57
g58
NtRp701
(dp702
g61
(dp703
g69
I4
ssg70
g697
sg63
(lp704
S'set([])'
p705
asbasbasbag56
(g72
g58
NtRp706
(dp707
g61
(dp708
sg70
g636
sg63
(lp709
g56
(g77
g58
NtRp710
(dp711
g61
(dp712
g81
g82
ssg70
g706
sg63
(lp713
S'debugging'
p714
asbag56
(g77
g58
NtRp715
(dp716
g61
(dp717
g88
g89
ssg70
g706
sg63
(lp718
S':'
asbag56
(g77
g58
NtRp719
(dp720
g61
(dp721
sg70
g706
sg63
(lp722
g56
(g57
g58
NtRp723
(dp724
g61
(dp725
g69
I4
ssg70
g719
sg63
(lp726
g99
asbasbasbag56
(g72
g58
NtRp727
(dp728
g61
(dp729
sg70
g636
sg63
(lp730
g56
(g77
g58
NtRp731
(dp732
g61
(dp733
g81
g82
ssg70
g727
sg63
(lp734
S'document_root'
p735
asbag56
(g77
g58
NtRp736
(dp737
g61
(dp738
g88
g89
ssg70
g727
sg63
(lp739
S':'
asbag56
(g77
g58
NtRp740
(dp741
g61
(dp742
sg70
g727
sg63
(lp743
g56
(g57
g58
NtRp744
(dp745
g61
(dp746
g69
I4
ssg70
g740
sg63
(lp747
S'/etc/apache2/htdocs'
p748
asbasbasbag56
(g72
g58
NtRp749
(dp750
g61
(dp751
sg70
g636
sg63
(lp752
g56
(g77
g58
NtRp753
(dp754
g61
(dp755
g81
g82
ssg70
g749
sg63
(lp756
S'gateway_interface'
p757
asbag56
(g77
g58
NtRp758
(dp759
g61
(dp760
g88
g89
ssg70
g749
sg63
(lp761
S':'
asbag56
(g77
g58
NtRp762
(dp763
g61
(dp764
sg70
g749
sg63
(lp765
g56
(g57
g58
NtRp766
(dp767
g61
(dp768
g69
I4
ssg70
g762
sg63
(lp769
S'CGI/1.1'
p770
asbasbasbag56
(g72
g58
NtRp771
(dp772
g61
(dp773
sg70
g636
sg63
(lp774
g56
(g77
g58
NtRp775
(dp776
g61
(dp777
g81
g82
ssg70
g771
sg63
(lp778
S'gluon_parent'
p779
asbag56
(g77
g58
NtRp780
(dp781
g61
(dp782
g88
g89
ssg70
g771
sg63
(lp783
S':'
asbag56
(g77
g58
NtRp784
(dp785
g61
(dp786
sg70
g771
sg63
(lp787
g56
(g57
g58
NtRp788
(dp789
g61
(dp790
g69
I4
ssg70
g784
sg63
(lp791
g683
asbasbasbag56
(g72
g58
NtRp792
(dp793
g61
(dp794
sg70
g636
sg63
(lp795
g56
(g77
g58
NtRp796
(dp797
g61
(dp798
g81
g82
ssg70
g792
sg63
(lp799
S'http_accept'
p800
asbag56
(g77
g58
NtRp801
(dp802
g61
(dp803
g88
g89
ssg70
g792
sg63
(lp804
S':'
asbag56
(g77
g58
NtRp805
(dp806
g61
(dp807
sg70
g792
sg63
(lp808
g56
(g57
g58
NtRp809
(dp810
g61
(dp811
g69
I4
ssg70
g805
sg63
(lp812
S'text/html,application/xhtml+xml,application/xml;q=0.9,*/*;q=0.8'
p813
asbasbasbag56
(g72
g58
NtRp814
(dp815
g61
(dp816
sg70
g636
sg63
(lp817
g56
(g77
g58
NtRp818
(dp819
g61
(dp820
g81
g82
ssg70
g814
sg63
(lp821
S'http_accept_charset'
p822
asbag56
(g77
g58
NtRp823
(dp824
g61
(dp825
g88
g89
ssg70
g814
sg63
(lp826
S':'
asbag56
(g77
g58
NtRp827
(dp828
g61
(dp829
sg70
g814
sg63
(lp830
g56
(g57
g58
NtRp831
(dp832
g61
(dp833
g69
I4
ssg70
g827
sg63
(lp834
S'ISO-8859-1,utf-8;q=0.7,*;q=0.3'
p835
asbasbasbag56
(g72
g58
NtRp836
(dp837
g61
(dp838
sg70
g636
sg63
(lp839
g56
(g77
g58
NtRp840
(dp841
g61
(dp842
g81
g82
ssg70
g836
sg63
(lp843
S'http_accept_encoding'
p844
asbag56
(g77
g58
NtRp845
(dp846
g61
(dp847
g88
g89
ssg70
g836
sg63
(lp848
S':'
asbag56
(g77
g58
NtRp849
(dp850
g61
(dp851
sg70
g836
sg63
(lp852
g56
(g57
g58
NtRp853
(dp854
g61
(dp855
g69
I4
ssg70
g849
sg63
(lp856
S'gzip,deflate,sdch'
p857
asbasbasbag56
(g72
g58
NtRp858
(dp859
g61
(dp860
sg70
g636
sg63
(lp861
g56
(g77
g58
NtRp862
(dp863
g61
(dp864
g81
g82
ssg70
g858
sg63
(lp865
S'http_accept_language'
p866
asbag56
(g77
g58
NtRp867
(dp868
g61
(dp869
g88
g89
ssg70
g858
sg63
(lp870
S':'
asbag56
(g77
g58
NtRp871
(dp872
g61
(dp873
sg70
g858
sg63
(lp874
g56
(g57
g58
NtRp875
(dp876
g61
(dp877
g69
I4
ssg70
g871
sg63
(lp878
S'en-US,en;q=0.8'
p879
asbasbasbag56
(g72
g58
NtRp880
(dp881
g61
(dp882
sg70
g636
sg63
(lp883
g56
(g77
g58
NtRp884
(dp885
g61
(dp886
g81
g82
ssg70
g880
sg63
(lp887
S'http_connection'
p888
asbag56
(g77
g58
NtRp889
(dp890
g61
(dp891
g88
g89
ssg70
g880
sg63
(lp892
S':'
asbag56
(g77
g58
NtRp893
(dp894
g61
(dp895
sg70
g880
sg63
(lp896
g56
(g57
g58
NtRp897
(dp898
g61
(dp899
g69
I4
ssg70
g893
sg63
(lp900
S'keep-alive'
p901
asbasbasbag56
(g72
g58
NtRp902
(dp903
g61
(dp904
sg70
g636
sg63
(lp905
g56
(g77
g58
NtRp906
(dp907
g61
(dp908
g81
g82
ssg70
g902
sg63
(lp909
S'http_cookie'
p910
asbag56
(g77
g58
NtRp911
(dp912
g61
(dp913
g88
g89
ssg70
g902
sg63
(lp914
S':'
asbag56
(g77
g58
NtRp915
(dp916
g61
(dp917
sg70
g902
sg63
(lp918
g56
(g57
g58
NtRp919
(dp920
g61
(dp921
g69
I4
ssg70
g915
sg63
(lp922
S'__utmz=231008458.1308780762.2.2.utmcsr=blog.ovi.com|utmccn=(referral)|utmcmd=referral|utmcct=/2011/06/17/architecture-buffs-win-an-n8-thanks-to-3d-maps/; __utma=231008458.31146925.1301686846.1308784518.1308821596.4; __utmz=123610009.1308848100.1.1.utmcsr=(direct)|utmccn=(direct)|utmcmd=(none); __utma=123610009.1990170896.1308848100.1308848100.1308848100.1; session_id_admin=89.123.2.193-c73a459b-d1a2-42c0-b456-303b7fd610ac; session_id_rdcdss=89.123.2.193-4e1de357-5b7c-4409-92bc-12a58f0742b6'
p923
asbasbasbag56
(g72
g58
NtRp924
(dp925
g61
(dp926
sg70
g636
sg63
(lp927
g56
(g77
g58
NtRp928
(dp929
g61
(dp930
g81
g82
ssg70
g924
sg63
(lp931
S'http_host'
p932
asbag56
(g77
g58
NtRp933
(dp934
g61
(dp935
g88
g89
ssg70
g924
sg63
(lp936
S':'
asbag56
(g77
g58
NtRp937
(dp938
g61
(dp939
sg70
g924
sg63
(lp940
g56
(g57
g58
NtRp941
(dp942
g61
(dp943
g69
I4
ssg70
g937
sg63
(lp944
S'costanza.dragusin.ro'
p945
asbasbasbag56
(g72
g58
NtRp946
(dp947
g61
(dp948
sg70
g636
sg63
(lp949
g56
(g77
g58
NtRp950
(dp951
g61
(dp952
g81
g82
ssg70
g946
sg63
(lp953
S'http_user_agent'
p954
asbag56
(g77
g58
NtRp955
(dp956
g61
(dp957
g88
g89
ssg70
g946
sg63
(lp958
S':'
asbag56
(g77
g58
NtRp959
(dp960
g61
(dp961
sg70
g946
sg63
(lp962
g56
(g57
g58
NtRp963
(dp964
g61
(dp965
g69
I4
ssg70
g959
sg63
(lp966
S'Mozilla/5.0 (Macintosh; Intel Mac OS X 10_6_8) AppleWebKit/534.30 (KHTML, like Gecko) Chrome/12.0.742.112 Safari/534.30'
p967
asbasbasbag56
(g72
g58
NtRp968
(dp969
g61
(dp970
sg70
g636
sg63
(lp971
g56
(g77
g58
NtRp972
(dp973
g61
(dp974
g81
g82
ssg70
g968
sg63
(lp975
S'https'
p976
asbag56
(g77
g58
NtRp977
(dp978
g61
(dp979
g88
g89
ssg70
g968
sg63
(lp980
S':'
asbag56
(g77
g58
NtRp981
(dp982
g61
(dp983
sg70
g968
sg63
(lp984
g56
(g57
g58
NtRp985
(dp986
g61
(dp987
g69
I4
ssg70
g981
sg63
(lp988
S'1'
asbasbasbag56
(g72
g58
NtRp989
(dp990
g61
(dp991
sg70
g636
sg63
(lp992
g56
(g77
g58
NtRp993
(dp994
g61
(dp995
g81
g82
ssg70
g989
sg63
(lp996
S'mod_wsgi_application_group'
p997
asbag56
(g77
g58
NtRp998
(dp999
g61
(dp1000
g88
g89
ssg70
g989
sg63
(lp1001
S':'
asbag56
(g77
g58
NtRp1002
(dp1003
g61
(dp1004
sg70
g989
sg63
(lp1005
g56
(g57
g58
NtRp1006
(dp1007
g61
(dp1008
g69
I4
ssg70
g1002
sg63
(lp1009
S'109.169.46.204|'
p1010
asbasbasbag56
(g72
g58
NtRp1011
(dp1012
g61
(dp1013
sg70
g636
sg63
(lp1014
g56
(g77
g58
NtRp1015
(dp1016
g61
(dp1017
g81
g82
ssg70
g1011
sg63
(lp1018
S'mod_wsgi_callable_object'
p1019
asbag56
(g77
g58
NtRp1020
(dp1021
g61
(dp1022
g88
g89
ssg70
g1011
sg63
(lp1023
S':'
asbag56
(g77
g58
NtRp1024
(dp1025
g61
(dp1026
sg70
g1011
sg63
(lp1027
g56
(g57
g58
NtRp1028
(dp1029
g61
(dp1030
g69
I4
ssg70
g1024
sg63
(lp1031
S'application'
p1032
asbasbasbag56
(g72
g58
NtRp1033
(dp1034
g61
(dp1035
sg70
g636
sg63
(lp1036
g56
(g77
g58
NtRp1037
(dp1038
g61
(dp1039
g81
g82
ssg70
g1033
sg63
(lp1040
S'mod_wsgi_handler_script'
p1041
asbag56
(g77
g58
NtRp1042
(dp1043
g61
(dp1044
g88
g89
ssg70
g1033
sg63
(lp1045
S':'
asbag56
(g77
g58
NtRp1046
(dp1047
g61
(dp1048
sg70
g1033
sg63
(lp1049
g56
(g57
g58
NtRp1050
(dp1051
g61
(dp1052
g69
I4
ssg70
g1046
sg63
(lp1053
S''
asbasbasbag56
(g72
g58
NtRp1054
(dp1055
g61
(dp1056
sg70
g636
sg63
(lp1057
g56
(g77
g58
NtRp1058
(dp1059
g61
(dp1060
g81
g82
ssg70
g1054
sg63
(lp1061
S'mod_wsgi_input_chunked'
p1062
asbag56
(g77
g58
NtRp1063
(dp1064
g61
(dp1065
g88
g89
ssg70
g1054
sg63
(lp1066
S':'
asbag56
(g77
g58
NtRp1067
(dp1068
g61
(dp1069
sg70
g1054
sg63
(lp1070
g56
(g57
g58
NtRp1071
(dp1072
g61
(dp1073
g69
I4
ssg70
g1067
sg63
(lp1074
S'0'
asbasbasbag56
(g72
g58
NtRp1075
(dp1076
g61
(dp1077
sg70
g636
sg63
(lp1078
g56
(g77
g58
NtRp1079
(dp1080
g61
(dp1081
g81
g82
ssg70
g1075
sg63
(lp1082
S'mod_wsgi_listener_host'
p1083
asbag56
(g77
g58
NtRp1084
(dp1085
g61
(dp1086
g88
g89
ssg70
g1075
sg63
(lp1087
S':'
asbag56
(g77
g58
NtRp1088
(dp1089
g61
(dp1090
sg70
g1075
sg63
(lp1091
g56
(g57
g58
NtRp1092
(dp1093
g61
(dp1094
g69
I4
ssg70
g1088
sg63
(lp1095
S''
asbasbasbag56
(g72
g58
NtRp1096
(dp1097
g61
(dp1098
sg70
g636
sg63
(lp1099
g56
(g77
g58
NtRp1100
(dp1101
g61
(dp1102
g81
g82
ssg70
g1096
sg63
(lp1103
S'mod_wsgi_listener_port'
p1104
asbag56
(g77
g58
NtRp1105
(dp1106
g61
(dp1107
g88
g89
ssg70
g1096
sg63
(lp1108
S':'
asbag56
(g77
g58
NtRp1109
(dp1110
g61
(dp1111
sg70
g1096
sg63
(lp1112
g56
(g57
g58
NtRp1113
(dp1114
g61
(dp1115
g69
I4
ssg70
g1109
sg63
(lp1116
S'443'
p1117
asbasbasbag56
(g72
g58
NtRp1118
(dp1119
g61
(dp1120
sg70
g636
sg63
(lp1121
g56
(g77
g58
NtRp1122
(dp1123
g61
(dp1124
g81
g82
ssg70
g1118
sg63
(lp1125
S'mod_wsgi_process_group'
p1126
asbag56
(g77
g58
NtRp1127
(dp1128
g61
(dp1129
g88
g89
ssg70
g1118
sg63
(lp1130
S':'
asbag56
(g77
g58
NtRp1131
(dp1132
g61
(dp1133
sg70
g1118
sg63
(lp1134
g56
(g57
g58
NtRp1135
(dp1136
g61
(dp1137
g69
I4
ssg70
g1131
sg63
(lp1138
S'web2py'
p1139
asbasbasbag56
(g72
g58
NtRp1140
(dp1141
g61
(dp1142
sg70
g636
sg63
(lp1143
g56
(g77
g58
NtRp1144
(dp1145
g61
(dp1146
g81
g82
ssg70
g1140
sg63
(lp1147
S'mod_wsgi_request_handler'
p1148
asbag56
(g77
g58
NtRp1149
(dp1150
g61
(dp1151
g88
g89
ssg70
g1140
sg63
(lp1152
S':'
asbag56
(g77
g58
NtRp1153
(dp1154
g61
(dp1155
sg70
g1140
sg63
(lp1156
g56
(g57
g58
NtRp1157
(dp1158
g61
(dp1159
g69
I4
ssg70
g1153
sg63
(lp1160
S'wsgi-script'
p1161
asbasbasbag56
(g72
g58
NtRp1162
(dp1163
g61
(dp1164
sg70
g636
sg63
(lp1165
g56
(g77
g58
NtRp1166
(dp1167
g61
(dp1168
g81
g82
ssg70
g1162
sg63
(lp1169
S'mod_wsgi_script_reloading'
p1170
asbag56
(g77
g58
NtRp1171
(dp1172
g61
(dp1173
g88
g89
ssg70
g1162
sg63
(lp1174
S':'
asbag56
(g77
g58
NtRp1175
(dp1176
g61
(dp1177
sg70
g1162
sg63
(lp1178
g56
(g57
g58
NtRp1179
(dp1180
g61
(dp1181
g69
I4
ssg70
g1175
sg63
(lp1182
S'1'
asbasbasbag56
(g72
g58
NtRp1183
(dp1184
g61
(dp1185
sg70
g636
sg63
(lp1186
g56
(g77
g58
NtRp1187
(dp1188
g61
(dp1189
g81
g82
ssg70
g1183
sg63
(lp1190
S'mod_wsgi_version'
p1191
asbag56
(g77
g58
NtRp1192
(dp1193
g61
(dp1194
g88
g89
ssg70
g1183
sg63
(lp1195
S':'
asbag56
(g77
g58
NtRp1196
(dp1197
g61
(dp1198
sg70
g1183
sg63
(lp1199
g56
(g57
g58
NtRp1200
(dp1201
g61
(dp1202
g69
I4
ssg70
g1196
sg63
(lp1203
g56
(g65
g58
NtRp1204
(dp1205
g61
(dp1206
g69
I3
ssg70
Nsg63
(lp1207
g56
(g72
g58
NtRp1208
(dp1209
g61
(dp1210
sg70
g1204
sg63
(lp1211
g56
(g77
g58
NtRp1212
(dp1213
g61
(dp1214
sg70
g1208
sg63
(lp1215
g56
(g57
g58
NtRp1216
(dp1217
g61
(dp1218
g69
I3
ssg70
g1212
sg63
(lp1219
S'3'
asbasbasbag56
(g72
g58
NtRp1220
(dp1221
g61
(dp1222
sg70
g1204
sg63
(lp1223
g56
(g77
g58
NtRp1224
(dp1225
g61
(dp1226
sg70
g1220
sg63
(lp1227
g56
(g57
g58
NtRp1228
(dp1229
g61
(dp1230
g69
I3
ssg70
g1224
sg63
(lp1231
S'2'
asbasbasbasbasbasbasbag56
(g72
g58
NtRp1232
(dp1233
g61
(dp1234
sg70
g636
sg63
(lp1235
g56
(g77
g58
NtRp1236
(dp1237
g61
(dp1238
g81
g82
ssg70
g1232
sg63
(lp1239
S'path_info'
p1240
asbag56
(g77
g58
NtRp1241
(dp1242
g61
(dp1243
g88
g89
ssg70
g1232
sg63
(lp1244
S':'
asbag56
(g77
g58
NtRp1245
(dp1246
g61
(dp1247
sg70
g1232
sg63
(lp1248
g56
(g57
g58
NtRp1249
(dp1250
g61
(dp1251
g69
I4
ssg70
g1245
sg63
(lp1252
S'/rdcdss/default/index.pdf'
p1253
asbasbasbag56
(g72
g58
NtRp1254
(dp1255
g61
(dp1256
sg70
g636
sg63
(lp1257
g56
(g77
g58
NtRp1258
(dp1259
g61
(dp1260
g81
g82
ssg70
g1254
sg63
(lp1261
S'path_translated'
p1262
asbag56
(g77
g58
NtRp1263
(dp1264
g61
(dp1265
g88
g89
ssg70
g1254
sg63
(lp1266
S':'
asbag56
(g77
g58
NtRp1267
(dp1268
g61
(dp1269
sg70
g1254
sg63
(lp1270
g56
(g57
g58
NtRp1271
(dp1272
g61
(dp1273
g69
I4
ssg70
g1267
sg63
(lp1274
S'/home/www-data/web2py/wsgihandler.py/rdcdss/default/index.pdf'
p1275
asbasbasbag56
(g72
g58
NtRp1276
(dp1277
g61
(dp1278
sg70
g636
sg63
(lp1279
g56
(g77
g58
NtRp1280
(dp1281
g61
(dp1282
g81
g82
ssg70
g1276
sg63
(lp1283
S'query_string'
p1284
asbag56
(g77
g58
NtRp1285
(dp1286
g61
(dp1287
g88
g89
ssg70
g1276
sg63
(lp1288
S':'
asbag56
(g77
g58
NtRp1289
(dp1290
g61
(dp1291
sg70
g1276
sg63
(lp1292
g56
(g57
g58
NtRp1293
(dp1294
g61
(dp1295
g69
I4
ssg70
g1289
sg63
(lp1296
S'q=anemia%2C+low+red+blood+cells+count%2C+infection'
p1297
asbasbasbag56
(g72
g58
NtRp1298
(dp1299
g61
(dp1300
sg70
g636
sg63
(lp1301
g56
(g77
g58
NtRp1302
(dp1303
g61
(dp1304
g81
g82
ssg70
g1298
sg63
(lp1305
S'remote_addr'
p1306
asbag56
(g77
g58
NtRp1307
(dp1308
g61
(dp1309
g88
g89
ssg70
g1298
sg63
(lp1310
S':'
asbag56
(g77
g58
NtRp1311
(dp1312
g61
(dp1313
sg70
g1298
sg63
(lp1314
g56
(g57
g58
NtRp1315
(dp1316
g61
(dp1317
g69
I4
ssg70
g1311
sg63
(lp1318
g189
asbasbasbag56
(g72
g58
NtRp1319
(dp1320
g61
(dp1321
sg70
g636
sg63
(lp1322
g56
(g77
g58
NtRp1323
(dp1324
g61
(dp1325
g81
g82
ssg70
g1319
sg63
(lp1326
S'remote_port'
p1327
asbag56
(g77
g58
NtRp1328
(dp1329
g61
(dp1330
g88
g89
ssg70
g1319
sg63
(lp1331
S':'
asbag56
(g77
g58
NtRp1332
(dp1333
g61
(dp1334
sg70
g1319
sg63
(lp1335
g56
(g57
g58
NtRp1336
(dp1337
g61
(dp1338
g69
I4
ssg70
g1332
sg63
(lp1339
S'63865'
p1340
asbasbasbag56
(g72
g58
NtRp1341
(dp1342
g61
(dp1343
sg70
g636
sg63
(lp1344
g56
(g77
g58
NtRp1345
(dp1346
g61
(dp1347
g81
g82
ssg70
g1341
sg63
(lp1348
S'request_method'
p1349
asbag56
(g77
g58
NtRp1350
(dp1351
g61
(dp1352
g88
g89
ssg70
g1341
sg63
(lp1353
S':'
asbag56
(g77
g58
NtRp1354
(dp1355
g61
(dp1356
sg70
g1341
sg63
(lp1357
g56
(g57
g58
NtRp1358
(dp1359
g61
(dp1360
g69
I4
ssg70
g1354
sg63
(lp1361
S'GET'
p1362
asbasbasbag56
(g72
g58
NtRp1363
(dp1364
g61
(dp1365
sg70
g636
sg63
(lp1366
g56
(g77
g58
NtRp1367
(dp1368
g61
(dp1369
g81
g82
ssg70
g1363
sg63
(lp1370
S'request_uri'
p1371
asbag56
(g77
g58
NtRp1372
(dp1373
g61
(dp1374
g88
g89
ssg70
g1363
sg63
(lp1375
S':'
asbag56
(g77
g58
NtRp1376
(dp1377
g61
(dp1378
sg70
g1363
sg63
(lp1379
g56
(g57
g58
NtRp1380
(dp1381
g61
(dp1382
g69
I4
ssg70
g1376
sg63
(lp1383
S'/rdcdss/default/index.pdf?q=anemia%2C+low+red+blood+cells+count%2C+infection'
p1384
asbasbasbag56
(g72
g58
NtRp1385
(dp1386
g61
(dp1387
sg70
g636
sg63
(lp1388
g56
(g77
g58
NtRp1389
(dp1390
g61
(dp1391
g81
g82
ssg70
g1385
sg63
(lp1392
S'script_filename'
p1393
asbag56
(g77
g58
NtRp1394
(dp1395
g61
(dp1396
g88
g89
ssg70
g1385
sg63
(lp1397
S':'
asbag56
(g77
g58
NtRp1398
(dp1399
g61
(dp1400
sg70
g1385
sg63
(lp1401
g56
(g57
g58
NtRp1402
(dp1403
g61
(dp1404
g69
I4
ssg70
g1398
sg63
(lp1405
S'/home/www-data/web2py/wsgihandler.py'
p1406
asbasbasbag56
(g72
g58
NtRp1407
(dp1408
g61
(dp1409
sg70
g636
sg63
(lp1410
g56
(g77
g58
NtRp1411
(dp1412
g61
(dp1413
g81
g82
ssg70
g1407
sg63
(lp1414
S'script_name'
p1415
asbag56
(g77
g58
NtRp1416
(dp1417
g61
(dp1418
g88
g89
ssg70
g1407
sg63
(lp1419
S':'
asbag56
(g77
g58
NtRp1420
(dp1421
g61
(dp1422
sg70
g1407
sg63
(lp1423
g56
(g57
g58
NtRp1424
(dp1425
g61
(dp1426
g69
I4
ssg70
g1420
sg63
(lp1427
S''
asbasbasbag56
(g72
g58
NtRp1428
(dp1429
g61
(dp1430
sg70
g636
sg63
(lp1431
g56
(g77
g58
NtRp1432
(dp1433
g61
(dp1434
g81
g82
ssg70
g1428
sg63
(lp1435
S'server_addr'
p1436
asbag56
(g77
g58
NtRp1437
(dp1438
g61
(dp1439
g88
g89
ssg70
g1428
sg63
(lp1440
S':'
asbag56
(g77
g58
NtRp1441
(dp1442
g61
(dp1443
sg70
g1428
sg63
(lp1444
g56
(g57
g58
NtRp1445
(dp1446
g61
(dp1447
g69
I4
ssg70
g1441
sg63
(lp1448
S'109.169.46.204'
p1449
asbasbasbag56
(g72
g58
NtRp1450
(dp1451
g61
(dp1452
sg70
g636
sg63
(lp1453
g56
(g77
g58
NtRp1454
(dp1455
g61
(dp1456
g81
g82
ssg70
g1450
sg63
(lp1457
S'server_admin'
p1458
asbag56
(g77
g58
NtRp1459
(dp1460
g61
(dp1461
g88
g89
ssg70
g1450
sg63
(lp1462
S':'
asbag56
(g77
g58
NtRp1463
(dp1464
g61
(dp1465
sg70
g1450
sg63
(lp1466
g56
(g57
g58
NtRp1467
(dp1468
g61
(dp1469
g69
I4
ssg70
g1463
sg63
(lp1470
S'[no address given]'
p1471
asbasbasbag56
(g72
g58
NtRp1472
(dp1473
g61
(dp1474
sg70
g636
sg63
(lp1475
g56
(g77
g58
NtRp1476
(dp1477
g61
(dp1478
g81
g82
ssg70
g1472
sg63
(lp1479
S'server_name'
p1480
asbag56
(g77
g58
NtRp1481
(dp1482
g61
(dp1483
g88
g89
ssg70
g1472
sg63
(lp1484
S':'
asbag56
(g77
g58
NtRp1485
(dp1486
g61
(dp1487
sg70
g1472
sg63
(lp1488
g56
(g57
g58
NtRp1489
(dp1490
g61
(dp1491
g69
I4
ssg70
g1485
sg63
(lp1492
S'costanza.dragusin.ro'
p1493
asbasbasbag56
(g72
g58
NtRp1494
(dp1495
g61
(dp1496
sg70
g636
sg63
(lp1497
g56
(g77
g58
NtRp1498
(dp1499
g61
(dp1500
g81
g82
ssg70
g1494
sg63
(lp1501
S'server_port'
p1502
asbag56
(g77
g58
NtRp1503
(dp1504
g61
(dp1505
g88
g89
ssg70
g1494
sg63
(lp1506
S':'
asbag56
(g77
g58
NtRp1507
(dp1508
g61
(dp1509
sg70
g1494
sg63
(lp1510
g56
(g57
g58
NtRp1511
(dp1512
g61
(dp1513
g69
I4
ssg70
g1507
sg63
(lp1514
S'443'
p1515
asbasbasbag56
(g72
g58
NtRp1516
(dp1517
g61
(dp1518
sg70
g636
sg63
(lp1519
g56
(g77
g58
NtRp1520
(dp1521
g61
(dp1522
g81
g82
ssg70
g1516
sg63
(lp1523
S'server_protocol'
p1524
asbag56
(g77
g58
NtRp1525
(dp1526
g61
(dp1527
g88
g89
ssg70
g1516
sg63
(lp1528
S':'
asbag56
(g77
g58
NtRp1529
(dp1530
g61
(dp1531
sg70
g1516
sg63
(lp1532
g56
(g57
g58
NtRp1533
(dp1534
g61
(dp1535
g69
I4
ssg70
g1529
sg63
(lp1536
S'HTTP/1.1'
p1537
asbasbasbag56
(g72
g58
NtRp1538
(dp1539
g61
(dp1540
sg70
g636
sg63
(lp1541
g56
(g77
g58
NtRp1542
(dp1543
g61
(dp1544
g81
g82
ssg70
g1538
sg63
(lp1545
S'server_signature'
p1546
asbag56
(g77
g58
NtRp1547
(dp1548
g61
(dp1549
g88
g89
ssg70
g1538
sg63
(lp1550
S':'
asbag56
(g77
g58
NtRp1551
(dp1552
g61
(dp1553
sg70
g1538
sg63
(lp1554
g56
(g57
g58
NtRp1555
(dp1556
g61
(dp1557
g69
I4
ssg70
g1551
sg63
(lp1558
S'<address>Apache/2.2.16 (Ubuntu) Server at costanza.dragusin.ro Port 443</address>\n'
p1559
asbasbasbag56
(g72
g58
NtRp1560
(dp1561
g61
(dp1562
sg70
g636
sg63
(lp1563
g56
(g77
g58
NtRp1564
(dp1565
g61
(dp1566
g81
g82
ssg70
g1560
sg63
(lp1567
S'server_software'
p1568
asbag56
(g77
g58
NtRp1569
(dp1570
g61
(dp1571
g88
g89
ssg70
g1560
sg63
(lp1572
S':'
asbag56
(g77
g58
NtRp1573
(dp1574
g61
(dp1575
sg70
g1560
sg63
(lp1576
g56
(g57
g58
NtRp1577
(dp1578
g61
(dp1579
g69
I4
ssg70
g1573
sg63
(lp1580
S'Apache/2.2.16 (Ubuntu)'
p1581
asbasbasbag56
(g72
g58
NtRp1582
(dp1583
g61
(dp1584
sg70
g636
sg63
(lp1585
g56
(g77
g58
NtRp1586
(dp1587
g61
(dp1588
g81
g82
ssg70
g1582
sg63
(lp1589
S'ssl_tls_sni'
p1590
asbag56
(g77
g58
NtRp1591
(dp1592
g61
(dp1593
g88
g89
ssg70
g1582
sg63
(lp1594
S':'
asbag56
(g77
g58
NtRp1595
(dp1596
g61
(dp1597
sg70
g1582
sg63
(lp1598
g56
(g57
g58
NtRp1599
(dp1600
g61
(dp1601
g69
I4
ssg70
g1595
sg63
(lp1602
S'costanza.dragusin.ro'
p1603
asbasbasbag56
(g72
g58
NtRp1604
(dp1605
g61
(dp1606
sg70
g636
sg63
(lp1607
g56
(g77
g58
NtRp1608
(dp1609
g61
(dp1610
g81
g82
ssg70
g1604
sg63
(lp1611
S'web2py_path'
p1612
asbag56
(g77
g58
NtRp1613
(dp1614
g61
(dp1615
g88
g89
ssg70
g1604
sg63
(lp1616
S':'
asbag56
(g77
g58
NtRp1617
(dp1618
g61
(dp1619
sg70
g1604
sg63
(lp1620
g56
(g57
g58
NtRp1621
(dp1622
g61
(dp1623
g69
I4
ssg70
g1617
sg63
(lp1624
g683
asbasbasbag56
(g72
g58
NtRp1625
(dp1626
g61
(dp1627
sg70
g636
sg63
(lp1628
g56
(g77
g58
NtRp1629
(dp1630
g61
(dp1631
g81
g82
ssg70
g1625
sg63
(lp1632
S'web2py_version'
p1633
asbag56
(g77
g58
NtRp1634
(dp1635
g61
(dp1636
g88
g89
ssg70
g1625
sg63
(lp1637
S':'
asbag56
(g77
g58
NtRp1638
(dp1639
g61
(dp1640
sg70
g1625
sg63
(lp1641
g56
(g57
g58
NtRp1642
(dp1643
g61
(dp1644
g69
I4
ssg70
g1638
sg63
(lp1645
S'Version 1.95.1 (2011-04-25 15:04:14)\n'
p1646
asbasbasbag56
(g72
g58
NtRp1647
(dp1648
g61
(dp1649
sg70
g636
sg63
(lp1650
g56
(g77
g58
NtRp1651
(dp1652
g61
(dp1653
g81
g82
ssg70
g1647
sg63
(lp1654
S'wsgi_errors'
p1655
asbag56
(g77
g58
NtRp1656
(dp1657
g61
(dp1658
g88
g89
ssg70
g1647
sg63
(lp1659
S':'
asbag56
(g77
g58
NtRp1660
(dp1661
g61
(dp1662
sg70
g1647
sg63
(lp1663
g56
(g57
g58
NtRp1664
(dp1665
g61
(dp1666
g69
I4
ssg70
g1660
sg63
(lp1667
S'<mod_wsgi.Log object at 0x2b9bdbdb42f0>'
p1668
asbasbasbag56
(g72
g58
NtRp1669
(dp1670
g61
(dp1671
sg70
g636
sg63
(lp1672
g56
(g77
g58
NtRp1673
(dp1674
g61
(dp1675
g81
g82
ssg70
g1669
sg63
(lp1676
S'wsgi_file_wrapper'
p1677
asbag56
(g77
g58
NtRp1678
(dp1679
g61
(dp1680
g88
g89
ssg70
g1669
sg63
(lp1681
S':'
asbag56
(g77
g58
NtRp1682
(dp1683
g61
(dp1684
sg70
g1669
sg63
(lp1685
g56
(g57
g58
NtRp1686
(dp1687
g61
(dp1688
g69
I4
ssg70
g1682
sg63
(lp1689
S'<built-in method file_wrapper of mod_wsgi.Adapter object at 0x2b9be00710a8>'
p1690
asbasbasbag56
(g72
g58
NtRp1691
(dp1692
g61
(dp1693
sg70
g636
sg63
(lp1694
g56
(g77
g58
NtRp1695
(dp1696
g61
(dp1697
g81
g82
ssg70
g1691
sg63
(lp1698
S'wsgi_input'
p1699
asbag56
(g77
g58
NtRp1700
(dp1701
g61
(dp1702
g88
g89
ssg70
g1691
sg63
(lp1703
S':'
asbag56
(g77
g58
NtRp1704
(dp1705
g61
(dp1706
sg70
g1691
sg63
(lp1707
g56
(g57
g58
NtRp1708
(dp1709
g61
(dp1710
g69
I4
ssg70
g1704
sg63
(lp1711
S'<mod_wsgi.Input object at 0x2b9bdb8a9630>'
p1712
asbasbasbag56
(g72
g58
NtRp1713
(dp1714
g61
(dp1715
sg70
g636
sg63
(lp1716
g56
(g77
g58
NtRp1717
(dp1718
g61
(dp1719
g81
g82
ssg70
g1713
sg63
(lp1720
S'wsgi_multiprocess'
p1721
asbag56
(g77
g58
NtRp1722
(dp1723
g61
(dp1724
g88
g89
ssg70
g1713
sg63
(lp1725
S':'
asbag56
(g77
g58
NtRp1726
(dp1727
g61
(dp1728
sg70
g1713
sg63
(lp1729
g56
(g57
g58
NtRp1730
(dp1731
g61
(dp1732
g69
I4
ssg70
g1726
sg63
(lp1733
g99
asbasbasbag56
(g72
g58
NtRp1734
(dp1735
g61
(dp1736
sg70
g636
sg63
(lp1737
g56
(g77
g58
NtRp1738
(dp1739
g61
(dp1740
g81
g82
ssg70
g1734
sg63
(lp1741
S'wsgi_multithread'
p1742
asbag56
(g77
g58
NtRp1743
(dp1744
g61
(dp1745
g88
g89
ssg70
g1734
sg63
(lp1746
S':'
asbag56
(g77
g58
NtRp1747
(dp1748
g61
(dp1749
sg70
g1734
sg63
(lp1750
g56
(g57
g58
NtRp1751
(dp1752
g61
(dp1753
g69
I4
ssg70
g1747
sg63
(lp1754
S'True'
p1755
asbasbasbag56
(g72
g58
NtRp1756
(dp1757
g61
(dp1758
sg70
g636
sg63
(lp1759
g56
(g77
g58
NtRp1760
(dp1761
g61
(dp1762
g81
g82
ssg70
g1756
sg63
(lp1763
S'wsgi_run_once'
p1764
asbag56
(g77
g58
NtRp1765
(dp1766
g61
(dp1767
g88
g89
ssg70
g1756
sg63
(lp1768
S':'
asbag56
(g77
g58
NtRp1769
(dp1770
g61
(dp1771
sg70
g1756
sg63
(lp1772
g56
(g57
g58
NtRp1773
(dp1774
g61
(dp1775
g69
I4
ssg70
g1769
sg63
(lp1776
g99
asbasbasbag56
(g72
g58
NtRp1777
(dp1778
g61
(dp1779
sg70
g636
sg63
(lp1780
g56
(g77
g58
NtRp1781
(dp1782
g61
(dp1783
g81
g82
ssg70
g1777
sg63
(lp1784
S'wsgi_url_scheme'
p1785
asbag56
(g77
g58
NtRp1786
(dp1787
g61
(dp1788
g88
g89
ssg70
g1777
sg63
(lp1789
S':'
asbag56
(g77
g58
NtRp1790
(dp1791
g61
(dp1792
sg70
g1777
sg63
(lp1793
g56
(g57
g58
NtRp1794
(dp1795
g61
(dp1796
g69
I4
ssg70
g1790
sg63
(lp1797
S'https'
p1798
asbasbasbag56
(g72
g58
NtRp1799
(dp1800
g61
(dp1801
sg70
g636
sg63
(lp1802
g56
(g77
g58
NtRp1803
(dp1804
g61
(dp1805
g81
g82
ssg70
g1799
sg63
(lp1806
S'wsgi_version'
p1807
asbag56
(g77
g58
NtRp1808
(dp1809
g61
(dp1810
g88
g89
ssg70
g1799
sg63
(lp1811
S':'
asbag56
(g77
g58
NtRp1812
(dp1813
g61
(dp1814
sg70
g1799
sg63
(lp1815
g56
(g57
g58
NtRp1816
(dp1817
g61
(dp1818
g69
I4
ssg70
g1812
sg63
(lp1819
g56
(g65
g58
NtRp1820
(dp1821
g61
(dp1822
g69
I3
ssg70
Nsg63
(lp1823
g56
(g72
g58
NtRp1824
(dp1825
g61
(dp1826
sg70
g1820
sg63
(lp1827
g56
(g77
g58
NtRp1828
(dp1829
g61
(dp1830
sg70
g1824
sg63
(lp1831
g56
(g57
g58
NtRp1832
(dp1833
g61
(dp1834
g69
I3
ssg70
g1828
sg63
(lp1835
S'1'
asbasbasbag56
(g72
g58
NtRp1836
(dp1837
g61
(dp1838
sg70
g1820
sg63
(lp1839
g56
(g77
g58
NtRp1840
(dp1841
g61
(dp1842
sg70
g1836
sg63
(lp1843
g56
(g57
g58
NtRp1844
(dp1845
g61
(dp1846
g69
I3
ssg70
g1840
sg63
(lp1847
S'1'
asbasbasbasbasbasbasbasbasbasbasbag56
(g72
g58
NtRp1848
(dp1849
g61
(dp1850
sg70
g66
sg63
(lp1851
g56
(g77
g58
NtRp1852
(dp1853
g61
(dp1854
g81
g82
ssg70
g1848
sg63
(lp1855
S'extension'
p1856
asbag56
(g77
g58
NtRp1857
(dp1858
g61
(dp1859
g88
g89
ssg70
g1848
sg63
(lp1860
S':'
asbag56
(g77
g58
NtRp1861
(dp1862
g61
(dp1863
sg70
g1848
sg63
(lp1864
g56
(g57
g58
NtRp1865
(dp1866
g61
(dp1867
g69
I5
ssg70
g1861
sg63
(lp1868
S'pdf'
p1869
asbasbasbag56
(g72
g58
NtRp1870
(dp1871
g61
(dp1872
sg70
g66
sg63
(lp1873
g56
(g77
g58
NtRp1874
(dp1875
g61
(dp1876
g81
g82
ssg70
g1870
sg63
(lp1877
S'folder'
p1878
asbag56
(g77
g58
NtRp1879
(dp1880
g61
(dp1881
g88
g89
ssg70
g1870
sg63
(lp1882
S':'
asbag56
(g77
g58
NtRp1883
(dp1884
g61
(dp1885
sg70
g1870
sg63
(lp1886
g56
(g57
g58
NtRp1887
(dp1888
g61
(dp1889
g69
I5
ssg70
g1883
sg63
(lp1890
S'/home/www-data/web2py/applications/rdcdss/'
p1891
asbasbasbag56
(g72
g58
NtRp1892
(dp1893
g61
(dp1894
sg70
g66
sg63
(lp1895
g56
(g77
g58
NtRp1896
(dp1897
g61
(dp1898
g81
g82
ssg70
g1892
sg63
(lp1899
S'function'
p1900
asbag56
(g77
g58
NtRp1901
(dp1902
g61
(dp1903
g88
g89
ssg70
g1892
sg63
(lp1904
S':'
asbag56
(g77
g58
NtRp1905
(dp1906
g61
(dp1907
sg70
g1892
sg63
(lp1908
g56
(g57
g58
NtRp1909
(dp1910
g61
(dp1911
g69
I5
ssg70
g1905
sg63
(lp1912
S'index'
p1913
asbasbasbag56
(g72
g58
NtRp1914
(dp1915
g61
(dp1916
sg70
g66
sg63
(lp1917
g56
(g77
g58
NtRp1918
(dp1919
g61
(dp1920
g81
g82
ssg70
g1914
sg63
(lp1921
S'get_vars'
p1922
asbag56
(g77
g58
NtRp1923
(dp1924
g61
(dp1925
g88
g89
ssg70
g1914
sg63
(lp1926
S':'
asbag56
(g77
g58
NtRp1927
(dp1928
g61
(dp1929
sg70
g1914
sg63
(lp1930
g56
(g57
g58
NtRp1931
(dp1932
g61
(dp1933
g69
I5
ssg70
g1927
sg63
(lp1934
g56
(g65
g58
NtRp1935
(dp1936
g61
(dp1937
g69
I4
ssg70
Nsg63
(lp1938
g56
(g72
g58
NtRp1939
(dp1940
g61
(dp1941
sg70
g1935
sg63
(lp1942
g56
(g77
g58
NtRp1943
(dp1944
g61
(dp1945
g81
g82
ssg70
g1939
sg63
(lp1946
S'q'
asbag56
(g77
g58
NtRp1947
(dp1948
g61
(dp1949
g88
g89
ssg70
g1939
sg63
(lp1950
S':'
asbag56
(g77
g58
NtRp1951
(dp1952
g61
(dp1953
sg70
g1939
sg63
(lp1954
g56
(g57
g58
NtRp1955
(dp1956
g61
(dp1957
g69
I4
ssg70
g1951
sg63
(lp1958
S'anemia, low red blood cells count, infection'
p1959
asbasbasbasbasbasbasbag56
(g72
g58
NtRp1960
(dp1961
g61
(dp1962
sg70
g66
sg63
(lp1963
g56
(g77
g58
NtRp1964
(dp1965
g61
(dp1966
g81
g82
ssg70
g1960
sg63
(lp1967
S'is_restful'
p1968
asbag56
(g77
g58
NtRp1969
(dp1970
g61
(dp1971
g88
g89
ssg70
g1960
sg63
(lp1972
S':'
asbag56
(g77
g58
NtRp1973
(dp1974
g61
(dp1975
sg70
g1960
sg63
(lp1976
g56
(g57
g58
NtRp1977
(dp1978
g61
(dp1979
g69
I5
ssg70
g1973
sg63
(lp1980
g99
asbasbasbag56
(g72
g58
NtRp1981
(dp1982
g61
(dp1983
sg70
g66
sg63
(lp1984
g56
(g77
g58
NtRp1985
(dp1986
g61
(dp1987
g81
g82
ssg70
g1981
sg63
(lp1988
S'now'
p1989
asbag56
(g77
g58
NtRp1990
(dp1991
g61
(dp1992
g88
g89
ssg70
g1981
sg63
(lp1993
S':'
asbag56
(g77
g58
NtRp1994
(dp1995
g61
(dp1996
sg70
g1981
sg63
(lp1997
g56
(g57
g58
NtRp1998
(dp1999
g61
(dp2000
g69
I5
ssg70
g1994
sg63
(lp2001
S'datetime.datetime(2011, 6, 30, 14, 23, 31, 820591)'
p2002
asbasbasbag56
(g72
g58
NtRp2003
(dp2004
g61
(dp2005
sg70
g66
sg63
(lp2006
g56
(g77
g58
NtRp2007
(dp2008
g61
(dp2009
g81
g82
ssg70
g2003
sg63
(lp2010
S'post_vars'
p2011
asbag56
(g77
g58
NtRp2012
(dp2013
g61
(dp2014
g88
g89
ssg70
g2003
sg63
(lp2015
S':'
asbag56
(g77
g58
NtRp2016
(dp2017
g61
(dp2018
sg70
g2003
sg63
(lp2019
g56
(g57
g58
NtRp2020
(dp2021
g61
(dp2022
g69
I5
ssg70
g2016
sg63
(lp2023
g56
(g65
g58
NtRp2024
(dp2025
g61
(dp2026
g69
I4
ssg70
Nsg63
(lp2027
sbasbasbasbag56
(g72
g58
NtRp2028
(dp2029
g61
(dp2030
sg70
g66
sg63
(lp2031
g56
(g77
g58
NtRp2032
(dp2033
g61
(dp2034
g81
g82
ssg70
g2028
sg63
(lp2035
S'raw_extension'
p2036
asbag56
(g77
g58
NtRp2037
(dp2038
g61
(dp2039
g88
g89
ssg70
g2028
sg63
(lp2040
S':'
asbag56
(g77
g58
NtRp2041
(dp2042
g61
(dp2043
sg70
g2028
sg63
(lp2044
g56
(g57
g58
NtRp2045
(dp2046
g61
(dp2047
g69
I5
ssg70
g2041
sg63
(lp2048
g1869
asbasbasbag56
(g72
g58
NtRp2049
(dp2050
g61
(dp2051
sg70
g66
sg63
(lp2052
g56
(g77
g58
NtRp2053
(dp2054
g61
(dp2055
g81
g82
ssg70
g2049
sg63
(lp2056
S'url'
p2057
asbag56
(g77
g58
NtRp2058
(dp2059
g61
(dp2060
g88
g89
ssg70
g2049
sg63
(lp2061
S':'
asbag56
(g77
g58
NtRp2062
(dp2063
g61
(dp2064
sg70
g2049
sg63
(lp2065
g56
(g57
g58
NtRp2066
(dp2067
g61
(dp2068
g69
I5
ssg70
g2062
sg63
(lp2069
S'/rdcdss/default/index.pdf'
p2070
asbasbasbag56
(g72
g58
NtRp2071
(dp2072
g61
(dp2073
sg70
g66
sg63
(lp2074
g56
(g77
g58
NtRp2075
(dp2076
g61
(dp2077
g81
g82
ssg70
g2071
sg63
(lp2078
S'uuid'
p2079
asbag56
(g77
g58
NtRp2080
(dp2081
g61
(dp2082
g88
g89
ssg70
g2071
sg63
(lp2083
S':'
asbag56
(g77
g58
NtRp2084
(dp2085
g61
(dp2086
sg70
g2071
sg63
(lp2087
g56
(g57
g58
NtRp2088
(dp2089
g61
(dp2090
g69
I5
ssg70
g2084
sg63
(lp2091
S'rdcdss/89.123.2.193.2011-06-30.14-23-31.c8e1b078-0355-4446-bca8-2f20ce3a7229'
p2092
asbasbasbag56
(g72
g58
NtRp2093
(dp2094
g61
(dp2095
sg70
g66
sg63
(lp2096
g56
(g77
g58
NtRp2097
(dp2098
g61
(dp2099
g81
g82
ssg70
g2093
sg63
(lp2100
S'vars'
p2101
asbag56
(g77
g58
NtRp2102
(dp2103
g61
(dp2104
g88
g89
ssg70
g2093
sg63
(lp2105
S':'
asbag56
(g77
g58
NtRp2106
(dp2107
g61
(dp2108
sg70
g2093
sg63
(lp2109
g56
(g57
g58
NtRp2110
(dp2111
g61
(dp2112
g69
I5
ssg70
g2106
sg63
(lp2113
g56
(g65
g58
NtRp2114
(dp2115
g61
(dp2116
g69
I4
ssg70
Nsg63
(lp2117
g56
(g72
g58
NtRp2118
(dp2119
g61
(dp2120
sg70
g2114
sg63
(lp2121
g56
(g77
g58
NtRp2122
(dp2123
g61
(dp2124
g81
g82
ssg70
g2118
sg63
(lp2125
S'q'
asbag56
(g77
g58
NtRp2126
(dp2127
g61
(dp2128
g88
g89
ssg70
g2118
sg63
(lp2129
S':'
asbag56
(g77
g58
NtRp2130
(dp2131
g61
(dp2132
sg70
g2118
sg63
(lp2133
g56
(g57
g58
NtRp2134
(dp2135
g61
(dp2136
g69
I4
ssg70
g2130
sg63
(lp2137
g1959
asbasbasbasbasbasbasbag56
(g72
g58
NtRp2138
(dp2139
g61
(dp2140
sg70
g66
sg63
(lp2141
g56
(g77
g58
NtRp2142
(dp2143
g61
(dp2144
g81
g82
ssg70
g2138
sg63
(lp2145
S'wsgi'
p2146
asbag56
(g77
g58
NtRp2147
(dp2148
g61
(dp2149
g88
g89
ssg70
g2138
sg63
(lp2150
S':'
asbag56
(g77
g58
NtRp2151
(dp2152
g61
(dp2153
sg70
g2138
sg63
(lp2154
g56
(g57
g58
NtRp2155
(dp2156
g61
(dp2157
g69
I5
ssg70
g2151
sg63
(lp2158
g56
(g65
g58
NtRp2159
(dp2160
g61
(dp2161
g69
I4
ssg70
Nsg63
(lp2162
g56
(g72
g58
NtRp2163
(dp2164
g61
(dp2165
sg70
g2159
sg63
(lp2166
g56
(g77
g58
NtRp2167
(dp2168
g61
(dp2169
g81
g82
ssg70
g2163
sg63
(lp2170
S'environ'
p2171
asbag56
(g77
g58
NtRp2172
(dp2173
g61
(dp2174
g88
g89
ssg70
g2163
sg63
(lp2175
S':'
asbag56
(g77
g58
NtRp2176
(dp2177
g61
(dp2178
sg70
g2163
sg63
(lp2179
g56
(g57
g58
NtRp2180
(dp2181
g61
(dp2182
g69
I4
ssg70
g2176
sg63
(lp2183
g56
(g65
g58
NtRp2184
(dp2185
g61
(dp2186
g69
I3
ssg70
Nsg63
(lp2187
g56
(g72
g58
NtRp2188
(dp2189
g61
(dp2190
sg70
g2184
sg63
(lp2191
g56
(g77
g58
NtRp2192
(dp2193
g61
(dp2194
g81
g82
ssg70
g2188
sg63
(lp2195
S'DOCUMENT_ROOT'
p2196
asbag56
(g77
g58
NtRp2197
(dp2198
g61
(dp2199
g88
g89
ssg70
g2188
sg63
(lp2200
S':'
asbag56
(g77
g58
NtRp2201
(dp2202
g61
(dp2203
sg70
g2188
sg63
(lp2204
g56
(g57
g58
NtRp2205
(dp2206
g61
(dp2207
g69
I3
ssg70
g2201
sg63
(lp2208
g748
asbasbasbag56
(g72
g58
NtRp2209
(dp2210
g61
(dp2211
sg70
g2184
sg63
(lp2212
g56
(g77
g58
NtRp2213
(dp2214
g61
(dp2215
g81
g82
ssg70
g2209
sg63
(lp2216
S'GATEWAY_INTERFACE'
p2217
asbag56
(g77
g58
NtRp2218
(dp2219
g61
(dp2220
g88
g89
ssg70
g2209
sg63
(lp2221
S':'
asbag56
(g77
g58
NtRp2222
(dp2223
g61
(dp2224
sg70
g2209
sg63
(lp2225
g56
(g57
g58
NtRp2226
(dp2227
g61
(dp2228
g69
I3
ssg70
g2222
sg63
(lp2229
g770
asbasbasbag56
(g72
g58
NtRp2230
(dp2231
g61
(dp2232
sg70
g2184
sg63
(lp2233
g56
(g77
g58
NtRp2234
(dp2235
g61
(dp2236
g81
g82
ssg70
g2230
sg63
(lp2237
S'HTTPS'
p2238
asbag56
(g77
g58
NtRp2239
(dp2240
g61
(dp2241
g88
g89
ssg70
g2230
sg63
(lp2242
S':'
asbag56
(g77
g58
NtRp2243
(dp2244
g61
(dp2245
sg70
g2230
sg63
(lp2246
g56
(g57
g58
NtRp2247
(dp2248
g61
(dp2249
g69
I3
ssg70
g2243
sg63
(lp2250
S'1'
asbasbasbag56
(g72
g58
NtRp2251
(dp2252
g61
(dp2253
sg70
g2184
sg63
(lp2254
g56
(g77
g58
NtRp2255
(dp2256
g61
(dp2257
g81
g82
ssg70
g2251
sg63
(lp2258
S'HTTP_ACCEPT'
p2259
asbag56
(g77
g58
NtRp2260
(dp2261
g61
(dp2262
g88
g89
ssg70
g2251
sg63
(lp2263
S':'
asbag56
(g77
g58
NtRp2264
(dp2265
g61
(dp2266
sg70
g2251
sg63
(lp2267
g56
(g57
g58
NtRp2268
(dp2269
g61
(dp2270
g69
I3
ssg70
g2264
sg63
(lp2271
g813
asbasbasbag56
(g72
g58
NtRp2272
(dp2273
g61
(dp2274
sg70
g2184
sg63
(lp2275
g56
(g77
g58
NtRp2276
(dp2277
g61
(dp2278
g81
g82
ssg70
g2272
sg63
(lp2279
S'HTTP_ACCEPT_CHARSET'
p2280
asbag56
(g77
g58
NtRp2281
(dp2282
g61
(dp2283
g88
g89
ssg70
g2272
sg63
(lp2284
S':'
asbag56
(g77
g58
NtRp2285
(dp2286
g61
(dp2287
sg70
g2272
sg63
(lp2288
g56
(g57
g58
NtRp2289
(dp2290
g61
(dp2291
g69
I3
ssg70
g2285
sg63
(lp2292
g835
asbasbasbag56
(g72
g58
NtRp2293
(dp2294
g61
(dp2295
sg70
g2184
sg63
(lp2296
g56
(g77
g58
NtRp2297
(dp2298
g61
(dp2299
g81
g82
ssg70
g2293
sg63
(lp2300
S'HTTP_ACCEPT_ENCODING'
p2301
asbag56
(g77
g58
NtRp2302
(dp2303
g61
(dp2304
g88
g89
ssg70
g2293
sg63
(lp2305
S':'
asbag56
(g77
g58
NtRp2306
(dp2307
g61
(dp2308
sg70
g2293
sg63
(lp2309
g56
(g57
g58
NtRp2310
(dp2311
g61
(dp2312
g69
I3
ssg70
g2306
sg63
(lp2313
g857
asbasbasbag56
(g72
g58
NtRp2314
(dp2315
g61
(dp2316
sg70
g2184
sg63
(lp2317
g56
(g77
g58
NtRp2318
(dp2319
g61
(dp2320
g81
g82
ssg70
g2314
sg63
(lp2321
S'HTTP_ACCEPT_LANGUAGE'
p2322
asbag56
(g77
g58
NtRp2323
(dp2324
g61
(dp2325
g88
g89
ssg70
g2314
sg63
(lp2326
S':'
asbag56
(g77
g58
NtRp2327
(dp2328
g61
(dp2329
sg70
g2314
sg63
(lp2330
g56
(g57
g58
NtRp2331
(dp2332
g61
(dp2333
g69
I3
ssg70
g2327
sg63
(lp2334
g879
asbasbasbag56
(g72
g58
NtRp2335
(dp2336
g61
(dp2337
sg70
g2184
sg63
(lp2338
g56
(g77
g58
NtRp2339
(dp2340
g61
(dp2341
g81
g82
ssg70
g2335
sg63
(lp2342
S'HTTP_CONNECTION'
p2343
asbag56
(g77
g58
NtRp2344
(dp2345
g61
(dp2346
g88
g89
ssg70
g2335
sg63
(lp2347
S':'
asbag56
(g77
g58
NtRp2348
(dp2349
g61
(dp2350
sg70
g2335
sg63
(lp2351
g56
(g57
g58
NtRp2352
(dp2353
g61
(dp2354
g69
I3
ssg70
g2348
sg63
(lp2355
g901
asbasbasbag56
(g72
g58
NtRp2356
(dp2357
g61
(dp2358
sg70
g2184
sg63
(lp2359
g56
(g77
g58
NtRp2360
(dp2361
g61
(dp2362
g81
g82
ssg70
g2356
sg63
(lp2363
S'HTTP_COOKIE'
p2364
asbag56
(g77
g58
NtRp2365
(dp2366
g61
(dp2367
g88
g89
ssg70
g2356
sg63
(lp2368
S':'
asbag56
(g77
g58
NtRp2369
(dp2370
g61
(dp2371
sg70
g2356
sg63
(lp2372
g56
(g57
g58
NtRp2373
(dp2374
g61
(dp2375
g69
I3
ssg70
g2369
sg63
(lp2376
g923
asbasbasbag56
(g72
g58
NtRp2377
(dp2378
g61
(dp2379
sg70
g2184
sg63
(lp2380
g56
(g77
g58
NtRp2381
(dp2382
g61
(dp2383
g81
g82
ssg70
g2377
sg63
(lp2384
S'HTTP_HOST'
p2385
asbag56
(g77
g58
NtRp2386
(dp2387
g61
(dp2388
g88
g89
ssg70
g2377
sg63
(lp2389
S':'
asbag56
(g77
g58
NtRp2390
(dp2391
g61
(dp2392
sg70
g2377
sg63
(lp2393
g56
(g57
g58
NtRp2394
(dp2395
g61
(dp2396
g69
I3
ssg70
g2390
sg63
(lp2397
g945
asbasbasbag56
(g72
g58
NtRp2398
(dp2399
g61
(dp2400
sg70
g2184
sg63
(lp2401
g56
(g77
g58
NtRp2402
(dp2403
g61
(dp2404
g81
g82
ssg70
g2398
sg63
(lp2405
S'HTTP_USER_AGENT'
p2406
asbag56
(g77
g58
NtRp2407
(dp2408
g61
(dp2409
g88
g89
ssg70
g2398
sg63
(lp2410
S':'
asbag56
(g77
g58
NtRp2411
(dp2412
g61
(dp2413
sg70
g2398
sg63
(lp2414
g56
(g57
g58
NtRp2415
(dp2416
g61
(dp2417
g69
I3
ssg70
g2411
sg63
(lp2418
g967
asbasbasbag56
(g72
g58
NtRp2419
(dp2420
g61
(dp2421
sg70
g2184
sg63
(lp2422
g56
(g77
g58
NtRp2423
(dp2424
g61
(dp2425
g81
g82
ssg70
g2419
sg63
(lp2426
S'PATH_INFO'
p2427
asbag56
(g77
g58
NtRp2428
(dp2429
g61
(dp2430
g88
g89
ssg70
g2419
sg63
(lp2431
S':'
asbag56
(g77
g58
NtRp2432
(dp2433
g61
(dp2434
sg70
g2419
sg63
(lp2435
g56
(g57
g58
NtRp2436
(dp2437
g61
(dp2438
g69
I3
ssg70
g2432
sg63
(lp2439
g1253
asbasbasbag56
(g72
g58
NtRp2440
(dp2441
g61
(dp2442
sg70
g2184
sg63
(lp2443
g56
(g77
g58
NtRp2444
(dp2445
g61
(dp2446
g81
g82
ssg70
g2440
sg63
(lp2447
S'PATH_TRANSLATED'
p2448
asbag56
(g77
g58
NtRp2449
(dp2450
g61
(dp2451
g88
g89
ssg70
g2440
sg63
(lp2452
S':'
asbag56
(g77
g58
NtRp2453
(dp2454
g61
(dp2455
sg70
g2440
sg63
(lp2456
g56
(g57
g58
NtRp2457
(dp2458
g61
(dp2459
g69
I3
ssg70
g2453
sg63
(lp2460
g1275
asbasbasbag56
(g72
g58
NtRp2461
(dp2462
g61
(dp2463
sg70
g2184
sg63
(lp2464
g56
(g77
g58
NtRp2465
(dp2466
g61
(dp2467
g81
g82
ssg70
g2461
sg63
(lp2468
S'QUERY_STRING'
p2469
asbag56
(g77
g58
NtRp2470
(dp2471
g61
(dp2472
g88
g89
ssg70
g2461
sg63
(lp2473
S':'
asbag56
(g77
g58
NtRp2474
(dp2475
g61
(dp2476
sg70
g2461
sg63
(lp2477
g56
(g57
g58
NtRp2478
(dp2479
g61
(dp2480
g69
I3
ssg70
g2474
sg63
(lp2481
g1297
asbasbasbag56
(g72
g58
NtRp2482
(dp2483
g61
(dp2484
sg70
g2184
sg63
(lp2485
g56
(g77
g58
NtRp2486
(dp2487
g61
(dp2488
g81
g82
ssg70
g2482
sg63
(lp2489
S'REMOTE_ADDR'
p2490
asbag56
(g77
g58
NtRp2491
(dp2492
g61
(dp2493
g88
g89
ssg70
g2482
sg63
(lp2494
S':'
asbag56
(g77
g58
NtRp2495
(dp2496
g61
(dp2497
sg70
g2482
sg63
(lp2498
g56
(g57
g58
NtRp2499
(dp2500
g61
(dp2501
g69
I3
ssg70
g2495
sg63
(lp2502
g189
asbasbasbag56
(g72
g58
NtRp2503
(dp2504
g61
(dp2505
sg70
g2184
sg63
(lp2506
g56
(g77
g58
NtRp2507
(dp2508
g61
(dp2509
g81
g82
ssg70
g2503
sg63
(lp2510
S'REMOTE_PORT'
p2511
asbag56
(g77
g58
NtRp2512
(dp2513
g61
(dp2514
g88
g89
ssg70
g2503
sg63
(lp2515
S':'
asbag56
(g77
g58
NtRp2516
(dp2517
g61
(dp2518
sg70
g2503
sg63
(lp2519
g56
(g57
g58
NtRp2520
(dp2521
g61
(dp2522
g69
I3
ssg70
g2516
sg63
(lp2523
g1340
asbasbasbag56
(g72
g58
NtRp2524
(dp2525
g61
(dp2526
sg70
g2184
sg63
(lp2527
g56
(g77
g58
NtRp2528
(dp2529
g61
(dp2530
g81
g82
ssg70
g2524
sg63
(lp2531
S'REQUEST_METHOD'
p2532
asbag56
(g77
g58
NtRp2533
(dp2534
g61
(dp2535
g88
g89
ssg70
g2524
sg63
(lp2536
S':'
asbag56
(g77
g58
NtRp2537
(dp2538
g61
(dp2539
sg70
g2524
sg63
(lp2540
g56
(g57
g58
NtRp2541
(dp2542
g61
(dp2543
g69
I3
ssg70
g2537
sg63
(lp2544
g1362
asbasbasbag56
(g72
g58
NtRp2545
(dp2546
g61
(dp2547
sg70
g2184
sg63
(lp2548
g56
(g77
g58
NtRp2549
(dp2550
g61
(dp2551
g81
g82
ssg70
g2545
sg63
(lp2552
S'REQUEST_URI'
p2553
asbag56
(g77
g58
NtRp2554
(dp2555
g61
(dp2556
g88
g89
ssg70
g2545
sg63
(lp2557
S':'
asbag56
(g77
g58
NtRp2558
(dp2559
g61
(dp2560
sg70
g2545
sg63
(lp2561
g56
(g57
g58
NtRp2562
(dp2563
g61
(dp2564
g69
I3
ssg70
g2558
sg63
(lp2565
g1384
asbasbasbag56
(g72
g58
NtRp2566
(dp2567
g61
(dp2568
sg70
g2184
sg63
(lp2569
g56
(g77
g58
NtRp2570
(dp2571
g61
(dp2572
g81
g82
ssg70
g2566
sg63
(lp2573
S'SCRIPT_FILENAME'
p2574
asbag56
(g77
g58
NtRp2575
(dp2576
g61
(dp2577
g88
g89
ssg70
g2566
sg63
(lp2578
S':'
asbag56
(g77
g58
NtRp2579
(dp2580
g61
(dp2581
sg70
g2566
sg63
(lp2582
g56
(g57
g58
NtRp2583
(dp2584
g61
(dp2585
g69
I3
ssg70
g2579
sg63
(lp2586
g1406
asbasbasbag56
(g72
g58
NtRp2587
(dp2588
g61
(dp2589
sg70
g2184
sg63
(lp2590
g56
(g77
g58
NtRp2591
(dp2592
g61
(dp2593
g81
g82
ssg70
g2587
sg63
(lp2594
S'SCRIPT_NAME'
p2595
asbag56
(g77
g58
NtRp2596
(dp2597
g61
(dp2598
g88
g89
ssg70
g2587
sg63
(lp2599
S':'
asbag56
(g77
g58
NtRp2600
(dp2601
g61
(dp2602
sg70
g2587
sg63
(lp2603
g56
(g57
g58
NtRp2604
(dp2605
g61
(dp2606
g69
I3
ssg70
g2600
sg63
(lp2607
S''
asbasbasbag56
(g72
g58
NtRp2608
(dp2609
g61
(dp2610
sg70
g2184
sg63
(lp2611
g56
(g77
g58
NtRp2612
(dp2613
g61
(dp2614
g81
g82
ssg70
g2608
sg63
(lp2615
S'SERVER_ADDR'
p2616
asbag56
(g77
g58
NtRp2617
(dp2618
g61
(dp2619
g88
g89
ssg70
g2608
sg63
(lp2620
S':'
asbag56
(g77
g58
NtRp2621
(dp2622
g61
(dp2623
sg70
g2608
sg63
(lp2624
g56
(g57
g58
NtRp2625
(dp2626
g61
(dp2627
g69
I3
ssg70
g2621
sg63
(lp2628
g1449
asbasbasbag56
(g72
g58
NtRp2629
(dp2630
g61
(dp2631
sg70
g2184
sg63
(lp2632
g56
(g77
g58
NtRp2633
(dp2634
g61
(dp2635
g81
g82
ssg70
g2629
sg63
(lp2636
S'SERVER_ADMIN'
p2637
asbag56
(g77
g58
NtRp2638
(dp2639
g61
(dp2640
g88
g89
ssg70
g2629
sg63
(lp2641
S':'
asbag56
(g77
g58
NtRp2642
(dp2643
g61
(dp2644
sg70
g2629
sg63
(lp2645
g56
(g57
g58
NtRp2646
(dp2647
g61
(dp2648
g69
I3
ssg70
g2642
sg63
(lp2649
g1471
asbasbasbag56
(g72
g58
NtRp2650
(dp2651
g61
(dp2652
sg70
g2184
sg63
(lp2653
g56
(g77
g58
NtRp2654
(dp2655
g61
(dp2656
g81
g82
ssg70
g2650
sg63
(lp2657
S'SERVER_NAME'
p2658
asbag56
(g77
g58
NtRp2659
(dp2660
g61
(dp2661
g88
g89
ssg70
g2650
sg63
(lp2662
S':'
asbag56
(g77
g58
NtRp2663
(dp2664
g61
(dp2665
sg70
g2650
sg63
(lp2666
g56
(g57
g58
NtRp2667
(dp2668
g61
(dp2669
g69
I3
ssg70
g2663
sg63
(lp2670
g1493
asbasbasbag56
(g72
g58
NtRp2671
(dp2672
g61
(dp2673
sg70
g2184
sg63
(lp2674
g56
(g77
g58
NtRp2675
(dp2676
g61
(dp2677
g81
g82
ssg70
g2671
sg63
(lp2678
S'SERVER_PORT'
p2679
asbag56
(g77
g58
NtRp2680
(dp2681
g61
(dp2682
g88
g89
ssg70
g2671
sg63
(lp2683
S':'
asbag56
(g77
g58
NtRp2684
(dp2685
g61
(dp2686
sg70
g2671
sg63
(lp2687
g56
(g57
g58
NtRp2688
(dp2689
g61
(dp2690
g69
I3
ssg70
g2684
sg63
(lp2691
g1515
asbasbasbag56
(g72
g58
NtRp2692
(dp2693
g61
(dp2694
sg70
g2184
sg63
(lp2695
g56
(g77
g58
NtRp2696
(dp2697
g61
(dp2698
g81
g82
ssg70
g2692
sg63
(lp2699
S'SERVER_PROTOCOL'
p2700
asbag56
(g77
g58
NtRp2701
(dp2702
g61
(dp2703
g88
g89
ssg70
g2692
sg63
(lp2704
S':'
asbag56
(g77
g58
NtRp2705
(dp2706
g61
(dp2707
sg70
g2692
sg63
(lp2708
g56
(g57
g58
NtRp2709
(dp2710
g61
(dp2711
g69
I3
ssg70
g2705
sg63
(lp2712
g1537
asbasbasbag56
(g72
g58
NtRp2713
(dp2714
g61
(dp2715
sg70
g2184
sg63
(lp2716
g56
(g77
g58
NtRp2717
(dp2718
g61
(dp2719
g81
g82
ssg70
g2713
sg63
(lp2720
S'SERVER_SIGNATURE'
p2721
asbag56
(g77
g58
NtRp2722
(dp2723
g61
(dp2724
g88
g89
ssg70
g2713
sg63
(lp2725
S':'
asbag56
(g77
g58
NtRp2726
(dp2727
g61
(dp2728
sg70
g2713
sg63
(lp2729
g56
(g57
g58
NtRp2730
(dp2731
g61
(dp2732
g69
I3
ssg70
g2726
sg63
(lp2733
g1559
asbasbasbag56
(g72
g58
NtRp2734
(dp2735
g61
(dp2736
sg70
g2184
sg63
(lp2737
g56
(g77
g58
NtRp2738
(dp2739
g61
(dp2740
g81
g82
ssg70
g2734
sg63
(lp2741
S'SERVER_SOFTWARE'
p2742
asbag56
(g77
g58
NtRp2743
(dp2744
g61
(dp2745
g88
g89
ssg70
g2734
sg63
(lp2746
S':'
asbag56
(g77
g58
NtRp2747
(dp2748
g61
(dp2749
sg70
g2734
sg63
(lp2750
g56
(g57
g58
NtRp2751
(dp2752
g61
(dp2753
g69
I3
ssg70
g2747
sg63
(lp2754
g1581
asbasbasbag56
(g72
g58
NtRp2755
(dp2756
g61
(dp2757
sg70
g2184
sg63
(lp2758
g56
(g77
g58
NtRp2759
(dp2760
g61
(dp2761
g81
g82
ssg70
g2755
sg63
(lp2762
S'SSL_TLS_SNI'
p2763
asbag56
(g77
g58
NtRp2764
(dp2765
g61
(dp2766
g88
g89
ssg70
g2755
sg63
(lp2767
S':'
asbag56
(g77
g58
NtRp2768
(dp2769
g61
(dp2770
sg70
g2755
sg63
(lp2771
g56
(g57
g58
NtRp2772
(dp2773
g61
(dp2774
g69
I3
ssg70
g2768
sg63
(lp2775
g1603
asbasbasbag56
(g72
g58
NtRp2776
(dp2777
g61
(dp2778
sg70
g2184
sg63
(lp2779
g56
(g77
g58
NtRp2780
(dp2781
g61
(dp2782
g81
g82
ssg70
g2776
sg63
(lp2783
S'mod_wsgi.application_group'
p2784
asbag56
(g77
g58
NtRp2785
(dp2786
g61
(dp2787
g88
g89
ssg70
g2776
sg63
(lp2788
S':'
asbag56
(g77
g58
NtRp2789
(dp2790
g61
(dp2791
sg70
g2776
sg63
(lp2792
g56
(g57
g58
NtRp2793
(dp2794
g61
(dp2795
g69
I3
ssg70
g2789
sg63
(lp2796
g1010
asbasbasbag56
(g72
g58
NtRp2797
(dp2798
g61
(dp2799
sg70
g2184
sg63
(lp2800
g56
(g77
g58
NtRp2801
(dp2802
g61
(dp2803
g81
g82
ssg70
g2797
sg63
(lp2804
S'mod_wsgi.callable_object'
p2805
asbag56
(g77
g58
NtRp2806
(dp2807
g61
(dp2808
g88
g89
ssg70
g2797
sg63
(lp2809
S':'
asbag56
(g77
g58
NtRp2810
(dp2811
g61
(dp2812
sg70
g2797
sg63
(lp2813
g56
(g57
g58
NtRp2814
(dp2815
g61
(dp2816
g69
I3
ssg70
g2810
sg63
(lp2817
g1032
asbasbasbag56
(g72
g58
NtRp2818
(dp2819
g61
(dp2820
sg70
g2184
sg63
(lp2821
g56
(g77
g58
NtRp2822
(dp2823
g61
(dp2824
g81
g82
ssg70
g2818
sg63
(lp2825
S'mod_wsgi.handler_script'
p2826
asbag56
(g77
g58
NtRp2827
(dp2828
g61
(dp2829
g88
g89
ssg70
g2818
sg63
(lp2830
S':'
asbag56
(g77
g58
NtRp2831
(dp2832
g61
(dp2833
sg70
g2818
sg63
(lp2834
g56
(g57
g58
NtRp2835
(dp2836
g61
(dp2837
g69
I3
ssg70
g2831
sg63
(lp2838
S''
asbasbasbag56
(g72
g58
NtRp2839
(dp2840
g61
(dp2841
sg70
g2184
sg63
(lp2842
g56
(g77
g58
NtRp2843
(dp2844
g61
(dp2845
g81
g82
ssg70
g2839
sg63
(lp2846
S'mod_wsgi.input_chunked'
p2847
asbag56
(g77
g58
NtRp2848
(dp2849
g61
(dp2850
g88
g89
ssg70
g2839
sg63
(lp2851
S':'
asbag56
(g77
g58
NtRp2852
(dp2853
g61
(dp2854
sg70
g2839
sg63
(lp2855
g56
(g57
g58
NtRp2856
(dp2857
g61
(dp2858
g69
I3
ssg70
g2852
sg63
(lp2859
S'0'
asbasbasbag56
(g72
g58
NtRp2860
(dp2861
g61
(dp2862
sg70
g2184
sg63
(lp2863
g56
(g77
g58
NtRp2864
(dp2865
g61
(dp2866
g81
g82
ssg70
g2860
sg63
(lp2867
S'mod_wsgi.listener_host'
p2868
asbag56
(g77
g58
NtRp2869
(dp2870
g61
(dp2871
g88
g89
ssg70
g2860
sg63
(lp2872
S':'
asbag56
(g77
g58
NtRp2873
(dp2874
g61
(dp2875
sg70
g2860
sg63
(lp2876
g56
(g57
g58
NtRp2877
(dp2878
g61
(dp2879
g69
I3
ssg70
g2873
sg63
(lp2880
S''
asbasbasbag56
(g72
g58
NtRp2881
(dp2882
g61
(dp2883
sg70
g2184
sg63
(lp2884
g56
(g77
g58
NtRp2885
(dp2886
g61
(dp2887
g81
g82
ssg70
g2881
sg63
(lp2888
S'mod_wsgi.listener_port'
p2889
asbag56
(g77
g58
NtRp2890
(dp2891
g61
(dp2892
g88
g89
ssg70
g2881
sg63
(lp2893
S':'
asbag56
(g77
g58
NtRp2894
(dp2895
g61
(dp2896
sg70
g2881
sg63
(lp2897
g56
(g57
g58
NtRp2898
(dp2899
g61
(dp2900
g69
I3
ssg70
g2894
sg63
(lp2901
g1117
asbasbasbag56
(g72
g58
NtRp2902
(dp2903
g61
(dp2904
sg70
g2184
sg63
(lp2905
g56
(g77
g58
NtRp2906
(dp2907
g61
(dp2908
g81
g82
ssg70
g2902
sg63
(lp2909
S'mod_wsgi.process_group'
p2910
asbag56
(g77
g58
NtRp2911
(dp2912
g61
(dp2913
g88
g89
ssg70
g2902
sg63
(lp2914
S':'
asbag56
(g77
g58
NtRp2915
(dp2916
g61
(dp2917
sg70
g2902
sg63
(lp2918
g56
(g57
g58
NtRp2919
(dp2920
g61
(dp2921
g69
I3
ssg70
g2915
sg63
(lp2922
g1139
asbasbasbag56
(g72
g58
NtRp2923
(dp2924
g61
(dp2925
sg70
g2184
sg63
(lp2926
g56
(g77
g58
NtRp2927
(dp2928
g61
(dp2929
g81
g82
ssg70
g2923
sg63
(lp2930
S'mod_wsgi.request_handler'
p2931
asbag56
(g77
g58
NtRp2932
(dp2933
g61
(dp2934
g88
g89
ssg70
g2923
sg63
(lp2935
S':'
asbag56
(g77
g58
NtRp2936
(dp2937
g61
(dp2938
sg70
g2923
sg63
(lp2939
g56
(g57
g58
NtRp2940
(dp2941
g61
(dp2942
g69
I3
ssg70
g2936
sg63
(lp2943
g1161
asbasbasbag56
(g72
g58
NtRp2944
(dp2945
g61
(dp2946
sg70
g2184
sg63
(lp2947
g56
(g77
g58
NtRp2948
(dp2949
g61
(dp2950
g81
g82
ssg70
g2944
sg63
(lp2951
S'mod_wsgi.script_reloading'
p2952
asbag56
(g77
g58
NtRp2953
(dp2954
g61
(dp2955
g88
g89
ssg70
g2944
sg63
(lp2956
S':'
asbag56
(g77
g58
NtRp2957
(dp2958
g61
(dp2959
sg70
g2944
sg63
(lp2960
g56
(g57
g58
NtRp2961
(dp2962
g61
(dp2963
g69
I3
ssg70
g2957
sg63
(lp2964
S'1'
asbasbasbag56
(g72
g58
NtRp2965
(dp2966
g61
(dp2967
sg70
g2184
sg63
(lp2968
g56
(g77
g58
NtRp2969
(dp2970
g61
(dp2971
g81
g82
ssg70
g2965
sg63
(lp2972
S'mod_wsgi.version'
p2973
asbag56
(g77
g58
NtRp2974
(dp2975
g61
(dp2976
g88
g89
ssg70
g2965
sg63
(lp2977
S':'
asbag56
(g77
g58
NtRp2978
(dp2979
g61
(dp2980
sg70
g2965
sg63
(lp2981
g56
(g57
g58
NtRp2982
(dp2983
g61
(dp2984
g69
I3
ssg70
g2978
sg63
(lp2985
g56
(g65
g58
NtRp2986
(dp2987
g61
(dp2988
g69
I2
ssg70
Nsg63
(lp2989
g56
(g72
g58
NtRp2990
(dp2991
g61
(dp2992
sg70
g2986
sg63
(lp2993
g56
(g77
g58
NtRp2994
(dp2995
g61
(dp2996
sg70
g2990
sg63
(lp2997
g56
(g57
g58
NtRp2998
(dp2999
g61
(dp3000
g69
I2
ssg70
g2994
sg63
(lp3001
S'3'
asbasbasbag56
(g72
g58
NtRp3002
(dp3003
g61
(dp3004
sg70
g2986
sg63
(lp3005
g56
(g77
g58
NtRp3006
(dp3007
g61
(dp3008
sg70
g3002
sg63
(lp3009
g56
(g57
g58
NtRp3010
(dp3011
g61
(dp3012
g69
I2
ssg70
g3006
sg63
(lp3013
S'2'
asbasbasbasbasbasbasbag56
(g72
g58
NtRp3014
(dp3015
g61
(dp3016
sg70
g2184
sg63
(lp3017
g56
(g77
g58
NtRp3018
(dp3019
g61
(dp3020
g81
g82
ssg70
g3014
sg63
(lp3021
S'wsgi.errors'
p3022
asbag56
(g77
g58
NtRp3023
(dp3024
g61
(dp3025
g88
g89
ssg70
g3014
sg63
(lp3026
S':'
asbag56
(g77
g58
NtRp3027
(dp3028
g61
(dp3029
sg70
g3014
sg63
(lp3030
g56
(g57
g58
NtRp3031
(dp3032
g61
(dp3033
g69
I3
ssg70
g3027
sg63
(lp3034
S'<mod_wsgi.Log object at 0x2b9bdbdb42f0>'
p3035
asbasbasbag56
(g72
g58
NtRp3036
(dp3037
g61
(dp3038
sg70
g2184
sg63
(lp3039
g56
(g77
g58
NtRp3040
(dp3041
g61
(dp3042
g81
g82
ssg70
g3036
sg63
(lp3043
S'wsgi.file_wrapper'
p3044
asbag56
(g77
g58
NtRp3045
(dp3046
g61
(dp3047
g88
g89
ssg70
g3036
sg63
(lp3048
S':'
asbag56
(g77
g58
NtRp3049
(dp3050
g61
(dp3051
sg70
g3036
sg63
(lp3052
g56
(g57
g58
NtRp3053
(dp3054
g61
(dp3055
g69
I3
ssg70
g3049
sg63
(lp3056
S'<built-in method file_wrapper of mod_wsgi.Adapter object at 0x2b9be00710a8>'
p3057
asbasbasbag56
(g72
g58
NtRp3058
(dp3059
g61
(dp3060
sg70
g2184
sg63
(lp3061
g56
(g77
g58
NtRp3062
(dp3063
g61
(dp3064
g81
g82
ssg70
g3058
sg63
(lp3065
S'wsgi.input'
p3066
asbag56
(g77
g58
NtRp3067
(dp3068
g61
(dp3069
g88
g89
ssg70
g3058
sg63
(lp3070
S':'
asbag56
(g77
g58
NtRp3071
(dp3072
g61
(dp3073
sg70
g3058
sg63
(lp3074
g56
(g57
g58
NtRp3075
(dp3076
g61
(dp3077
g69
I3
ssg70
g3071
sg63
(lp3078
S'<cStringIO.StringO object at 0x2b9bdb749378>'
p3079
asbasbasbag56
(g72
g58
NtRp3080
(dp3081
g61
(dp3082
sg70
g2184
sg63
(lp3083
g56
(g77
g58
NtRp3084
(dp3085
g61
(dp3086
g81
g82
ssg70
g3080
sg63
(lp3087
S'wsgi.multiprocess'
p3088
asbag56
(g77
g58
NtRp3089
(dp3090
g61
(dp3091
g88
g89
ssg70
g3080
sg63
(lp3092
S':'
asbag56
(g77
g58
NtRp3093
(dp3094
g61
(dp3095
sg70
g3080
sg63
(lp3096
g56
(g57
g58
NtRp3097
(dp3098
g61
(dp3099
g69
I3
ssg70
g3093
sg63
(lp3100
g99
asbasbasbag56
(g72
g58
NtRp3101
(dp3102
g61
(dp3103
sg70
g2184
sg63
(lp3104
g56
(g77
g58
NtRp3105
(dp3106
g61
(dp3107
g81
g82
ssg70
g3101
sg63
(lp3108
S'wsgi.multithread'
p3109
asbag56
(g77
g58
NtRp3110
(dp3111
g61
(dp3112
g88
g89
ssg70
g3101
sg63
(lp3113
S':'
asbag56
(g77
g58
NtRp3114
(dp3115
g61
(dp3116
sg70
g3101
sg63
(lp3117
g56
(g57
g58
NtRp3118
(dp3119
g61
(dp3120
g69
I3
ssg70
g3114
sg63
(lp3121
g1755
asbasbasbag56
(g72
g58
NtRp3122
(dp3123
g61
(dp3124
sg70
g2184
sg63
(lp3125
g56
(g77
g58
NtRp3126
(dp3127
g61
(dp3128
g81
g82
ssg70
g3122
sg63
(lp3129
S'wsgi.run_once'
p3130
asbag56
(g77
g58
NtRp3131
(dp3132
g61
(dp3133
g88
g89
ssg70
g3122
sg63
(lp3134
S':'
asbag56
(g77
g58
NtRp3135
(dp3136
g61
(dp3137
sg70
g3122
sg63
(lp3138
g56
(g57
g58
NtRp3139
(dp3140
g61
(dp3141
g69
I3
ssg70
g3135
sg63
(lp3142
g99
asbasbasbag56
(g72
g58
NtRp3143
(dp3144
g61
(dp3145
sg70
g2184
sg63
(lp3146
g56
(g77
g58
NtRp3147
(dp3148
g61
(dp3149
g81
g82
ssg70
g3143
sg63
(lp3150
S'wsgi.url_scheme'
p3151
asbag56
(g77
g58
NtRp3152
(dp3153
g61
(dp3154
g88
g89
ssg70
g3143
sg63
(lp3155
S':'
asbag56
(g77
g58
NtRp3156
(dp3157
g61
(dp3158
sg70
g3143
sg63
(lp3159
g56
(g57
g58
NtRp3160
(dp3161
g61
(dp3162
g69
I3
ssg70
g3156
sg63
(lp3163
g1798
asbasbasbag56
(g72
g58
NtRp3164
(dp3165
g61
(dp3166
sg70
g2184
sg63
(lp3167
g56
(g77
g58
NtRp3168
(dp3169
g61
(dp3170
g81
g82
ssg70
g3164
sg63
(lp3171
S'wsgi.version'
p3172
asbag56
(g77
g58
NtRp3173
(dp3174
g61
(dp3175
g88
g89
ssg70
g3164
sg63
(lp3176
S':'
asbag56
(g77
g58
NtRp3177
(dp3178
g61
(dp3179
sg70
g3164
sg63
(lp3180
g56
(g57
g58
NtRp3181
(dp3182
g61
(dp3183
g69
I3
ssg70
g3177
sg63
(lp3184
S'1'
asbasbasbasbasbasbasbasbasbasbasbasbasbsS'frames'
p3185
(lp3186
(dp3187
S'file'
p3188
S'/home/www-data/web2py/gluon/restricted.py'
p3189
sS'dump'
p3190
(dp3191
S'environment'
p3192
S"{'A': <class 'gluon.html.A'>, 'Auth': <class 'gluon.tools.Auth'>, 'B': <class 'gluon.html.B'>, 'BEAUTIFY': <class 'gluon.html.BEAUTIFY'>, 'BODY': <class 'gluon.html.BODY'>, 'BR': <class 'gluon.html.BR'>, 'CENTER': <class 'gluon.html.CENTER'>, 'CLEANUP': <class 'gluon.validators.CLEANUP'>, 'CODE': <class 'gluon.html.CODE'>, 'CRYPT': <class 'gluon.validators.CRYPT'>, ...}"
p3193
sS'ccode'
p3194
S'<code object <module> at 0x2b9bdbdddc60, file "/...y/applications/rdcdss/views/generic.pdf", line 1>'
p3195
ssS'lnum'
p3196
I181
sS'lines'
p3197
(dp3198
I176
S'    try:'
p3199
sI177
S'        if type(code) == types.CodeType:'
p3200
sI178
S'            ccode = code'
p3201
sI179
S'        else:'
p3202
sI180
S'            ccode = compile2(code,layer)'
p3203
sI181
S'        exec ccode in environment'
p3204
sI182
S'    except HTTP:'
p3205
sI183
S'        raise'
p3206
sI184
S'    except Exception:'
p3207
sI185
S'        # XXX Show exception in Wing IDE if running in debugger'
p3208
ssS'call'
p3209
S'(code="import re\\nfrom gluon.contrib.markmin.markmin2pdf...df\'\\n    response.write(pdf,escape=False)\\n    pass", environment={\'A\': <class \'gluon.html.A\'>, \'Auth\': <class \'gluon.tools.Auth\'>, \'B\': <class \'gluon.html.B\'>, \'BEAUTIFY\': <class \'gluon.html.BEAUTIFY\'>, \'BODY\': <class \'gluon.html.BODY\'>, \'BR\': <class \'gluon.html.BR\'>, \'CENTER\': <class \'gluon.html.CENTER\'>, \'CLEANUP\': <class \'gluon.validators.CLEANUP\'>, \'CODE\': <class \'gluon.html.CODE\'>, \'CRYPT\': <class \'gluon.validators.CRYPT\'>, ...}, layer=\'/home/www-data/web2py/applications/rdcdss/views/generic.pdf\')'
p3210
sS'func'
p3211
S'restricted'
p3212
sa(dp3213
g3188
S'/home/www-data/web2py/applications/rdcdss/views/generic.pdf'
p3214
sg3190
(dp3215
S'request.controller'
p3216
S"'default'"
p3217
sS'response.render'
p3218
S"<bound method Response.render of <Storage {'body...bda> at 0x2b9bd97bb230>, 'view': 'generic.pdf'}>>"
p3219
sS'request'
p3220
S"<Storage {'function': 'index', 'body': <cStringI....14-23-31.c8e1b078-0355-4446-bca8-2f20ce3a7229'}>"
p3221
sS'html'
p3222
S'\'\\n<!DOCTYPE html>\\n<html lang="en" class="no-js"><...      </script>\\n       -->    \\n  </body>\\n</html>\\n\''
p3223
sS'request.function'
p3224
S"'index'"
p3225
sS'response'
p3226
S"<Storage {'body': <cStringIO.StringO object at 0...mbda> at 0x2b9bd97bb230>, 'view': 'generic.pdf'}>"
p3227
ssg3196
I21
sg3197
(dp3228
I16
S"    if tag in ['b','strong','label']: return '**%s**' % text"
p3229
sI17
S'    if tag in [\'em\',\'i\']: return "\'\'%s\'\'" % text'
p3230
sI18
S"    if tag in ['tt','code']: return '``%s``' % text"
p3231
sI19
S"    if tag=='a': return '[[%s %s]]' % (text,attr.get('_href',''))"
p3232
sI20
S'    return text'
p3233
sI21
S"html=response.render('%s/%s.html' % (request.controller,request.function))"
p3234
sI22
S"markmin=TAG(html).element('#content').flatten(markmin_serializer)"
p3235
sI23
S'pdf,warnings,errors=markmin2pdf(markmin)'
p3236
sI24
S'if errors:'
p3237
sI25
S"   response.headers['Content-Type']='text'"
p3238
ssg3209
S'()'
p3239
sg3211
S'<module>'
p3240
sa(dp3241
g3188
S'/home/www-data/web2py/gluon/html.py'
p3242
sg3190
(dp3243
S'decoder.decoder'
p3244
S'<function decoder>'
p3245
sS'global decoder'
p3246
S"<module 'gluon.decoder' from '/home/www-data/web2py/gluon/decoder.pyc'>"
p3247
sS'global web2pyHTMLParser'
p3248
S'<class gluon.html.web2pyHTMLParser>'
p3249
sS'html'
p3250
S'\'\\n<!DOCTYPE html>\\n<html lang="en" class="no-js"><...      </script>\\n       -->    \\n  </body>\\n</html>\\n\''
p3251
sS').tree'
p3252
S'undefined'
p3253
ssg3196
I1014
sg3197
(dp3254
I1009
S'            tag = name'
p3255
sI1010
S''
sI1011
S'        return lambda *a, **b: __tag__(*a, **b)'
p3256
sI1012
S''
sI1013
S'    def __call__(self,html):'
p3257
sI1014
S'        return web2pyHTMLParser(decoder.decoder(html)).tree'
p3258
sI1015
S''
sI1016
S'TAG = __TAG__()'
p3259
sI1017
S''
sI1018
S''
ssg3209
S'(self=<gluon.html.__TAG__ object>, html=\'\\n<!DOCTYPE html>\\n<html lang="en" class="no-js"><...      </script>\\n       -->    \\n  </body>\\n</html>\\n\')'
p3260
sg3211
S'__call__'
p3261
sa(dp3262
g3188
S'/home/www-data/web2py/gluon/html.py'
p3263
sg3190
(dp3264
S'self.feed'
p3265
S'<bound method web2pyHTMLParser.feed of <gluon.html.web2pyHTMLParser instance>>'
p3266
sS'self'
p3267
S'<gluon.html.web2pyHTMLParser instance>'
p3268
sS'text'
p3269
S'\'\\n<!DOCTYPE html>\\n<html lang="en" class="no-js"><...      </script>\\n       -->    \\n  </body>\\n</html>\\n\''
p3270
ssg3196
I1995
sg3197
(dp3271
I1990
S'        HTMLParser.__init__(self)'
p3272
sI1991
S"        self.tree = self.parent = TAG['']()"
p3273
sI1992
S'        self.closed = closed'
p3274
sI1993
S'        self.tags = [x for x in __all__ if isinstance(eval(x),DIV)]'
p3275
sI1994
S'        self.last = None'
p3276
sI1995
S'        self.feed(text)'
p3277
sI1996
S'    def handle_starttag(self, tagname, attrs):'
p3278
sI1997
S'        if tagname.upper() in self.tags:'
p3279
sI1998
S'            tag=eval(tagname.upper())'
p3280
sI1999
S'        else:'
p3281
ssg3209
S'(self=<gluon.html.web2pyHTMLParser instance>, text=\'\\n<!DOCTYPE html>\\n<html lang="en" class="no-js"><...      </script>\\n       -->    \\n  </body>\\n</html>\\n\', closed=(\'input\', \'link\'))'
p3282
sg3211
g49
sa(dp3283
g3188
S'/usr/lib/python2.6/HTMLParser.py'
p3284
sg3190
(dp3285
S'self.goahead'
p3286
S'<bound method web2pyHTMLParser.goahead of <gluon.html.web2pyHTMLParser instance>>'
p3287
sS'self'
p3288
S'<gluon.html.web2pyHTMLParser instance>'
p3289
ssg3196
I108
sg3197
(dp3290
I103
S''
sI104
S'        Call this as often as you want, with as little or as much text'
p3291
sI105
S"        as you want (may include '\\n')."
p3292
sI106
S'        """'
p3293
sI107
S'        self.rawdata = self.rawdata + data'
p3294
sI108
S'        self.goahead(0)'
p3295
sI109
S''
sI110
S'    def close(self):'
p3296
sI111
S'        """Handle any buffered data."""'
p3297
sI112
S'        self.goahead(1)'
p3298
ssg3209
S'(self=<gluon.html.web2pyHTMLParser instance>, data=\'\\n<!DOCTYPE html>\\n<html lang="en" class="no-js"><...      </script>\\n       -->    \\n  </body>\\n</html>\\n\')'
p3299
sg3211
S'feed'
p3300
sa(dp3301
g3188
S'/usr/lib/python2.6/HTMLParser.py'
p3302
sg3190
(dp3303
S'i'
S'13663'
p3304
sS'k'
S'13004'
p3305
sS'self.parse_endtag'
p3306
S'<bound method web2pyHTMLParser.parse_endtag of <gluon.html.web2pyHTMLParser instance>>'
p3307
sS'self'
p3308
S'<gluon.html.web2pyHTMLParser instance>'
p3309
ssg3196
I150
sg3197
(dp3310
I145
S'            startswith = rawdata.startswith'
p3311
sI146
S"            if startswith('<', i):"
p3312
sI147
S'                if starttagopen.match(rawdata, i): # < + letter'
p3313
sI148
S'                    k = self.parse_starttag(i)'
p3314
sI149
S'                elif startswith("</", i):'
p3315
sI150
S'                    k = self.parse_endtag(i)'
p3316
sI151
S'                elif startswith("<!--", i):'
p3317
sI152
S'                    k = self.parse_comment(i)'
p3318
sI153
S'                elif startswith("<?", i):'
p3319
sI154
S'                    k = self.parse_pi(i)'
p3320
ssg3209
S'(self=<gluon.html.web2pyHTMLParser instance>, end=0)'
p3321
sg3211
S'goahead'
p3322
sa(dp3323
g3188
S'/usr/lib/python2.6/HTMLParser.py'
p3324
sg3190
(dp3325
S'self'
p3326
S'<gluon.html.web2pyHTMLParser instance>'
p3327
sS'tag'
p3328
S"'form'"
p3329
sS'tag.lower'
p3330
S'<built-in method lower of str object>'
p3331
sS'self.handle_endtag'
p3332
S'<bound method web2pyHTMLParser.handle_endtag of <gluon.html.web2pyHTMLParser instance>>'
p3333
ssg3196
I319
sg3197
(dp3334
I320
S'        self.clear_cdata_mode()'
p3335
sI321
S'        return j'
p3336
sI322
S''
sI323
S'    # Overridable -- finish processing of start+end tag: <tag.../>'
p3337
sI314
S'        j = match.end()'
p3338
sI315
S'        match = endtagfind.match(rawdata, i) # </ + tag + >'
p3339
sI316
S'        if not match:'
p3340
sI317
S'            self.error("bad end tag: %r" % (rawdata[i:j],))'
p3341
sI318
S'        tag = match.group(1)'
p3342
sI319
S'        self.handle_endtag(tag.lower())'
p3343
ssg3209
S'(self=<gluon.html.web2pyHTMLParser instance>, i=13663)'
p3344
sg3211
S'parse_endtag'
p3345
sa(dp3346
g3188
S'/home/www-data/web2py/gluon/html.py'
p3347
sg3190
(dp3348
S'builtinRuntimeError'
p3349
S"<type 'exceptions.RuntimeError'>"
p3350
sS'tagname'
p3351
S"'form'"
p3352
ssg3196
I2030
sg3197
(dp3353
I2025
S'        while True:'
p3354
sI2026
S'            try:'
p3355
sI2027
S'                parent_tagname=self.parent.tag'
p3356
sI2028
S'                self.parent = self.parent.parent'
p3357
sI2029
S'            except:'
p3358
sI2030
S'                raise RuntimeError, "unable to balance tag %s" % tagname'
p3359
sI2031
S'            if parent_tagname[:len(tagname)]==tagname: break'
p3360
sI2032
S''
sI2033
S'def markdown_serializer(text,tag=None,attr={}):'
p3361
sI2034
S"    if tag is None: return re.sub('\\s+',' ',text)"
p3362
ssg3209
S"(self=<gluon.html.web2pyHTMLParser instance>, tagname='form')"
p3363
sg3211
S'handle_endtag'
p3364
sasS'pyver'
p3365
S'Python 2.6.6: /usr/bin/python'
p3366
sS'session'
p3367
g56
(g57
g58
NtRp3368
(dp3369
g61
(dp3370
sg63
(lp3371
g56
(g65
g58
NtRp3372
(dp3373
g61
(dp3374
g69
I5
ssg70
Nsg63
(lp3375
g56
(g72
g58
NtRp3376
(dp3377
g61
(dp3378
sg70
g3372
sg63
(lp3379
g56
(g77
g58
NtRp3380
(dp3381
g61
(dp3382
g81
g82
ssg70
g3376
sg63
(lp3383
S'data'
p3384
asbag56
(g77
g58
NtRp3385
(dp3386
g61
(dp3387
g88
g89
ssg70
g3376
sg63
(lp3388
S':'
asbag56
(g77
g58
NtRp3389
(dp3390
g61
(dp3391
sg70
g3376
sg63
(lp3392
g56
(g57
g58
NtRp3393
(dp3394
g61
(dp3395
g69
I5
ssg70
g3389
sg63
(lp3396
g56
(g65
g58
NtRp3397
(dp3398
g61
(dp3399
g69
I4
ssg70
Nsg63
(lp3400
g56
(g72
g58
NtRp3401
(dp3402
g61
(dp3403
sg70
g3397
sg63
(lp3404
g56
(g77
g58
NtRp3405
(dp3406
g61
(dp3407
sg70
g3401
sg63
(lp3408
g56
(g57
g58
NtRp3409
(dp3410
g61
(dp3411
g69
I4
ssg70
g3405
sg63
(lp3412
g56
(g65
g58
NtRp3413
(dp3414
g61
(dp3415
g69
I3
ssg70
Nsg63
(lp3416
g56
(g72
g58
NtRp3417
(dp3418
g61
(dp3419
sg70
g3413
sg63
(lp3420
g56
(g77
g58
NtRp3421
(dp3422
g61
(dp3423
sg70
g3417
sg63
(lp3424
g56
(g57
g58
NtRp3425
(dp3426
g61
(dp3427
g69
I3
ssg70
g3421
sg63
(lp3428
S'Sickle Cell Anemia'
p3429
asbasbasbag56
(g72
g58
NtRp3430
(dp3431
g61
(dp3432
sg70
g3413
sg63
(lp3433
g56
(g77
g58
NtRp3434
(dp3435
g61
(dp3436
sg70
g3430
sg63
(lp3437
g56
(g57
g58
NtRp3438
(dp3439
g61
(dp3440
g69
I3
ssg70
g3434
sg63
(lp3441
S'http://www.madisonsfoundation.org/index.php/component/option,com_mpower/Itemid,49/diseaseID,89/index.html'
p3442
asbasbasbag56
(g72
g58
NtRp3443
(dp3444
g61
(dp3445
sg70
g3413
sg63
(lp3446
g56
(g77
g58
NtRp3447
(dp3448
g61
(dp3449
sg70
g3443
sg63
(lp3450
g56
(g57
g58
NtRp3451
(dp3452
g61
(dp3453
g69
I3
ssg70
g3447
sg63
(lp3454
S'Sickle Cell Anemia Sickle Cell Disease Wednesday, 02 July 2003 Last Updated Wednesday, 04 February 2004 What Sickle cell anemia is an inherited blood disorder in which the oxygen-carrying substance of red blood cells (called hemoglobin) is different from the common form. In normal red blood cells oxygen is carried by hemoglobin A, and these cells are smooth and doughnut-shaped. In those with sickle cell anemia oxygen is carried by hemoglobin S and these cells become stiff, sticky, and sickle-shaped once they deliver oxygen to the tissues of the body. Because of their odd shape the sickled-cells often clump together and get stuck in the blood vessels, or break apart. Since red blood cells are important for delivering oxygen throughout the body, many organs can become starved for oxygen, which may cause episodes of pain, damage and under-development of many organs. Also, since the red blood cells break apart, a low red blood cell count (anemia) usually results. Who Sickle cell anemia affects millions of people throughout the world, including those whose ancestors are from sub-Saharan Africa, Latin American countries such as Cuba, South America and Central America, Saudi Arabia, India, and Mediterranean countries such as Italy and Greece. In the United States it affects about 72,000 people, mostly African American (1 in 500) and Hispanic Americans (1 in 1000 to 1400). Signs and Symptoms : The symptoms of sickle cell anemia vary from person to person and can range from mild to severe. The common problem among all people with sickle cell anemia is the rigid, sickle-shaped red blood cells that clog the blood vessels and prevent the delivery of oxygen to tissues of the body. The most common symptom therefore is pain. Other symptoms may include: jaundice (yellowing of the eyes and skin): due to the build up of Heme (found inside of red blood cells) in the blood from the breaking apart of red blood cells. Hand-Foot syndrome: pain and swelling in the hands and feet due to blo...'
p3455
asbasbasbasbasbasbasbag56
(g72
g58
NtRp3456
(dp3457
g61
(dp3458
sg70
g3397
sg63
(lp3459
g56
(g77
g58
NtRp3460
(dp3461
g61
(dp3462
sg70
g3456
sg63
(lp3463
g56
(g57
g58
NtRp3464
(dp3465
g61
(dp3466
g69
I4
ssg70
g3460
sg63
(lp3467
g56
(g65
g58
NtRp3468
(dp3469
g61
(dp3470
g69
I3
ssg70
Nsg63
(lp3471
g56
(g72
g58
NtRp3472
(dp3473
g61
(dp3474
sg70
g3468
sg63
(lp3475
g56
(g77
g58
NtRp3476
(dp3477
g61
(dp3478
sg70
g3472
sg63
(lp3479
g56
(g57
g58
NtRp3480
(dp3481
g61
(dp3482
g69
I3
ssg70
g3476
sg63
(lp3483
S'Megaloblastic Anemia'
p3484
asbasbasbag56
(g72
g58
NtRp3485
(dp3486
g61
(dp3487
sg70
g3468
sg63
(lp3488
g56
(g77
g58
NtRp3489
(dp3490
g61
(dp3491
sg70
g3485
sg63
(lp3492
g56
(g57
g58
NtRp3493
(dp3494
g61
(dp3495
g69
I3
ssg70
g3489
sg63
(lp3496
S'http://www.madisonsfoundation.org/index.php/component/option,com_mpower/Itemid,49/diseaseID,296/index.html'
p3497
asbasbasbag56
(g72
g58
NtRp3498
(dp3499
g61
(dp3500
sg70
g3468
sg63
(lp3501
g56
(g77
g58
NtRp3502
(dp3503
g61
(dp3504
sg70
g3498
sg63
(lp3505
g56
(g57
g58
NtRp3506
(dp3507
g61
(dp3508
g69
I3
ssg70
g3502
sg63
(lp3509
S'Megaloblastic Anemia Sunday, 31 August 2003 Last Updated Monday, 12 January 2004 What The general definition of anemia is a blood disorder in which the number of red blood cells (RBC) or the amount of hemoglobin, a protein in red blood cells that carries oxygen throughout the body, is below normal. Megaloblastic Anemia is a general term describing anemias characterized by the presence of large, structurally and visually abnormal, immature red blood cells (megaloblasts). Deficiency or defective absorption of folate or vitamin B12 (cobalamin) may cause this type of anemia in 95% of the cases of megaloblastic anemia. However, there are other rare causes of this disease in the remaining 5% of affected individuals, such as Diamond-Blackfan, congenital dyserythropoetic anemias, and other inherited defects. White blood cells (leukocytes) and platelets (the blood cell which helps to stop bleeding) may also be present in low numbers. Who Vitamin B12 deficiency: B12 is not produced in the body so it must be provided in the diet. Therefore, if a person does not have enough oral intake of B12 in foods, he/she will become deficient in this vitamin and can develop megaloblastic anemia. Vitamin B12 is not found in plants and therefore strict vegetarians (vegans) who eat no dairy/ animal products are at risk for developing B12 deficiency. Breast feeding infants of vegan mothers are also at risk for developing megaloblastic anemia because of low levels of vitamin B12 in the breast milk. Folate deficiency: Folate is found in many foods but the foods with the highest folate levels are orange juice, spinach and liver. Overcooking vegetables can result in the loss of folate from those foods. Cereals and breads can have high folate levels. Human milk contains sufficient folate to prevent an infant from developing folate deficiency. It is important to remember that goats milk is one food that contains very little folate or B12, so if an infant or child is given only this type of milk, he/...'
p3510
asbasbasbasbasbasbasbag56
(g72
g58
NtRp3511
(dp3512
g61
(dp3513
sg70
g3397
sg63
(lp3514
g56
(g77
g58
NtRp3515
(dp3516
g61
(dp3517
sg70
g3511
sg63
(lp3518
g56
(g57
g58
NtRp3519
(dp3520
g61
(dp3521
g69
I4
ssg70
g3515
sg63
(lp3522
g56
(g65
g58
NtRp3523
(dp3524
g61
(dp3525
g69
I3
ssg70
Nsg63
(lp3526
g56
(g72
g58
NtRp3527
(dp3528
g61
(dp3529
sg70
g3523
sg63
(lp3530
g56
(g77
g58
NtRp3531
(dp3532
g61
(dp3533
sg70
g3527
sg63
(lp3534
g56
(g57
g58
NtRp3535
(dp3536
g61
(dp3537
g69
I3
ssg70
g3531
sg63
(lp3538
S'Aplastic Anemia'
p3539
asbasbasbag56
(g72
g58
NtRp3540
(dp3541
g61
(dp3542
sg70
g3523
sg63
(lp3543
g56
(g77
g58
NtRp3544
(dp3545
g61
(dp3546
sg70
g3540
sg63
(lp3547
g56
(g57
g58
NtRp3548
(dp3549
g61
(dp3550
g69
I3
ssg70
g3544
sg63
(lp3551
S'http://rarediseases.about.com/od/rarediseasesa/a/aplasticanemia.htm'
p3552
asbasbasbag56
(g72
g58
NtRp3553
(dp3554
g61
(dp3555
sg70
g3523
sg63
(lp3556
g56
(g77
g58
NtRp3557
(dp3558
g61
(dp3559
sg70
g3553
sg63
(lp3560
g56
(g57
g58
NtRp3561
(dp3562
g61
(dp3563
g69
I3
ssg70
g3557
sg63
(lp3564
S'In aplastic anemia (AA), the bone marrow stops making enough red blood cells, white blood cells, and platelets. Aplastic anemia may appear at any age, but is diagnosed more often in children and young adults. The disorder occurs in about 2-6 individuals per million population worldwide. About 20% of individuals develop aplastic anemia as part of an inherited syndrome such as Fanconi anemia, dyskeratosis congenita, or Blackfan Diamond anemia. Most individuals (80%) have acquired aplastic anemia, meaning that it was caused by infections such as hepatitis or Epstein-Barr virus, toxic exposure to radiation and chemicals, or drugs such as chloramphenical or phenylbutazone. Research suggests aplastic anemia may be the result of an autoimmune disorder. Symptoms The symptoms of aplastic anemia come on slowly. The symptoms are related to the low levels of blood cells: Low numbers of red blood cells causes anemia, with symptoms such as headache, dizziness, fatigue, and paleness (pallor) Low numbers of platelets (necessary for blood clotting) causes unusual bleeding from the gums, nose, or bruising under the skin (small spots called petechiae) Low numbers of white blood cells (necessary for fighting infection) causes recurrent infections or lingering illness. Diagnosis The symptoms of aplastic anemia often point the way to diagnosis. The physician will obtain a complete blood cell count (CBC) and the blood will be examined under the microscope (blood smear). The CBC will show the low levels of red cells, white cells, and platelets in the blood. Looking at the cells under the microscope will distinguish aplastic anemia from other blood disorders. In addition to the blood tests, a bone marrow biopsy (sample) will be taken and examined under the microscope. In aplastic anemia it will show few new blood cells being formed. Examining the bone marrow also helps distinguish aplastic anemia from other bone marrow disorders, such as myelodysplastic disorder or leukemia. Staging Classif...'
p3565
asbasbasbasbasbasbasbag56
(g72
g58
NtRp3566
(dp3567
g61
(dp3568
sg70
g3397
sg63
(lp3569
g56
(g77
g58
NtRp3570
(dp3571
g61
(dp3572
sg70
g3566
sg63
(lp3573
g56
(g57
g58
NtRp3574
(dp3575
g61
(dp3576
g69
I4
ssg70
g3570
sg63
(lp3577
g56
(g65
g58
NtRp3578
(dp3579
g61
(dp3580
g69
I3
ssg70
Nsg63
(lp3581
g56
(g72
g58
NtRp3582
(dp3583
g61
(dp3584
sg70
g3578
sg63
(lp3585
g56
(g77
g58
NtRp3586
(dp3587
g61
(dp3588
sg70
g3582
sg63
(lp3589
g56
(g57
g58
NtRp3590
(dp3591
g61
(dp3592
g69
I3
ssg70
g3586
sg63
(lp3593
S'Paroxysmal Nocturnal Hemoglobinuria (PNH)'
p3594
asbasbasbag56
(g72
g58
NtRp3595
(dp3596
g61
(dp3597
sg70
g3578
sg63
(lp3598
g56
(g77
g58
NtRp3599
(dp3600
g61
(dp3601
sg70
g3595
sg63
(lp3602
g56
(g57
g58
NtRp3603
(dp3604
g61
(dp3605
g69
I3
ssg70
g3599
sg63
(lp3606
S'http://www.madisonsfoundation.org/index.php/component/option,com_mpower/Itemid,49/diseaseID,545/index.html'
p3607
asbasbasbag56
(g72
g58
NtRp3608
(dp3609
g61
(dp3610
sg70
g3578
sg63
(lp3611
g56
(g77
g58
NtRp3612
(dp3613
g61
(dp3614
sg70
g3608
sg63
(lp3615
g56
(g57
g58
NtRp3616
(dp3617
g61
(dp3618
g69
I3
ssg70
g3612
sg63
(lp3619
S'Paroxysmal Nocturnal Hemoglobinuria (PNH) Marchiafava-Micheli Syndrome Tuesday, 16 November 2004 Last Updated Tuesday, 16 November 2004 What Paroxysmal nocturnal hemoglobinuria (PNH) is a general term used to describe a rare disorder that can affect many different kinds of blood cells. People with PNH will usually have three major characteristics: destruction of their red blood cells, bone marrow that is unable to make the correct cells (aplastic anemia) and an increased risk of having blood clots in their blood vessels (thrombotic events). Who PNH is a rare disease that can happen to anyone from the age of two to 83, but it tends to occur more in teenagers or young adults. It affects males and females equally and there are no reports of it occurring in families. There is limited evidence to suggest that it may be more common in those people from Southeast Asia or the Far East. The disease is not inherited. Signs and Symptoms There are three major types of symptoms in PHN that are related to the destruction of red blood cells, abnormal clotting in the blood vessels, and the inability of the bone marrow to make the correct cells. 1) Destruction of the red blood cells releases hemoglobin that causes the urine to turn dark (hemoglubinuria). This usually occurs all day long, but is concentrated in the night when someone is sleeping, giving the dark, cola-colored urine when they first urinate in the morning. The hemoglobinuria can either occur daily, in cycles of ten days, or not at all. Because the red blood cells are being destroyed, a person can become anemic and start to look pale or get tired more easily. 2) There are several blood vessels that can get clots in them. In PNH, the clots usually occur in the veins, more specifically in the liver, the abdomen, the skin, or in the brain. The symptoms are usually in relationship to where the clot is. Liver vein clots can cause sudden yellow skin, abdominal pain and a swollen belly. These symptoms are dangerous and you sho...'
p3620
asbasbasbasbasbasbasbag56
(g72
g58
NtRp3621
(dp3622
g61
(dp3623
sg70
g3397
sg63
(lp3624
g56
(g77
g58
NtRp3625
(dp3626
g61
(dp3627
sg70
g3621
sg63
(lp3628
g56
(g57
g58
NtRp3629
(dp3630
g61
(dp3631
g69
I4
ssg70
g3625
sg63
(lp3632
g56
(g65
g58
NtRp3633
(dp3634
g61
(dp3635
g69
I3
ssg70
Nsg63
(lp3636
g56
(g72
g58
NtRp3637
(dp3638
g61
(dp3639
sg70
g3633
sg63
(lp3640
g56
(g77
g58
NtRp3641
(dp3642
g61
(dp3643
sg70
g3637
sg63
(lp3644
g56
(g57
g58
NtRp3645
(dp3646
g61
(dp3647
g69
I3
ssg70
g3641
sg63
(lp3648
S'Blackfan Diamond Anemia'
p3649
asbasbasbag56
(g72
g58
NtRp3650
(dp3651
g61
(dp3652
sg70
g3633
sg63
(lp3653
g56
(g77
g58
NtRp3654
(dp3655
g61
(dp3656
sg70
g3650
sg63
(lp3657
g56
(g57
g58
NtRp3658
(dp3659
g61
(dp3660
g69
I3
ssg70
g3654
sg63
(lp3661
S'http://rarediseases.about.com/cs/blackfandiamond/a/072002.htm'
p3662
asbasbasbag56
(g72
g58
NtRp3663
(dp3664
g61
(dp3665
sg70
g3633
sg63
(lp3666
g56
(g77
g58
NtRp3667
(dp3668
g61
(dp3669
sg70
g3663
sg63
(lp3670
g56
(g57
g58
NtRp3671
(dp3672
g61
(dp3673
g69
I3
ssg70
g3667
sg63
(lp3674
S'In Blackfan Diamond (or Diamond Blackfan) anemia, the body\'s bone marrow produces little or no red blood cells. Blackfan Diamond anemia affects approximately 600 to 700 people worldwide. Its cause is unknown, although a genetic error in a gene called RPS19 on chromosome 19 is associated with about 25% of cases. In about 10% to 20% of cases, there is a family history of the disorder. Symptoms Blackfan Diamond anemia is present at birth but can be difficult to identify. In about one-third of children born with the disorder, there are physical defects such as hand deformities or heart defects, but a clear set of signs hasn\'t been identified. The symptoms may also vary greatly, from very mild to severe and life-threatening. Red blood cells carry oxygen throughout the body, so a child with Blackfan Diamond may have symptoms related to not enough blood oxygen (anemia): pallor (paleness) irregular heartbeat, due to the heart trying to keep oxygen moving throughout the body fatigue, irritability, and fainting. Diagnosis Blackfan Diamond anemia is usually diagnosed within the first two years of life, sometimes even at birth, based on symptoms. For example, a baby might be suspected of having anemia if he or she is always pale and gets short of breath when drinking a bottle or nursing. Parents often suspect there is "something wrong" with their child. The diagnosis of Blackfan Diamond anemia in particular might not be recognized right away, though, because the disorder is rare and not all physicians are familiar with it. A complete blood cell count (CBC) for the baby would show a very low number of red blood cells as well as low hemoglobin. Another blood test would show high adenosine deaminase activity (ADA). A bone marrow sample (biopsy) would show that few new red blood cells were being created. Treatment The first line of treatment for Blackfan Diamond anemia is to give the child steroid medication, usually prednisone. About 70% of children with Blackfan Diamond anemia wi...'
p3675
asbasbasbasbasbasbasbag56
(g72
g58
NtRp3676
(dp3677
g61
(dp3678
sg70
g3397
sg63
(lp3679
g56
(g77
g58
NtRp3680
(dp3681
g61
(dp3682
sg70
g3676
sg63
(lp3683
g56
(g57
g58
NtRp3684
(dp3685
g61
(dp3686
g69
I4
ssg70
g3680
sg63
(lp3687
g56
(g65
g58
NtRp3688
(dp3689
g61
(dp3690
g69
I3
ssg70
Nsg63
(lp3691
g56
(g72
g58
NtRp3692
(dp3693
g61
(dp3694
sg70
g3688
sg63
(lp3695
g56
(g77
g58
NtRp3696
(dp3697
g61
(dp3698
sg70
g3692
sg63
(lp3699
g56
(g57
g58
NtRp3700
(dp3701
g61
(dp3702
g69
I3
ssg70
g3696
sg63
(lp3703
S'Aplastic Anemia'
p3704
asbasbasbag56
(g72
g58
NtRp3705
(dp3706
g61
(dp3707
sg70
g3688
sg63
(lp3708
g56
(g77
g58
NtRp3709
(dp3710
g61
(dp3711
sg70
g3705
sg63
(lp3712
g56
(g57
g58
NtRp3713
(dp3714
g61
(dp3715
g69
I3
ssg70
g3709
sg63
(lp3716
S'http://www.madisonsfoundation.org/index.php/component/option,com_mpower/Itemid,49/diseaseID,549/index.html'
p3717
asbasbasbag56
(g72
g58
NtRp3718
(dp3719
g61
(dp3720
sg70
g3688
sg63
(lp3721
g56
(g77
g58
NtRp3722
(dp3723
g61
(dp3724
sg70
g3718
sg63
(lp3725
g56
(g57
g58
NtRp3726
(dp3727
g61
(dp3728
g69
I3
ssg70
g3722
sg63
(lp3729
S'Aplastic Anemia Tuesday, 16 November 2004 Last Updated Tuesday, 16 November 2004 What Aplastic Anemia (AA) is a rare blood disorder characterized by failure of the bone marrow to produce adequate amounts of red blood cells, white blood cells, and platelets. Decreased amount of red blood cells (RBC) results in anemia and decreased ability of the blood to carry oxygen to the body. A low white blood cell count (WBC) makes the child susceptible to infection. Low levels of platelets cause decreased clot formation and bleeding. AA was first described in 1888. Who AA occurs in less than 10 people per million or approximately 1,000 people per year in United States. AA is more common in Asia, especially in Bangkok, Thailand and Japan. This may be due to increased exposure to toxic chemicals rather than genetic factors. Boys and girls are affected equally. AA can occur in children, but most commonly strikes people during their 20s and 60s. It is not contagious. Signs and Symptoms In contrast to leukemia, symptoms of AA develop gradually. Children develop pale complexion, rapid heart rate, shortness of breath, headache, dizziness, fatigue, possible leg swelling, gum bleeding, easy bruising, blood in the stool and urine, and red rash due to minor bleeding in the skin. In advanced disease, frequent and severe infections occur. Infections are commonly bacterial and fungal, i.e., pneumonia, oral thrush (a yeast infection of the mouth). Bacterial and fungal infections can also occur in the blood and urine of patients with severe AA, therefore, fever in these individuals is taken very seriously. The lymph nodes and liver are not enlarged, in contrast to leukemia. Children with congenital/inherited AA associated with syndromes may have abnormal facial features and skeletal abnormalities. Possible Causes The cause of AA is unknown. In 20% of cases it is thought to be congenital (present at birth) or inherited. It can be associated with syndromes such as Fanconis, Pearson, TAR, Shwachm...'
p3730
asbasbasbasbasbasbasbag56
(g72
g58
NtRp3731
(dp3732
g61
(dp3733
sg70
g3397
sg63
(lp3734
g56
(g77
g58
NtRp3735
(dp3736
g61
(dp3737
sg70
g3731
sg63
(lp3738
g56
(g57
g58
NtRp3739
(dp3740
g61
(dp3741
g69
I4
ssg70
g3735
sg63
(lp3742
g56
(g65
g58
NtRp3743
(dp3744
g61
(dp3745
g69
I3
ssg70
Nsg63
(lp3746
g56
(g72
g58
NtRp3747
(dp3748
g61
(dp3749
sg70
g3743
sg63
(lp3750
g56
(g77
g58
NtRp3751
(dp3752
g61
(dp3753
sg70
g3747
sg63
(lp3754
g56
(g57
g58
NtRp3755
(dp3756
g61
(dp3757
g69
I3
ssg70
g3751
sg63
(lp3758
S'Transient Erythroblastopenia of Childhood (TEC)'
p3759
asbasbasbag56
(g72
g58
NtRp3760
(dp3761
g61
(dp3762
sg70
g3743
sg63
(lp3763
g56
(g77
g58
NtRp3764
(dp3765
g61
(dp3766
sg70
g3760
sg63
(lp3767
g56
(g57
g58
NtRp3768
(dp3769
g61
(dp3770
g69
I3
ssg70
g3764
sg63
(lp3771
S'http://www.madisonsfoundation.org/index.php/component/option,com_mpower/Itemid,49/diseaseID,511/index.html'
p3772
asbasbasbag56
(g72
g58
NtRp3773
(dp3774
g61
(dp3775
sg70
g3743
sg63
(lp3776
g56
(g77
g58
NtRp3777
(dp3778
g61
(dp3779
sg70
g3773
sg63
(lp3780
g56
(g57
g58
NtRp3781
(dp3782
g61
(dp3783
g69
I3
ssg70
g3777
sg63
(lp3784
S'Transient Erythroblastopenia of Childhood (TEC) Monday, 30 August 2004 Last Updated Monday, 30 August 2004 What Transient erythroblastopenia of childhood (TEC) is a rare, acquired form of isolated anemia (low number of red blood cells). It is characterized by a reduction or absence in production of red blood cells by the bone marrow which leads to the gradual progression to a severely anemic state. Who TEC usually occurs in children from 18 to 26 months of age. It has been reported in children as young as six months and as old as ten years. Boys are slightly more affected than girls. Nobody actually knows how common TEC is because children can be affected and show no symptoms. Signs and Symptoms Transient erythroblastopenia of childhood usually develops over the course of several months and children may experience the following:  Pale color  Poor exercise tolerance and easy fatigued  Occasional fainting, difficulty breathing from severe anemia.  No symptoms early in the course.  Rapid heart rate and heart murmur from the turbulent flow of blood across the heart valves. Possible Causes The exact cause of TEC is not known. In many cases, TEC occurs after a viral infection and is thought to be a result of virus-mediated bone marrow suppression. One virus in particular, the human herpes virus 6, has been isolated in children with TEC. Experts are still unsure if the virus itself causes TEC or if the bodys response to the virus causes certain antibodies (proteins that recognize foreign organisms or molecules) to be made. These antibodies are thought to attack the bone marrow and temporarily halt the production of red blood cells. At some point, usually a few months later, the bone marrow starts to make red blood cells again and the anemia resolves. There have been a few reported cases of TEC occurring in the same family, but so far no genetic cause has been confirmed. Diagnosis The diagnosis can usually be made by eliciting the typical history of slow onset and a few blo...'
p3785
asbasbasbasbasbasbasbag56
(g72
g58
NtRp3786
(dp3787
g61
(dp3788
sg70
g3397
sg63
(lp3789
g56
(g77
g58
NtRp3790
(dp3791
g61
(dp3792
sg70
g3786
sg63
(lp3793
g56
(g57
g58
NtRp3794
(dp3795
g61
(dp3796
g69
I4
ssg70
g3790
sg63
(lp3797
g56
(g65
g58
NtRp3798
(dp3799
g61
(dp3800
g69
I3
ssg70
Nsg63
(lp3801
g56
(g72
g58
NtRp3802
(dp3803
g61
(dp3804
sg70
g3798
sg63
(lp3805
g56
(g77
g58
NtRp3806
(dp3807
g61
(dp3808
sg70
g3802
sg63
(lp3809
g56
(g57
g58
NtRp3810
(dp3811
g61
(dp3812
g69
I3
ssg70
g3806
sg63
(lp3813
S'Fanconi Anemia (FA)'
p3814
asbasbasbag56
(g72
g58
NtRp3815
(dp3816
g61
(dp3817
sg70
g3798
sg63
(lp3818
g56
(g77
g58
NtRp3819
(dp3820
g61
(dp3821
sg70
g3815
sg63
(lp3822
g56
(g57
g58
NtRp3823
(dp3824
g61
(dp3825
g69
I3
ssg70
g3819
sg63
(lp3826
S'http://www.madisonsfoundation.org/index.php/component/option,com_mpower/Itemid,49/diseaseID,242/index.html'
p3827
asbasbasbag56
(g72
g58
NtRp3828
(dp3829
g61
(dp3830
sg70
g3798
sg63
(lp3831
g56
(g77
g58
NtRp3832
(dp3833
g61
(dp3834
sg70
g3828
sg63
(lp3835
g56
(g57
g58
NtRp3836
(dp3837
g61
(dp3838
g69
I3
ssg70
g3832
sg63
(lp3839
S'Fanconi Anemia (FA) Sunday, 27 July 2003 Last Updated Monday, 04 December 2006 What Fanconi anemia (FA) is an inherited disorder that leads to progressive bone marrow failure. bone marrow is the part of bone that produces blood cells and cells that function in the immune system. In FA, the bone marrow becomes unable to produce all of these types of cells. Fanconi anemia may also be associated with physical signs including alterations in skin pigment, short stature, and limb length differences. Signs and symptoms can vary with each person. Who Fanconi anemia is a genetic condition which has equal prevalence in both sexes. It affects people of all racial and ethnic backgrounds, with an increased incidence in Ashkenazi Jews and Afrikaners. The median age of diagnosis is 7-8 years, but those having birth defects are diagnosed earlier. Most children begin to show symptoms of bone marrow impairment between 2 and 15 years old but a small number of individuals do not show symptoms until their twenties or thirties. Signs and Symptoms Some children with FA have no observable physical signs at birth while others are born with physical differences that may include: Low birth weight. Small patches of darker skin (caf-au-lait spots). There may also be patches where pigment is absent and the skin looks white. Short stature. Small head or eyes and differing ear shape or position. Learning disabilities or delays or slowness in learning compared to peers. Absent or malformed kidneys. Heart defects. Decreased reproductive organ size in males. Intestinal problems. Limb differences including extra or absent thumbs and lack of or incompletely formed arm bones. Some children also have lower limb differences and spine or rib alterations. While many children are born without most or all of the above physical signs, more than 90% of children with FA start to develop bone marrow failure by their early teens. Symptoms caused by decreased bone marrow function are listed below: Nosebleeds or eas...'
p3840
asbasbasbasbasbasbasbag56
(g72
g58
NtRp3841
(dp3842
g61
(dp3843
sg70
g3397
sg63
(lp3844
g56
(g77
g58
NtRp3845
(dp3846
g61
(dp3847
sg70
g3841
sg63
(lp3848
g56
(g57
g58
NtRp3849
(dp3850
g61
(dp3851
g69
I4
ssg70
g3845
sg63
(lp3852
g56
(g65
g58
NtRp3853
(dp3854
g61
(dp3855
g69
I3
ssg70
Nsg63
(lp3856
g56
(g72
g58
NtRp3857
(dp3858
g61
(dp3859
sg70
g3853
sg63
(lp3860
g56
(g77
g58
NtRp3861
(dp3862
g61
(dp3863
sg70
g3857
sg63
(lp3864
g56
(g57
g58
NtRp3865
(dp3866
g61
(dp3867
g69
I3
ssg70
g3861
sg63
(lp3868
S"Evan's Syndrome"
p3869
asbasbasbag56
(g72
g58
NtRp3870
(dp3871
g61
(dp3872
sg70
g3853
sg63
(lp3873
g56
(g77
g58
NtRp3874
(dp3875
g61
(dp3876
sg70
g3870
sg63
(lp3877
g56
(g57
g58
NtRp3878
(dp3879
g61
(dp3880
g69
I3
ssg70
g3874
sg63
(lp3881
S'http://www.madisonsfoundation.org/index.php/component/option,com_mpower/Itemid,49/diseaseID,81/index.html'
p3882
asbasbasbag56
(g72
g58
NtRp3883
(dp3884
g61
(dp3885
sg70
g3853
sg63
(lp3886
g56
(g77
g58
NtRp3887
(dp3888
g61
(dp3889
sg70
g3883
sg63
(lp3890
g56
(g57
g58
NtRp3891
(dp3892
g61
(dp3893
g69
I3
ssg70
g3887
sg63
(lp3894
S"Evan's Syndrome Wednesday, 02 July 2003 Last Updated Tuesday, 28 October 2003 What Evans Syndrome is a combination of two conditions: autoimmune hemolytic anemia and autoimmune thrombocytopenia purpura. Autoimmune hemolytic anemia is a condition in which there are low levels of iron in the body due to the destruction of the red blood cells that normally carry oxygen. Autoimmune thrombocytopenia is a low level of platelets in the blood due to their destruction in the circulation. platelets are a component of blood that is responsible for creating clots in the body to heal wounds. Who The incidence of Evans syndrome is not precisely known. The syndrome is reported to be a complication affecting 4-10% of those persons with a particular type of thrombocytopenia known as autoimmune thrombocytopenia purpura. The syndrome is more prevalent in children than in adults. Signs and Symptoms The signs and symptoms of Evans syndrome will be a combination of the signs and symptoms of the two underlying conditions. In autoimmune thrombocytopenia purpura the following may be found: Bleeding of skin or mucus lined areas of the body. This may show up as bleeding in the mouth, or purpuric rashes (look almost like bruises), or tiny red dots on the skin called petechiae. Laboratory results will show low levels of platelets In autoimmune hemolytic anemia the following may be found: Fatigue Pale skin color Shortness of breath Rapid heartbeat Dark urine Possible Causes The cause of the signs and symptoms of Evans syndrome are directly related to the low levels of red blood cells (RBC) and platelets in the blood. These low levels are a result of circulating antibodies that bind to the blood cells and destroy them. Antibodies are made under normal conditions against foreign substances in the body and are therefore very useful in warding off infection. In conditions that are referred to as autoimmune the body makes antibodies against itself. In the case of Evans syndrome, it is not currently k..."
p3895
asbasbasbasbasbasbasbag56
(g72
g58
NtRp3896
(dp3897
g61
(dp3898
sg70
g3397
sg63
(lp3899
g56
(g77
g58
NtRp3900
(dp3901
g61
(dp3902
sg70
g3896
sg63
(lp3903
g56
(g57
g58
NtRp3904
(dp3905
g61
(dp3906
g69
I4
ssg70
g3900
sg63
(lp3907
g56
(g65
g58
NtRp3908
(dp3909
g61
(dp3910
g69
I3
ssg70
Nsg63
(lp3911
g56
(g72
g58
NtRp3912
(dp3913
g61
(dp3914
sg70
g3908
sg63
(lp3915
g56
(g77
g58
NtRp3916
(dp3917
g61
(dp3918
sg70
g3912
sg63
(lp3919
g56
(g57
g58
NtRp3920
(dp3921
g61
(dp3922
g69
I3
ssg70
g3916
sg63
(lp3923
S'Hemoglobin C Disease'
p3924
asbasbasbag56
(g72
g58
NtRp3925
(dp3926
g61
(dp3927
sg70
g3908
sg63
(lp3928
g56
(g77
g58
NtRp3929
(dp3930
g61
(dp3931
sg70
g3925
sg63
(lp3932
g56
(g57
g58
NtRp3933
(dp3934
g61
(dp3935
g69
I3
ssg70
g3929
sg63
(lp3936
S'http://www.madisonsfoundation.org/index.php/component/option,com_mpower/Itemid,49/diseaseID,293/index.html'
p3937
asbasbasbag56
(g72
g58
NtRp3938
(dp3939
g61
(dp3940
sg70
g3908
sg63
(lp3941
g56
(g77
g58
NtRp3942
(dp3943
g61
(dp3944
sg70
g3938
sg63
(lp3945
g56
(g57
g58
NtRp3946
(dp3947
g61
(dp3948
g69
I3
ssg70
g3942
sg63
(lp3949
S'Hemoglobin C Disease Hb C Disease, Clinical Hemoglobin C Sunday, 31 August 2003 Last Updated Wednesday, 03 May 2006 What hemoglobin C disease is a blood condition that usually has no symptoms at all but may cause anemia (low number of red blood cells), enlargement of the spleen (splenomegaly), and jaundice (yellowing of the skin or eyes). hemoglobin is a protein in the red blood cell that carries oxygen from the lungs to the body. People with hemoglobin C disease have a type of hemoglobin that differs from the normal type of hemoglobin A. This different type of hemoglobin is called hemoglobin C. Who hemoglobin C disease is an inherited, lifelong condition present from birth and affects both sexes equally. It most commonly affects people of African descent, occurring in about 2 in 10,000 African-Americans. It also occurs less frequently in people of Hispanic, Italian, and Middle Eastern background. Signs and Symptoms The symptoms of hemoglobin C disease are usually not severe or life threatening. Many children never have symptoms or exhibit them only infrequently. However, the condition is chronic, and there may be need for medical attention. During the first year of life, children may develop mild to moderate anemia, or low red blood cell count. This may be present throughout the childs life. A yellowing of the white of the eyes or skin known as jaundice is another hallmark of the condition that may be found early on. As children age, they may develop abdominal pain as well as bone or joint pain. The hemoglobin problem can lead to an enlarged spleen. As an adult, gallstones may develop due to the accumulation of pigment called bilirubin. Less commonly, retinopathy or disease of the light-sensing retina cells in the eye may occur. Possible Causes Red blood cells carry oxygen throughout the body. These cells contain a special protein called hemoglobin that links with oxygen in the lungs and delivers it where it is needed throughout the body. hemoglobin is itself made ...'
p3950
asbasbasbasbasbasbasbag56
(g72
g58
NtRp3951
(dp3952
g61
(dp3953
sg70
g3397
sg63
(lp3954
g56
(g77
g58
NtRp3955
(dp3956
g61
(dp3957
sg70
g3951
sg63
(lp3958
g56
(g57
g58
NtRp3959
(dp3960
g61
(dp3961
g69
I4
ssg70
g3955
sg63
(lp3962
g56
(g65
g58
NtRp3963
(dp3964
g61
(dp3965
g69
I3
ssg70
Nsg63
(lp3966
g56
(g72
g58
NtRp3967
(dp3968
g61
(dp3969
sg70
g3963
sg63
(lp3970
g56
(g77
g58
NtRp3971
(dp3972
g61
(dp3973
sg70
g3967
sg63
(lp3974
g56
(g57
g58
NtRp3975
(dp3976
g61
(dp3977
g69
I3
ssg70
g3971
sg63
(lp3978
S'Autoimmune Lymphoproliferative Syndrome (ALPS)'
p3979
asbasbasbag56
(g72
g58
NtRp3980
(dp3981
g61
(dp3982
sg70
g3963
sg63
(lp3983
g56
(g77
g58
NtRp3984
(dp3985
g61
(dp3986
sg70
g3980
sg63
(lp3987
g56
(g57
g58
NtRp3988
(dp3989
g61
(dp3990
g69
I3
ssg70
g3984
sg63
(lp3991
S'http://www.madisonsfoundation.org/index.php/component/option,com_mpower/Itemid,49/diseaseID,71/index.html'
p3992
asbasbasbag56
(g72
g58
NtRp3993
(dp3994
g61
(dp3995
sg70
g3963
sg63
(lp3996
g56
(g77
g58
NtRp3997
(dp3998
g61
(dp3999
sg70
g3993
sg63
(lp4000
g56
(g57
g58
NtRp4001
(dp4002
g61
(dp4003
g69
I3
ssg70
g3997
sg63
(lp4004
S'Autoimmune Lymphoproliferative Syndrome (ALPS) Canale-Smith Syndrome Wednesday, 25 June 2003 Last Updated Tuesday, 23 November 2004 What Autoimmune Lymphoproliferative Syndrome (ALPS) is a rare disease in which an individuals own immune system cells cause the destruction of platelets, red blood cells, and other cells in the body. First identified in 1990 at the National Institute of Health (NIH), the disease was not named ALPS until 1995. Who ALPS is an inherited genetic disease, meaning that a defective gene has passed from one parent to the child. Occasionally, the gene can be defective in the child alone. Many people with ALPS have a family history of autoimmune problems, but not all do. Any race or ethnicity can be affected. Signs and Symptoms Children who have ALPS are susceptible to autoimmune problems, particularly involving blood cells. As a result, they may get bruising, rashes, nose or gum bleeding, anemia leading to fatigue and pale skin, and an increased susceptibility to infections. These children also often have swollen lymph nodes (glands) in the neck, armpits or groin, and have an enlarged spleen and liver. Occasionally, there can be inflammation in the liver or kidneys as well. Possible Causes ALPS is a disease that usually develops in early childhood but affects both children and adults. It is not contagious, but it may run in a family. ALPS is caused by a broken protein that can no longer do the job your body needs it to do. The broken protein, named Fas, is the one that tells cells when they are normally supposed to die. Since the cells cant be told when to die, they keep on living and accumulating in the lymph nodes, the spleen, and the liver. This accumulation may cause these organs to swell. The malfunctioning immune system cells can also start attacking normal parts of your body. They often attack your red blood cells, leading to anemia, or cells in your kidney and liver. Most people with ALPS have episodes of autoimmune problems that range f...'
p4005
asbasbasbasbasbasbasbag56
(g72
g58
NtRp4006
(dp4007
g61
(dp4008
sg70
g3397
sg63
(lp4009
g56
(g77
g58
NtRp4010
(dp4011
g61
(dp4012
sg70
g4006
sg63
(lp4013
g56
(g57
g58
NtRp4014
(dp4015
g61
(dp4016
g69
I4
ssg70
g4010
sg63
(lp4017
g56
(g65
g58
NtRp4018
(dp4019
g61
(dp4020
g69
I3
ssg70
Nsg63
(lp4021
g56
(g72
g58
NtRp4022
(dp4023
g61
(dp4024
sg70
g4018
sg63
(lp4025
g56
(g77
g58
NtRp4026
(dp4027
g61
(dp4028
sg70
g4022
sg63
(lp4029
g56
(g57
g58
NtRp4030
(dp4031
g61
(dp4032
g69
I3
ssg70
g4026
sg63
(lp4033
S'Acute Lymphoblastic Leukemia (ALL)'
p4034
asbasbasbag56
(g72
g58
NtRp4035
(dp4036
g61
(dp4037
sg70
g4018
sg63
(lp4038
g56
(g77
g58
NtRp4039
(dp4040
g61
(dp4041
sg70
g4035
sg63
(lp4042
g56
(g57
g58
NtRp4043
(dp4044
g61
(dp4045
g69
I3
ssg70
g4039
sg63
(lp4046
S'http://www.madisonsfoundation.org/index.php/component/option,com_mpower/Itemid,49/diseaseID,238/index.html'
p4047
asbasbasbag56
(g72
g58
NtRp4048
(dp4049
g61
(dp4050
sg70
g4018
sg63
(lp4051
g56
(g77
g58
NtRp4052
(dp4053
g61
(dp4054
sg70
g4048
sg63
(lp4055
g56
(g57
g58
NtRp4056
(dp4057
g61
(dp4058
g69
I3
ssg70
g4052
sg63
(lp4059
S'Acute Lymphoblastic Leukemia (ALL) Acute Lymphocytic Leukemia, Acute Childhood Leukemia Sunday, 27 July 2003 Last Updated Thursday, 18 November 2004 What Acute lymphoblastic leukemia (ALL) is a disease of the white blood cells known as lymphocytes. lymphocytes normally help the body fight infection and are found in the blood, bone marrow, and other organs that are a part of the immune system. In ALL, functional lymphocytes are replaced by abnormal leukemic cells that grow quickly and accumulate in the bone marrow. As the number of healthy white blood cells diminishes, the child becomes susceptible to bleeding and infections. Who ALL can occur in children and adults. It is the most common cancer in children, representing 75-80% of the acute leukemias and 23% of all cancer diagnosis in children. Peak incidence in children occurs at the age of 4 years. Childhood ALL occurs slightly more often in boys than in girls, and more often in white children than in black children. Also, there is a higher rate of ALL in more developed countries and in higher socioeconomic groups. Approximately 6 out of 100,000 people have ALL. Signs and Symptoms An individual with ALL may exhibit some or all of the following symptoms: 1. Easy bleeding or bruising. 2. Bleeding gums with brushing or other forms of mild trauma 3. Frequent nosebleeds. 4. Abnormal menstrual periods. 5. Fatigue. 6. Shortness of breath during physical activity or exercise. 7. Pinpoint red spots (petechiae) and black-and-blue marks (bruises) on the skin. 8. Paleness. 9. Frequent infections with fever 10. Bone pain or tenderness in the breastbone area. 11. Joint pain: hip, knee, ankle, foot, shoulder, elbow, wrist, hand 12. Enlarged glands (lymphadenopathy). 13. Unintentional weight loss. 14. Sensation of feeling the heart beat (palpitations with an irregular pattern). Possible Causes The cause of ALL is currently unknown. However, certain factors put individuals at a greater risk for ALL. For example, individuals have a ...'
p4060
asbasbasbasbasbasbasbag56
(g72
g58
NtRp4061
(dp4062
g61
(dp4063
sg70
g3397
sg63
(lp4064
g56
(g77
g58
NtRp4065
(dp4066
g61
(dp4067
sg70
g4061
sg63
(lp4068
g56
(g57
g58
NtRp4069
(dp4070
g61
(dp4071
g69
I4
ssg70
g4065
sg63
(lp4072
g56
(g65
g58
NtRp4073
(dp4074
g61
(dp4075
g69
I3
ssg70
Nsg63
(lp4076
g56
(g72
g58
NtRp4077
(dp4078
g61
(dp4079
sg70
g4073
sg63
(lp4080
g56
(g77
g58
NtRp4081
(dp4082
g61
(dp4083
sg70
g4077
sg63
(lp4084
g56
(g57
g58
NtRp4085
(dp4086
g61
(dp4087
g69
I3
ssg70
g4081
sg63
(lp4088
S'Paroxysmal nocturnal hemoglobinuria'
p4089
asbasbasbag56
(g72
g58
NtRp4090
(dp4091
g61
(dp4092
sg70
g4073
sg63
(lp4093
g56
(g77
g58
NtRp4094
(dp4095
g61
(dp4096
sg70
g4090
sg63
(lp4097
g56
(g57
g58
NtRp4098
(dp4099
g61
(dp4100
g69
I3
ssg70
g4094
sg63
(lp4101
S'http://en.wikipedia.org/wiki/Paroxysmal%20nocturnal%20hemoglobinuria'
p4102
asbasbasbag56
(g72
g58
NtRp4103
(dp4104
g61
(dp4105
sg70
g4073
sg63
(lp4106
g56
(g77
g58
NtRp4107
(dp4108
g61
(dp4109
sg70
g4103
sg63
(lp4110
g56
(g57
g58
NtRp4111
(dp4112
g61
(dp4113
g69
I3
ssg70
g4107
sg63
(lp4114
S'Paroxysmal nocturnal hemoglobinuria (PNH), sometimes referred to as Marchiafava-Micheli syndrome, is a rare, acquired, potentially life-threatening disease of the blood characterised by complement-induced intravascular hemolytic anemia (anemia due to destruction of red blood cells in the bloodstream), red urine (due to the appearance of hemoglobin in the urine) and thrombosis. PNH is the only hemolytic anemia caused by an acquired (rather than inherited) intrinsic defect in the cell membrane (deficiency of glycophosphatidylinositol leading to absence of protective proteins on the membrane). It may develop on its own ("primary PNH") or in the context of other bone marrow disorders such as aplastic anemia ("secondary PNH"). Only a minority have the telltale red urine in the morning. Treatment is usually supportive (blood transfusion for anemia, anticoagulation for thrombosis), although the monoclonal antibody eculizumab (Soliris) is being used to treat some cases. ==Signs and symptoms== Most people with "primary PNH" have red urine at some point in their disease course. Many of them continue to have low-grade breakdown of red blood cells, leading to anemia. Typical symptoms of anemia are tiredness, shortness of breath, and palpitations. On laboratory examination of the urine, breakdown products of red blood cells (hemoglobin and hemosiderin) may be identified. A small proportion of patients report abdominal pain, dysphagia (difficulty swallowing) and odynophagia (pain during swallowing), as well as erectile dysfunction in men - this occurs mainly when the breakdown of red blood cells is rapid. Forty percent of patients develop thrombosis (a blood clot) at some point in their illness. This is the main cause of severe complications and death in PNH. These may develop in common sites (deep vein thrombosis of the leg veins and resultant pulmonary embolism when these clots break off and enter the lungs), but, in PNH, blood clots may also form in more unusual sites: the hep...'
p4115
asbasbasbasbasbasbasbag56
(g72
g58
NtRp4116
(dp4117
g61
(dp4118
sg70
g3397
sg63
(lp4119
g56
(g77
g58
NtRp4120
(dp4121
g61
(dp4122
sg70
g4116
sg63
(lp4123
g56
(g57
g58
NtRp4124
(dp4125
g61
(dp4126
g69
I4
ssg70
g4120
sg63
(lp4127
g56
(g65
g58
NtRp4128
(dp4129
g61
(dp4130
g69
I3
ssg70
Nsg63
(lp4131
g56
(g72
g58
NtRp4132
(dp4133
g61
(dp4134
sg70
g4128
sg63
(lp4135
g56
(g77
g58
NtRp4136
(dp4137
g61
(dp4138
sg70
g4132
sg63
(lp4139
g56
(g57
g58
NtRp4140
(dp4141
g61
(dp4142
g69
I3
ssg70
g4136
sg63
(lp4143
S'Fanconi anaemia'
p4144
asbasbasbag56
(g72
g58
NtRp4145
(dp4146
g61
(dp4147
sg70
g4128
sg63
(lp4148
g56
(g77
g58
NtRp4149
(dp4150
g61
(dp4151
sg70
g4145
sg63
(lp4152
g56
(g57
g58
NtRp4153
(dp4154
g61
(dp4155
g69
I3
ssg70
g4149
sg63
(lp4156
S'http://www.socialstyrelsen.se/rarediseases/fanconianaemia'
p4157
asbasbasbag56
(g72
g58
NtRp4158
(dp4159
g61
(dp4160
sg70
g4128
sg63
(lp4161
g56
(g77
g58
NtRp4162
(dp4163
g61
(dp4164
sg70
g4158
sg63
(lp4165
g56
(g57
g58
NtRp4166
(dp4167
g61
(dp4168
g69
I3
ssg70
g4162
sg63
(lp4169
S'Print This is part of Rare diseases. Diagnosis: Fanconi anaemiaSynonyms: -- Innehll The disease Occurrence Cause Heredity Symptoms Diagnosis Treatment/interventions Practical advice National and regional resources in Sweden Resource personnel Courses, exchanges of experience, recreation Organizations for the disabled/patient associations Courses, exchanges of experience for personnel Research and development (R&D) Information material Literature Database references Document information Date of publication: 2009-03-30 Version: 1.0 The disease Fanconi anaemia is an inherited disorder. Though primarily considered a blood disease, it may affect all systems and organs of the body. The condition is named after Swiss paediatrician Guido Fanconi, who published the first case description in 1927. Haematological (blood) abnormalities in Fanconi anaemia include low counts of platelets (thrombocytes), red blood cells and white blood cells. Children with the condition are often born with skeletal anomalies, for example thumb and hip malformations or missing radius (one of the forearm bones), often in association with kidney, intestine and/or heart defects. Fanconi anaemia is also associated with an increased risk of bone marrow failure (aplastic anaemia). Fanconia anaemia is associated with an increased predisposition to malignancies. Of the several types of cancer which may occur, pre-leukaemic conditions known as myelodysplastic syndromes (MDS) are most common. MDS can progress to blood cancer (acute myeloid leukaemia, AML). There is also a high risk of developing malignant solid tumours, primarily in the liver and head and neck region. Large-scale patient studies show that Fanconi anaemia is a genetic disease, meaning that it is caused by a gene mutation. Fanconi anaemia is currently subdivided into 13 groups (complementation groups), depending on which gene is mutated. The most prevalent complementation group is known as FANCA. Occurrence The incidence of Fanconi anaemia is ...'
p4170
asbasbasbasbasbasbasbag56
(g72
g58
NtRp4171
(dp4172
g61
(dp4173
sg70
g3397
sg63
(lp4174
g56
(g77
g58
NtRp4175
(dp4176
g61
(dp4177
sg70
g4171
sg63
(lp4178
g56
(g57
g58
NtRp4179
(dp4180
g61
(dp4181
g69
I4
ssg70
g4175
sg63
(lp4182
g56
(g65
g58
NtRp4183
(dp4184
g61
(dp4185
g69
I3
ssg70
Nsg63
(lp4186
g56
(g72
g58
NtRp4187
(dp4188
g61
(dp4189
sg70
g4183
sg63
(lp4190
g56
(g77
g58
NtRp4191
(dp4192
g61
(dp4193
sg70
g4187
sg63
(lp4194
g56
(g57
g58
NtRp4195
(dp4196
g61
(dp4197
g69
I3
ssg70
g4191
sg63
(lp4198
S'Sickle Cell Anemia'
p4199
asbasbasbag56
(g72
g58
NtRp4200
(dp4201
g61
(dp4202
sg70
g4183
sg63
(lp4203
g56
(g77
g58
NtRp4204
(dp4205
g61
(dp4206
sg70
g4200
sg63
(lp4207
g56
(g57
g58
NtRp4208
(dp4209
g61
(dp4210
g69
I3
ssg70
g4204
sg63
(lp4211
S'http://rarediseases.about.com/od/rarediseasess/a/sicklecell.htm'
p4212
asbasbasbag56
(g72
g58
NtRp4213
(dp4214
g61
(dp4215
sg70
g4183
sg63
(lp4216
g56
(g77
g58
NtRp4217
(dp4218
g61
(dp4219
sg70
g4213
sg63
(lp4220
g56
(g57
g58
NtRp4221
(dp4222
g61
(dp4223
g69
I3
ssg70
g4217
sg63
(lp4224
S"Sickle cell anemia is an inherited blood disorder. Its main symptoms are long-term (chronic) anemia and episodes of pain. In the disorder, hemoglobin molecules in the red blood cells, which carry oxygen throughout the body, are defective. These defective molecules cause some of the red blood cells to change and form a sickle shape. These abnormally-shaped blood cells are the source of the anemia and pain. Sickle cell anemia occurs worldwide Sickle cell anemia is common among people whose ancestors come from sub-Saharan Africa, Spanish speaking regions of the world (South America, Cuba, and Central America), Saudi Arabia, India, and Mediterranean countries such as Turkey, Sicily, Greece, and Italy. Once thought to be a rare disease, research now shows that in the United States, sickle cell anemia occurs in about 1 in every 500 African-American children born and in 1 in every 900 Hispanic American children born. Passing on the gene to children Approximately 2 million Americans carry the defective gene for sickle cell anemia but do not themselves have the disease. However, if two people with the defective gene marry, there is a one in four chance that any child they have would have sickle cell anemia. Diagnosis Most states in the U.S. perform a simple blood test on all babies born to detect sickle cell anemia. If the test shows the abnormal hemoglobin is present, a second blood test is done to confirm the diagnosis. Symptoms Pain: The sickle-shaped red blood cells are sticky and have trouble passing through small blood vessels in the body. The cells get stuck, clump together, and block the flow of blood. Blocking off the blood causes pain. This is called a sickle cell crisis. Anemia: The sickle-shaped red blood cells die quickly. There are then not enough red blood cells to carry oxygen throughout the body. The result is fatigue, paleness, and shortness of breath. Delayed growth: Anemia slows the rate of growth because the body's cells don't get the oxygen they need to..."
p4225
asbasbasbasbasbasbasbag56
(g72
g58
NtRp4226
(dp4227
g61
(dp4228
sg70
g3397
sg63
(lp4229
g56
(g77
g58
NtRp4230
(dp4231
g61
(dp4232
sg70
g4226
sg63
(lp4233
g56
(g57
g58
NtRp4234
(dp4235
g61
(dp4236
g69
I4
ssg70
g4230
sg63
(lp4237
g56
(g65
g58
NtRp4238
(dp4239
g61
(dp4240
g69
I3
ssg70
Nsg63
(lp4241
g56
(g72
g58
NtRp4242
(dp4243
g61
(dp4244
sg70
g4238
sg63
(lp4245
g56
(g77
g58
NtRp4246
(dp4247
g61
(dp4248
sg70
g4242
sg63
(lp4249
g56
(g57
g58
NtRp4250
(dp4251
g61
(dp4252
g69
I3
ssg70
g4246
sg63
(lp4253
S'Autoimmune Hemolytic Anemia'
p4254
asbasbasbag56
(g72
g58
NtRp4255
(dp4256
g61
(dp4257
sg70
g4238
sg63
(lp4258
g56
(g77
g58
NtRp4259
(dp4260
g61
(dp4261
sg70
g4255
sg63
(lp4262
g56
(g57
g58
NtRp4263
(dp4264
g61
(dp4265
g69
I3
ssg70
g4259
sg63
(lp4266
S'http://www.madisonsfoundation.org/index.php/component/option,com_mpower/Itemid,49/diseaseID,309/index.html'
p4267
asbasbasbag56
(g72
g58
NtRp4268
(dp4269
g61
(dp4270
sg70
g4238
sg63
(lp4271
g56
(g77
g58
NtRp4272
(dp4273
g61
(dp4274
sg70
g4268
sg63
(lp4275
g56
(g57
g58
NtRp4276
(dp4277
g61
(dp4278
g69
I3
ssg70
g4272
sg63
(lp4279
S'Autoimmune Hemolytic Anemia Sunday, 31 August 2003 Last Updated Tuesday, 23 November 2004 What Autoimmune hemolytic anemia is a condition caused by the immune system which affects the bodys blood. In this condition, there are low levels of iron in the body due to the destruction of the red blood cells (RBC) that normally carry oxygen to the bodys tissues. Who Approximately half of all cases of autoimmune hemolytic anemia have unknown causes. In children 2-12 years of age, the disease is much more likely to be acute (short lived, i.e. 3-6 months). The disorder is preceded by a cold or flu in many cases, and this vial infection is thought to trigger the disorder. In infants, older children and adults, autoimmune hemolytic anemia is often a chronic condition, lasting months to years. Signs and Symptoms In children with autoimmune hemolytic anemia any of the following signs and symptoms may be found: Fatigue Pale skin color Yellow skin color (jaundice) Shortness of breath Rapid heartbeat Dark urine The following laboratory study results may be found: A positive Coombs test. This is a test for antibodies against RBCs. Increased levels of bilirubin levels. bilirubin is the by-product of the destruction of old RBCs. With increased RBC destruction, there will be increased levels of bilirubin. The increased bilirubin is the cause of the yellowish skin color referred to as jaundice, and the dark urine, which is due to bilirubin breakdown products in the urine. Elevated levels of reticulocytes. Reticulocytes are the precursors to RBCs. The levels are increased because the body is trying to rapidly replace the destroyed cells. Low red blood cell count Low hemoglobin levels These signs and symptoms usually have a relatively sudden onset, appearing over a few days. Possible Causes In approximately half of all autoimmune hemolytic anemia cases, the condition is classified as idiopathic, meaning the cause is unknown. Alternatively, it may be caused by medications or other underlyin...'
p4280
asbasbasbasbasbasbasbag56
(g72
g58
NtRp4281
(dp4282
g61
(dp4283
sg70
g3397
sg63
(lp4284
g56
(g77
g58
NtRp4285
(dp4286
g61
(dp4287
sg70
g4281
sg63
(lp4288
g56
(g57
g58
NtRp4289
(dp4290
g61
(dp4291
g69
I4
ssg70
g4285
sg63
(lp4292
g56
(g65
g58
NtRp4293
(dp4294
g61
(dp4295
g69
I3
ssg70
Nsg63
(lp4296
g56
(g72
g58
NtRp4297
(dp4298
g61
(dp4299
sg70
g4293
sg63
(lp4300
g56
(g77
g58
NtRp4301
(dp4302
g61
(dp4303
sg70
g4297
sg63
(lp4304
g56
(g57
g58
NtRp4305
(dp4306
g61
(dp4307
g69
I3
ssg70
g4301
sg63
(lp4308
S"Waldenstrom's Macroglobulinemia (WM)"
p4309
asbasbasbag56
(g72
g58
NtRp4310
(dp4311
g61
(dp4312
sg70
g4293
sg63
(lp4313
g56
(g77
g58
NtRp4314
(dp4315
g61
(dp4316
sg70
g4310
sg63
(lp4317
g56
(g57
g58
NtRp4318
(dp4319
g61
(dp4320
g69
I3
ssg70
g4314
sg63
(lp4321
S'http://www.madisonsfoundation.org/index.php/component/option,com_mpower/Itemid,49/diseaseID,304/index.html'
p4322
asbasbasbag56
(g72
g58
NtRp4323
(dp4324
g61
(dp4325
sg70
g4293
sg63
(lp4326
g56
(g77
g58
NtRp4327
(dp4328
g61
(dp4329
sg70
g4323
sg63
(lp4330
g56
(g57
g58
NtRp4331
(dp4332
g61
(dp4333
g69
I3
ssg70
g4327
sg63
(lp4334
S"Waldenstrom's Macroglobulinemia (WM) Sunday, 31 August 2003 Last Updated Monday, 04 December 2006 What Waldenstroms macroglobulinemia (WM) is a rare form of cancer that affects plasma cells, which come from a type of white blood cell called B cells. These plasma cells multiply out of control and fill the bone marrow, lymph nodes, and spleen. This causes an overproduction of antibodies, specifically an antibody called IgM. Increased IgM in the blood causes the blood to thicken, which can cause symptoms of dizziness, headaches, visual problems, and the tendency to bleed and bruise easily. Who WM is a rare condition, accounting only for 2% of all blood cancers. WM is very rare in children. In adults, it occurs in 5 out of 100,000 people over 50 years old and the average age at diagnosis is 60 yrs-old. It is more prevalent in males than females, and there is an increased incidence in Caucasians versus African Americans. Signs and Symptoms Some or all of the following may be seen in people with Waldenstroms macroglobulinemia: - Fatigue, weight loss, anorexia - Tendency to bleed and bruise easily (due to the lack of platelets) - Anemia (low red blood cell levels) - Enlarged spleen, liver, and lymph nodes - Headaches and dizziness - Visual problems, such as blurry or decreased vision - Numbness, tingling, or pain in the arms and/or legs - Mental status changes and lethargy Possible Causes WM is caused by the overproduction of a specific type of protein in the body known as immunoglobin type M (IgM). IgM is a protein that normally serves a protective role against infection as part of the immune system. It is produced by a blood cell known as plasma cells which are formed in the spleen, lymph nodes, and bone marrow. In WM, plasma cells multiply out of control. As these plasma cells start increasing, the bodys immune system begins overproducing antibodies as it would during an infection. Since there is no infection, these antibodies (IgM type) accumulate in the blood. This ca..."
p4335
asbasbasbasbasbasbasbag56
(g72
g58
NtRp4336
(dp4337
g61
(dp4338
sg70
g3397
sg63
(lp4339
g56
(g77
g58
NtRp4340
(dp4341
g61
(dp4342
sg70
g4336
sg63
(lp4343
g56
(g57
g58
NtRp4344
(dp4345
g61
(dp4346
g69
I4
ssg70
g4340
sg63
(lp4347
g56
(g65
g58
NtRp4348
(dp4349
g61
(dp4350
g69
I3
ssg70
Nsg63
(lp4351
g56
(g72
g58
NtRp4352
(dp4353
g61
(dp4354
sg70
g4348
sg63
(lp4355
g56
(g77
g58
NtRp4356
(dp4357
g61
(dp4358
sg70
g4352
sg63
(lp4359
g56
(g57
g58
NtRp4360
(dp4361
g61
(dp4362
g69
I3
ssg70
g4356
sg63
(lp4363
S'Myelodysplastic Syndrome'
p4364
asbasbasbag56
(g72
g58
NtRp4365
(dp4366
g61
(dp4367
sg70
g4348
sg63
(lp4368
g56
(g77
g58
NtRp4369
(dp4370
g61
(dp4371
sg70
g4365
sg63
(lp4372
g56
(g57
g58
NtRp4373
(dp4374
g61
(dp4375
g69
I3
ssg70
g4369
sg63
(lp4376
S'http://rarediseases.about.com/od/rarediseases1/a/myelodysplastic.htm'
p4377
asbasbasbag56
(g72
g58
NtRp4378
(dp4379
g61
(dp4380
sg70
g4348
sg63
(lp4381
g56
(g77
g58
NtRp4382
(dp4383
g61
(dp4384
sg70
g4378
sg63
(lp4385
g56
(g57
g58
NtRp4386
(dp4387
g61
(dp4388
g69
I3
ssg70
g4382
sg63
(lp4389
S"There are several subtypes of myelodysplastic syndromes (MDS), but they are all disorders in which the cells in the bone marrow don't function normally and not enough normal blood cells are produced. MDS usually occurs in older people, typically starting after age 50. Myelodysplastic syndrome is rarely inherited. For many people, it develops without any known cause. In other people, MDS may develop after being exposed to chemotherapy or radiation therapy. Exposures to industrial chemicals such as benzene are also linked to the development of MDS. Symptoms The symptoms of myelodysplastic syndrome are related to the lack of normal blood cells. Lack of red blood cells causes anemia (leading to fatigue and shortness of breath) Lack of white blood cells leaves the body open to infection Lack of platelet cells makes it difficult for the blood to clot (leading to unusual bruising or bleeding) Different people are affected in different ways by myelodysplastic syndrome, and its symptoms can range from mild to very severe. Some people may only have long-term (chronic) anemia. Diagnosis The symptoms a person is having, such as fatigue and shortness of breath, may suggest a diagnosis of myelodysplastic syndrome. A complete blood count and blood smear are done to look at the numbers and types of blood cells in a blood sample. In MDS, the numbers of red cells, white cells, and platelets may be lower than normal. If the blood cell counts are abnormal, a bone marrow sample (biopsy) may be taken and examined under the microscope for abnormal immature white blood cells called leukemic blast cells. Not all individuals with myelodysplastic syndrome will have this type of cell in the bone marrow. Special testing called cytogenetics will look at the genetic material (chromosomes) in the bone marrow cells. Certain types of abnormal chromosomes are present in myelodysplastic syndrome. For example, pieces of chromosome 5 or 7 may be missing, or there may be three copies of chromosome 8 inst..."
p4390
asbasbasbasbasbasbasbag56
(g72
g58
NtRp4391
(dp4392
g61
(dp4393
sg70
g3397
sg63
(lp4394
g56
(g77
g58
NtRp4395
(dp4396
g61
(dp4397
sg70
g4391
sg63
(lp4398
g56
(g57
g58
NtRp4399
(dp4400
g61
(dp4401
g69
I4
ssg70
g4395
sg63
(lp4402
g56
(g65
g58
NtRp4403
(dp4404
g61
(dp4405
g69
I3
ssg70
Nsg63
(lp4406
g56
(g72
g58
NtRp4407
(dp4408
g61
(dp4409
sg70
g4403
sg63
(lp4410
g56
(g77
g58
NtRp4411
(dp4412
g61
(dp4413
sg70
g4407
sg63
(lp4414
g56
(g57
g58
NtRp4415
(dp4416
g61
(dp4417
g69
I3
ssg70
g4411
sg63
(lp4418
S'Idiopathic Thrombocytopenic Purpura'
p4419
asbasbasbag56
(g72
g58
NtRp4420
(dp4421
g61
(dp4422
sg70
g4403
sg63
(lp4423
g56
(g77
g58
NtRp4424
(dp4425
g61
(dp4426
sg70
g4420
sg63
(lp4427
g56
(g57
g58
NtRp4428
(dp4429
g61
(dp4430
g69
I3
ssg70
g4424
sg63
(lp4431
S'http://www.madisonsfoundation.org/index.php/component/option,com_mpower/Itemid,49/diseaseID,532/index.html'
p4432
asbasbasbag56
(g72
g58
NtRp4433
(dp4434
g61
(dp4435
sg70
g4403
sg63
(lp4436
g56
(g77
g58
NtRp4437
(dp4438
g61
(dp4439
sg70
g4433
sg63
(lp4440
g56
(g57
g58
NtRp4441
(dp4442
g61
(dp4443
g69
I3
ssg70
g4437
sg63
(lp4444
S'Idiopathic Thrombocytopenic Purpura Monday, 18 October 2004 Last Updated Monday, 29 November 2004 What Idiopathic Thrombocytopenic Purpura (ITP) is the development of purpura, which are purplish areas on the skin where superficial bleeding has occurred, due to low platelet levels (thrombocytopenia). It is an autoimmune process, where the bodys immune system attacks and destroys platelets necessary for blood clotting, resulting in bleeding and easy bruising. The cause of ITP is unknown or idiopathic. Who ITP occurs in one of 20,000 children born per year. Girls are affected two to three times more frequently than boys. It most commonly affects children 2-4 years old. In children less than 10 years, ITP usually lasts less than 6 months and is not associated with other underlying illnesses. Adolescent females may develop a more chronic form of ITP, where recovery is prolonged. Signs and Symptoms Acute ITP develops abruptly in an otherwise healthy child. Symptoms include gum/nose bleeding, easy bruising, purpura and petechiae (tiny red spots on the skin usually on the lower legs or inside the mouth resembling a rash). Fever and fatigue are uncommon and the child otherwise feels well. If platelet counts are very low, bleeding may occur in the stool and/or urine. The most worrisome location for bleeding is in the brain. If this occurs, the child may appear sleepy and confused or complain of a severe headache. Bleeding in the brain is very dangerous and needs immediate medical attention. Unlike children with hemophilia, ITP patients are not at risk for deep joint/muscle bleeding. Enlargement of the spleen, liver, and lymph nodes are also unusual in ITP and raise the concern for leukemia. Chronic ITP presents more gradually. Female adolescents with ITP may present with menorrhagia (very heavy menstrual periods). Possible Causes ITP is not hereditary, contagious or preventable. It occurs more commonly in late winter and spring. Typically, children who develop ITP have a hist...'
p4445
asbasbasbasbasbasbasbag56
(g72
g58
NtRp4446
(dp4447
g61
(dp4448
sg70
g3397
sg63
(lp4449
g56
(g77
g58
NtRp4450
(dp4451
g61
(dp4452
sg70
g4446
sg63
(lp4453
g56
(g57
g58
NtRp4454
(dp4455
g61
(dp4456
g69
I4
ssg70
g4450
sg63
(lp4457
g56
(g65
g58
NtRp4458
(dp4459
g61
(dp4460
g69
I3
ssg70
Nsg63
(lp4461
g56
(g72
g58
NtRp4462
(dp4463
g61
(dp4464
sg70
g4458
sg63
(lp4465
g56
(g77
g58
NtRp4466
(dp4467
g61
(dp4468
sg70
g4462
sg63
(lp4469
g56
(g57
g58
NtRp4470
(dp4471
g61
(dp4472
g69
I3
ssg70
g4466
sg63
(lp4473
S'Shwachman-Diamond Syndrome (SDS)'
p4474
asbasbasbag56
(g72
g58
NtRp4475
(dp4476
g61
(dp4477
sg70
g4458
sg63
(lp4478
g56
(g77
g58
NtRp4479
(dp4480
g61
(dp4481
sg70
g4475
sg63
(lp4482
g56
(g57
g58
NtRp4483
(dp4484
g61
(dp4485
g69
I3
ssg70
g4479
sg63
(lp4486
S'http://www.madisonsfoundation.org/index.php/component/option,com_mpower/Itemid,49/diseaseID,231/index.html'
p4487
asbasbasbag56
(g72
g58
NtRp4488
(dp4489
g61
(dp4490
sg70
g4458
sg63
(lp4491
g56
(g77
g58
NtRp4492
(dp4493
g61
(dp4494
sg70
g4488
sg63
(lp4495
g56
(g57
g58
NtRp4496
(dp4497
g61
(dp4498
g69
I3
ssg70
g4492
sg63
(lp4499
S'Shwachman-Diamond Syndrome (SDS) Shwachman Syndrome, Swachman-Bodian-Diamond Syndrome Sunday, 27 July 2003 Last Updated Thursday, 14 September 2006 What Shwachman-Diamond Syndrome (SDS) is an inherited disorder that impairs pancreatic and bone marrow function and results in decreased height. SDS may also cause other effects including skeletal changes. Effects on the pancreas reduce intestinal nutrient absorption, but this malabsorption is largely reversible with treatment. Impairment of bone marrow (which produces all types of blood cells) most commonly causes decreased numbers of neutrophils, a type of white blood cell that fights infection. However, leukemia and aplastic anemia (in which the bone marrow is unable to generate sufficient quantities of all types of blood cells) also develop in some patients. The course of SDS varies significantly, and every case is different. Who Children usually develop symptoms in their first year of life. Many are affected by four months of age. The incidence is unknown but estimated to be 1 in 50,000 births. The disorder is present in people of all racial and ethnic backgrounds. Males reportedly develop the disorder slightly more often than females (1.7:1), but an actual disparity is doubtful since the suspected mode of inheritance (described next) leads to equal incidence in both sexes. SDS is a genetically inherited disorder. A child receives two copies of every gene--one from each parent. For a child to be affected by SDS, that child must inherit two broken copies of the gene associated with SDS. One broken copy must come from the mother and the other from the father. Even though both parents have broken gene copies, they probably are not affected by SDS because they each have a second normal copy of the gene. Thus, it is unlikely that the parents could have known that they might have a child with SDS. Additionally, parents have no control over whether they give their child a normal or broken copy of a gene. In this scenario i...'
p4500
asbasbasbasbasbasbasbasbasbasbasbag56
(g72
g58
NtRp4501
(dp4502
g61
(dp4503
sg70
g3372
sg63
(lp4504
g56
(g77
g58
NtRp4505
(dp4506
g61
(dp4507
g81
g82
ssg70
g4501
sg63
(lp4508
S'hashstring'
p4509
asbag56
(g77
g58
NtRp4510
(dp4511
g61
(dp4512
g88
g89
ssg70
g4501
sg63
(lp4513
S':'
asbag56
(g77
g58
NtRp4514
(dp4515
g61
(dp4516
sg70
g4501
sg63
(lp4517
g56
(g57
g58
NtRp4518
(dp4519
g61
(dp4520
g69
I5
ssg70
g4514
sg63
(lp4521
S'5b9ba38cf1cb39536d0f947a0b223fc8'
p4522
asbasbasbag56
(g72
g58
NtRp4523
(dp4524
g61
(dp4525
sg70
g3372
sg63
(lp4526
g56
(g77
g58
NtRp4527
(dp4528
g61
(dp4529
g81
g82
ssg70
g4523
sg63
(lp4530
S'query'
p4531
asbag56
(g77
g58
NtRp4532
(dp4533
g61
(dp4534
g88
g89
ssg70
g4523
sg63
(lp4535
S':'
asbag56
(g77
g58
NtRp4536
(dp4537
g61
(dp4538
sg70
g4523
sg63
(lp4539
g56
(g57
g58
NtRp4540
(dp4541
g61
(dp4542
g69
I5
ssg70
g4536
sg63
(lp4543
g1959
asbasbasbasbasbsS'etype'
p4544
S"<type 'exceptions.RuntimeError'>"
p4545
sS'date'
p4546
S'Thu Jun 30 14:23:32 2011'
p4547
sS'response'
p4548
g56
(g57
g58
NtRp4549
(dp4550
g61
(dp4551
sg63
(lp4552
g56
(g65
g58
NtRp4553
(dp4554
g61
(dp4555
g69
I5
ssg70
Nsg63
(lp4556
g56
(g72
g58
NtRp4557
(dp4558
g61
(dp4559
sg70
g4553
sg63
(lp4560
g56
(g77
g58
NtRp4561
(dp4562
g61
(dp4563
g81
g82
ssg70
g4557
sg63
(lp4564
g154
asbag56
(g77
g58
NtRp4565
(dp4566
g61
(dp4567
g88
g89
ssg70
g4557
sg63
(lp4568
S':'
asbag56
(g77
g58
NtRp4569
(dp4570
g61
(dp4571
sg70
g4557
sg63
(lp4572
g56
(g57
g58
NtRp4573
(dp4574
g61
(dp4575
g69
I5
ssg70
g4569
sg63
(lp4576
S'<cStringIO.StringO object at 0x2b9bdb83e260>'
p4577
asbasbasbag56
(g72
g58
NtRp4578
(dp4579
g61
(dp4580
sg70
g4553
sg63
(lp4581
g56
(g77
g58
NtRp4582
(dp4583
g61
(dp4584
g81
g82
ssg70
g4578
sg63
(lp4585
g220
asbag56
(g77
g58
NtRp4586
(dp4587
g61
(dp4588
g88
g89
ssg70
g4578
sg63
(lp4589
S':'
asbag56
(g77
g58
NtRp4590
(dp4591
g61
(dp4592
sg70
g4578
sg63
(lp4593
g56
(g57
g58
NtRp4594
(dp4595
g61
(dp4596
g69
I5
ssg70
g4590
sg63
(lp4597
g56
(g65
g58
NtRp4598
(dp4599
g61
(dp4600
g69
I4
ssg70
Nsg63
(lp4601
g56
(g72
g58
NtRp4602
(dp4603
g61
(dp4604
sg70
g4598
sg63
(lp4605
g56
(g77
g58
NtRp4606
(dp4607
g61
(dp4608
g81
g82
ssg70
g4602
sg63
(lp4609
S'session_id_rdcdss'
p4610
asbag56
(g77
g58
NtRp4611
(dp4612
g61
(dp4613
g88
g89
ssg70
g4602
sg63
(lp4614
S':'
asbag56
(g77
g58
NtRp4615
(dp4616
g61
(dp4617
sg70
g4602
sg63
(lp4618
g56
(g57
g58
NtRp4619
(dp4620
g61
(dp4621
g69
I4
ssg70
g4615
sg63
(lp4622
g56
(g65
g58
NtRp4623
(dp4624
g61
(dp4625
g69
I3
ssg70
Nsg63
(lp4626
g56
(g72
g58
NtRp4627
(dp4628
g61
(dp4629
sg70
g4623
sg63
(lp4630
g56
(g77
g58
NtRp4631
(dp4632
g61
(dp4633
g81
g82
ssg70
g4627
sg63
(lp4634
g270
asbag56
(g77
g58
NtRp4635
(dp4636
g61
(dp4637
g88
g89
ssg70
g4627
sg63
(lp4638
S':'
asbag56
(g77
g58
NtRp4639
(dp4640
g61
(dp4641
sg70
g4627
sg63
(lp4642
g56
(g57
g58
NtRp4643
(dp4644
g61
(dp4645
g69
I3
ssg70
g4639
sg63
(lp4646
S''
asbasbasbag56
(g72
g58
NtRp4647
(dp4648
g61
(dp4649
sg70
g4623
sg63
(lp4650
g56
(g77
g58
NtRp4651
(dp4652
g61
(dp4653
g81
g82
ssg70
g4647
sg63
(lp4654
g291
asbag56
(g77
g58
NtRp4655
(dp4656
g61
(dp4657
g88
g89
ssg70
g4647
sg63
(lp4658
S':'
asbag56
(g77
g58
NtRp4659
(dp4660
g61
(dp4661
sg70
g4647
sg63
(lp4662
g56
(g57
g58
NtRp4663
(dp4664
g61
(dp4665
g69
I3
ssg70
g4659
sg63
(lp4666
S''
asbasbasbag56
(g72
g58
NtRp4667
(dp4668
g61
(dp4669
sg70
g4623
sg63
(lp4670
g56
(g77
g58
NtRp4671
(dp4672
g61
(dp4673
g81
g82
ssg70
g4667
sg63
(lp4674
g312
asbag56
(g77
g58
NtRp4675
(dp4676
g61
(dp4677
g88
g89
ssg70
g4667
sg63
(lp4678
S':'
asbag56
(g77
g58
NtRp4679
(dp4680
g61
(dp4681
sg70
g4667
sg63
(lp4682
g56
(g57
g58
NtRp4683
(dp4684
g61
(dp4685
g69
I3
ssg70
g4679
sg63
(lp4686
S''
asbasbasbag56
(g72
g58
NtRp4687
(dp4688
g61
(dp4689
sg70
g4623
sg63
(lp4690
g56
(g77
g58
NtRp4691
(dp4692
g61
(dp4693
g81
g82
ssg70
g4687
sg63
(lp4694
g333
asbag56
(g77
g58
NtRp4695
(dp4696
g61
(dp4697
g88
g89
ssg70
g4687
sg63
(lp4698
S':'
asbag56
(g77
g58
NtRp4699
(dp4700
g61
(dp4701
sg70
g4687
sg63
(lp4702
g56
(g57
g58
NtRp4703
(dp4704
g61
(dp4705
g69
I3
ssg70
g4699
sg63
(lp4706
S''
asbasbasbag56
(g72
g58
NtRp4707
(dp4708
g61
(dp4709
sg70
g4623
sg63
(lp4710
g56
(g77
g58
NtRp4711
(dp4712
g61
(dp4713
g81
g82
ssg70
g4707
sg63
(lp4714
g354
asbag56
(g77
g58
NtRp4715
(dp4716
g61
(dp4717
g88
g89
ssg70
g4707
sg63
(lp4718
S':'
asbag56
(g77
g58
NtRp4719
(dp4720
g61
(dp4721
sg70
g4707
sg63
(lp4722
g56
(g57
g58
NtRp4723
(dp4724
g61
(dp4725
g69
I3
ssg70
g4719
sg63
(lp4726
S''
asbasbasbag56
(g72
g58
NtRp4727
(dp4728
g61
(dp4729
sg70
g4623
sg63
(lp4730
g56
(g77
g58
NtRp4731
(dp4732
g61
(dp4733
g81
g82
ssg70
g4727
sg63
(lp4734
g375
asbag56
(g77
g58
NtRp4735
(dp4736
g61
(dp4737
g88
g89
ssg70
g4727
sg63
(lp4738
S':'
asbag56
(g77
g58
NtRp4739
(dp4740
g61
(dp4741
sg70
g4727
sg63
(lp4742
g56
(g57
g58
NtRp4743
(dp4744
g61
(dp4745
g69
I3
ssg70
g4739
sg63
(lp4746
S'/'
asbasbasbag56
(g72
g58
NtRp4747
(dp4748
g61
(dp4749
sg70
g4623
sg63
(lp4750
g56
(g77
g58
NtRp4751
(dp4752
g61
(dp4753
g81
g82
ssg70
g4747
sg63
(lp4754
g396
asbag56
(g77
g58
NtRp4755
(dp4756
g61
(dp4757
g88
g89
ssg70
g4747
sg63
(lp4758
S':'
asbag56
(g77
g58
NtRp4759
(dp4760
g61
(dp4761
sg70
g4747
sg63
(lp4762
g56
(g57
g58
NtRp4763
(dp4764
g61
(dp4765
g69
I3
ssg70
g4759
sg63
(lp4766
S''
asbasbasbag56
(g72
g58
NtRp4767
(dp4768
g61
(dp4769
sg70
g4623
sg63
(lp4770
g56
(g77
g58
NtRp4771
(dp4772
g61
(dp4773
g81
g82
ssg70
g4767
sg63
(lp4774
g417
asbag56
(g77
g58
NtRp4775
(dp4776
g61
(dp4777
g88
g89
ssg70
g4767
sg63
(lp4778
S':'
asbag56
(g77
g58
NtRp4779
(dp4780
g61
(dp4781
sg70
g4767
sg63
(lp4782
g56
(g57
g58
NtRp4783
(dp4784
g61
(dp4785
g69
I3
ssg70
g4779
sg63
(lp4786
S''
asbasbasbasbasbasbasbasbasbasbasbag56
(g72
g58
NtRp4787
(dp4788
g61
(dp4789
sg70
g4553
sg63
(lp4790
g56
(g77
g58
NtRp4791
(dp4792
g61
(dp4793
g81
g82
ssg70
g4787
sg63
(lp4794
S'files'
p4795
asbag56
(g77
g58
NtRp4796
(dp4797
g61
(dp4798
g88
g89
ssg70
g4787
sg63
(lp4799
S':'
asbag56
(g77
g58
NtRp4800
(dp4801
g61
(dp4802
sg70
g4787
sg63
(lp4803
g56
(g57
g58
NtRp4804
(dp4805
g61
(dp4806
g69
I5
ssg70
g4800
sg63
(lp4807
g56
(g65
g58
NtRp4808
(dp4809
g61
(dp4810
g69
I4
ssg70
Nsg63
(lp4811
g56
(g72
g58
NtRp4812
(dp4813
g61
(dp4814
sg70
g4808
sg63
(lp4815
g56
(g77
g58
NtRp4816
(dp4817
g61
(dp4818
sg70
g4812
sg63
(lp4819
g56
(g57
g58
NtRp4820
(dp4821
g61
(dp4822
g69
I4
ssg70
g4816
sg63
(lp4823
S'/rdcdss/static/js/jquery.js'
p4824
asbasbasbag56
(g72
g58
NtRp4825
(dp4826
g61
(dp4827
sg70
g4808
sg63
(lp4828
g56
(g77
g58
NtRp4829
(dp4830
g61
(dp4831
sg70
g4825
sg63
(lp4832
g56
(g57
g58
NtRp4833
(dp4834
g61
(dp4835
g69
I4
ssg70
g4829
sg63
(lp4836
S'/rdcdss/static/css/calendar.css'
p4837
asbasbasbag56
(g72
g58
NtRp4838
(dp4839
g61
(dp4840
sg70
g4808
sg63
(lp4841
g56
(g77
g58
NtRp4842
(dp4843
g61
(dp4844
sg70
g4838
sg63
(lp4845
g56
(g57
g58
NtRp4846
(dp4847
g61
(dp4848
g69
I4
ssg70
g4842
sg63
(lp4849
S'/rdcdss/static/js/calendar.js'
p4850
asbasbasbag56
(g72
g58
NtRp4851
(dp4852
g61
(dp4853
sg70
g4808
sg63
(lp4854
g56
(g77
g58
NtRp4855
(dp4856
g61
(dp4857
sg70
g4851
sg63
(lp4858
g56
(g57
g58
NtRp4859
(dp4860
g61
(dp4861
g69
I4
ssg70
g4855
sg63
(lp4862
S'/rdcdss/static/plugin_powertable/jquery.dataTables.min.js'
p4863
asbasbasbag56
(g72
g58
NtRp4864
(dp4865
g61
(dp4866
sg70
g4808
sg63
(lp4867
g56
(g77
g58
NtRp4868
(dp4869
g61
(dp4870
sg70
g4864
sg63
(lp4871
g56
(g57
g58
NtRp4872
(dp4873
g61
(dp4874
g69
I4
ssg70
g4868
sg63
(lp4875
S'/rdcdss/static/plugin_powertable/jquery.dataTables.css'
p4876
asbasbasbag56
(g72
g58
NtRp4877
(dp4878
g61
(dp4879
sg70
g4808
sg63
(lp4880
g56
(g77
g58
NtRp4881
(dp4882
g61
(dp4883
sg70
g4877
sg63
(lp4884
g56
(g57
g58
NtRp4885
(dp4886
g61
(dp4887
g69
I4
ssg70
g4881
sg63
(lp4888
S'/rdcdss/static/plugin_powertable/ui/css/smoothness/jquery-ui-1.8.5.custom.css'
p4889
asbasbasbag56
(g72
g58
NtRp4890
(dp4891
g61
(dp4892
sg70
g4808
sg63
(lp4893
g56
(g77
g58
NtRp4894
(dp4895
g61
(dp4896
sg70
g4890
sg63
(lp4897
g56
(g57
g58
NtRp4898
(dp4899
g61
(dp4900
g69
I4
ssg70
g4894
sg63
(lp4901
S'/rdcdss/static/plugin_powertable/ui/js/jquery-ui-1.8.5.custom.min.js'
p4902
asbasbasbag56
(g72
g58
NtRp4903
(dp4904
g61
(dp4905
sg70
g4808
sg63
(lp4906
g56
(g77
g58
NtRp4907
(dp4908
g61
(dp4909
sg70
g4903
sg63
(lp4910
g56
(g57
g58
NtRp4911
(dp4912
g61
(dp4913
g69
I4
ssg70
g4907
sg63
(lp4914
S'/rdcdss/static/css/base.css'
p4915
asbasbasbag56
(g72
g58
NtRp4916
(dp4917
g61
(dp4918
sg70
g4808
sg63
(lp4919
g56
(g77
g58
NtRp4920
(dp4921
g61
(dp4922
sg70
g4916
sg63
(lp4923
g56
(g57
g58
NtRp4924
(dp4925
g61
(dp4926
g69
I4
ssg70
g4920
sg63
(lp4927
S'/rdcdss/static/css/superfish.css'
p4928
asbasbasbag56
(g72
g58
NtRp4929
(dp4930
g61
(dp4931
sg70
g4808
sg63
(lp4932
g56
(g77
g58
NtRp4933
(dp4934
g61
(dp4935
sg70
g4929
sg63
(lp4936
g56
(g57
g58
NtRp4937
(dp4938
g61
(dp4939
g69
I4
ssg70
g4933
sg63
(lp4940
S'/rdcdss/static/js/superfish.js'
p4941
asbasbasbasbasbasbasbag56
(g72
g58
NtRp4942
(dp4943
g61
(dp4944
sg70
g4553
sg63
(lp4945
g56
(g77
g58
NtRp4946
(dp4947
g61
(dp4948
g81
g82
ssg70
g4942
sg63
(lp4949
S'flash'
p4950
asbag56
(g77
g58
NtRp4951
(dp4952
g61
(dp4953
g88
g89
ssg70
g4942
sg63
(lp4954
S':'
asbag56
(g77
g58
NtRp4955
(dp4956
g61
(dp4957
sg70
g4942
sg63
(lp4958
g56
(g57
g58
NtRp4959
(dp4960
g61
(dp4961
g69
I5
ssg70
g4955
sg63
(lp4962
S''
asbasbasbag56
(g72
g58
NtRp4963
(dp4964
g61
(dp4965
sg70
g4553
sg63
(lp4966
g56
(g77
g58
NtRp4967
(dp4968
g61
(dp4969
g81
g82
ssg70
g4963
sg63
(lp4970
S'headers'
p4971
asbag56
(g77
g58
NtRp4972
(dp4973
g61
(dp4974
g88
g89
ssg70
g4963
sg63
(lp4975
S':'
asbag56
(g77
g58
NtRp4976
(dp4977
g61
(dp4978
sg70
g4963
sg63
(lp4979
g56
(g57
g58
NtRp4980
(dp4981
g61
(dp4982
g69
I5
ssg70
g4976
sg63
(lp4983
g56
(g65
g58
NtRp4984
(dp4985
g61
(dp4986
g69
I4
ssg70
Nsg63
(lp4987
g56
(g72
g58
NtRp4988
(dp4989
g61
(dp4990
sg70
g4984
sg63
(lp4991
g56
(g77
g58
NtRp4992
(dp4993
g61
(dp4994
g81
g82
ssg70
g4988
sg63
(lp4995
S'Cache-Control'
p4996
asbag56
(g77
g58
NtRp4997
(dp4998
g61
(dp4999
g88
g89
ssg70
g4988
sg63
(lp5000
S':'
asbag56
(g77
g58
NtRp5001
(dp5002
g61
(dp5003
sg70
g4988
sg63
(lp5004
g56
(g57
g58
NtRp5005
(dp5006
g61
(dp5007
g69
I4
ssg70
g5001
sg63
(lp5008
S'no-store, no-cache, must-revalidate, post-check=0, pre-check=0'
p5009
asbasbasbag56
(g72
g58
NtRp5010
(dp5011
g61
(dp5012
sg70
g4984
sg63
(lp5013
g56
(g77
g58
NtRp5014
(dp5015
g61
(dp5016
g81
g82
ssg70
g5010
sg63
(lp5017
S'Content-Type'
p5018
asbag56
(g77
g58
NtRp5019
(dp5020
g61
(dp5021
g88
g89
ssg70
g5010
sg63
(lp5022
S':'
asbag56
(g77
g58
NtRp5023
(dp5024
g61
(dp5025
sg70
g5010
sg63
(lp5026
g56
(g57
g58
NtRp5027
(dp5028
g61
(dp5029
g69
I4
ssg70
g5023
sg63
(lp5030
S'application/pdf'
p5031
asbasbasbag56
(g72
g58
NtRp5032
(dp5033
g61
(dp5034
sg70
g4984
sg63
(lp5035
g56
(g77
g58
NtRp5036
(dp5037
g61
(dp5038
g81
g82
ssg70
g5032
sg63
(lp5039
S'Expires'
p5040
asbag56
(g77
g58
NtRp5041
(dp5042
g61
(dp5043
g88
g89
ssg70
g5032
sg63
(lp5044
S':'
asbag56
(g77
g58
NtRp5045
(dp5046
g61
(dp5047
sg70
g5032
sg63
(lp5048
g56
(g57
g58
NtRp5049
(dp5050
g61
(dp5051
g69
I4
ssg70
g5045
sg63
(lp5052
S'Thu, 30 Jun 2011 10:23:31 GMT'
p5053
asbasbasbag56
(g72
g58
NtRp5054
(dp5055
g61
(dp5056
sg70
g4984
sg63
(lp5057
g56
(g77
g58
NtRp5058
(dp5059
g61
(dp5060
g81
g82
ssg70
g5054
sg63
(lp5061
S'Pragma'
p5062
asbag56
(g77
g58
NtRp5063
(dp5064
g61
(dp5065
g88
g89
ssg70
g5054
sg63
(lp5066
S':'
asbag56
(g77
g58
NtRp5067
(dp5068
g61
(dp5069
sg70
g5054
sg63
(lp5070
g56
(g57
g58
NtRp5071
(dp5072
g61
(dp5073
g69
I4
ssg70
g5067
sg63
(lp5074
S'no-cache'
p5075
asbasbasbasbasbasbasbag56
(g72
g58
NtRp5076
(dp5077
g61
(dp5078
sg70
g4553
sg63
(lp5079
g56
(g77
g58
NtRp5080
(dp5081
g61
(dp5082
g81
g82
ssg70
g5076
sg63
(lp5083
S'menu'
p5084
asbag56
(g77
g58
NtRp5085
(dp5086
g61
(dp5087
g88
g89
ssg70
g5076
sg63
(lp5088
S':'
asbag56
(g77
g58
NtRp5089
(dp5090
g61
(dp5091
sg70
g5076
sg63
(lp5092
g56
(g57
g58
NtRp5093
(dp5094
g61
(dp5095
g69
I5
ssg70
g5089
sg63
(lp5096
g56
(g65
g58
NtRp5097
(dp5098
g61
(dp5099
g69
I4
ssg70
Nsg63
(lp5100
g56
(g72
g58
NtRp5101
(dp5102
g61
(dp5103
sg70
g5097
sg63
(lp5104
g56
(g77
g58
NtRp5105
(dp5106
g61
(dp5107
sg70
g5101
sg63
(lp5108
g56
(g57
g58
NtRp5109
(dp5110
g61
(dp5111
g69
I4
ssg70
g5105
sg63
(lp5112
g56
(g65
g58
NtRp5113
(dp5114
g61
(dp5115
g69
I3
ssg70
Nsg63
(lp5116
g56
(g72
g58
NtRp5117
(dp5118
g61
(dp5119
sg70
g5113
sg63
(lp5120
g56
(g77
g58
NtRp5121
(dp5122
g61
(dp5123
sg70
g5117
sg63
(lp5124
g56
(g57
g58
NtRp5125
(dp5126
g61
(dp5127
g69
I3
ssg70
g5121
sg63
(lp5128
cgluon.languages
lazyT_unpickle
p5129
(S's\x04\x00\x00\x00Home'
tRp5130
asbasbasbag56
(g72
g58
NtRp5131
(dp5132
g61
(dp5133
sg70
g5113
sg63
(lp5134
g56
(g77
g58
NtRp5135
(dp5136
g61
(dp5137
sg70
g5131
sg63
(lp5138
g56
(g57
g58
NtRp5139
(dp5140
g61
(dp5141
g69
I3
ssg70
g5135
sg63
(lp5142
g99
asbasbasbag56
(g72
g58
NtRp5143
(dp5144
g61
(dp5145
sg70
g5113
sg63
(lp5146
g56
(g77
g58
NtRp5147
(dp5148
g61
(dp5149
sg70
g5143
sg63
(lp5150
g56
(g57
g58
NtRp5151
(dp5152
g61
(dp5153
g69
I3
ssg70
g5147
sg63
(lp5154
S'/rdcdss/default/index'
p5155
asbasbasbag56
(g72
g58
NtRp5156
(dp5157
g61
(dp5158
sg70
g5113
sg63
(lp5159
g56
(g77
g58
NtRp5160
(dp5161
g61
(dp5162
sg70
g5156
sg63
(lp5163
g56
(g57
g58
NtRp5164
(dp5165
g61
(dp5166
g69
I3
ssg70
g5160
sg63
(lp5167
g56
(g65
g58
NtRp5168
(dp5169
g61
(dp5170
g69
I2
ssg70
Nsg63
(lp5171
sbasbasbasbasbasbasbasbag56
(g72
g58
NtRp5172
(dp5173
g61
(dp5174
sg70
g5097
sg63
(lp5175
g56
(g77
g58
NtRp5176
(dp5177
g61
(dp5178
sg70
g5172
sg63
(lp5179
g56
(g57
g58
NtRp5180
(dp5181
g61
(dp5182
g69
I4
ssg70
g5176
sg63
(lp5183
g56
(g65
g58
NtRp5184
(dp5185
g61
(dp5186
g69
I3
ssg70
Nsg63
(lp5187
g56
(g72
g58
NtRp5188
(dp5189
g61
(dp5190
sg70
g5184
sg63
(lp5191
g56
(g77
g58
NtRp5192
(dp5193
g61
(dp5194
sg70
g5188
sg63
(lp5195
g56
(g57
g58
NtRp5196
(dp5197
g61
(dp5198
g69
I3
ssg70
g5192
sg63
(lp5199
g5129
(S's\x08\x00\x00\x00This App'
tRp5200
asbasbasbag56
(g72
g58
NtRp5201
(dp5202
g61
(dp5203
sg70
g5184
sg63
(lp5204
g56
(g77
g58
NtRp5205
(dp5206
g61
(dp5207
sg70
g5201
sg63
(lp5208
g56
(g57
g58
NtRp5209
(dp5210
g61
(dp5211
g69
I3
ssg70
g5205
sg63
(lp5212
g99
asbasbasbag56
(g72
g58
NtRp5213
(dp5214
g61
(dp5215
sg70
g5184
sg63
(lp5216
g56
(g77
g58
NtRp5217
(dp5218
g61
(dp5219
sg70
g5213
sg63
(lp5220
g56
(g57
g58
NtRp5221
(dp5222
g61
(dp5223
g69
I3
ssg70
g5217
sg63
(lp5224
S'/admin/default/design/rdcdss'
p5225
asbasbasbag56
(g72
g58
NtRp5226
(dp5227
g61
(dp5228
sg70
g5184
sg63
(lp5229
g56
(g77
g58
NtRp5230
(dp5231
g61
(dp5232
sg70
g5226
sg63
(lp5233
g56
(g57
g58
NtRp5234
(dp5235
g61
(dp5236
g69
I3
ssg70
g5230
sg63
(lp5237
g56
(g65
g58
NtRp5238
(dp5239
g61
(dp5240
g69
I2
ssg70
Nsg63
(lp5241
g56
(g72
g58
NtRp5242
(dp5243
g61
(dp5244
sg70
g5238
sg63
(lp5245
g56
(g77
g58
NtRp5246
(dp5247
g61
(dp5248
sg70
g5242
sg63
(lp5249
g56
(g57
g58
NtRp5250
(dp5251
g61
(dp5252
g69
I2
ssg70
g5246
sg63
(lp5253
g56
(g65
g58
NtRp5254
(dp5255
g61
(dp5256
g69
I1
ssg70
Nsg63
(lp5257
g56
(g72
g58
NtRp5258
(dp5259
g61
(dp5260
sg70
g5254
sg63
(lp5261
g56
(g77
g58
NtRp5262
(dp5263
g61
(dp5264
sg70
g5258
sg63
(lp5265
g56
(g57
g58
NtRp5266
(dp5267
g61
(dp5268
g69
I1
ssg70
g5262
sg63
(lp5269
g5129
(S's\n\x00\x00\x00Controller'
tRp5270
asbasbasbag56
(g72
g58
NtRp5271
(dp5272
g61
(dp5273
sg70
g5254
sg63
(lp5274
g56
(g77
g58
NtRp5275
(dp5276
g61
(dp5277
sg70
g5271
sg63
(lp5278
g56
(g57
g58
NtRp5279
(dp5280
g61
(dp5281
g69
I1
ssg70
g5275
sg63
(lp5282
I00
asbasbasbag56
(g72
g58
NtRp5283
(dp5284
g61
(dp5285
sg70
g5254
sg63
(lp5286
g56
(g77
g58
NtRp5287
(dp5288
g61
(dp5289
sg70
g5283
sg63
(lp5290
g56
(g57
g58
NtRp5291
(dp5292
g61
(dp5293
g69
I1
ssg70
g5287
sg63
(lp5294
S'/admin/default/edit/rdcdss/controllers/default.py'
p5295
asbasbasbasbasbasbasbag56
(g72
g58
NtRp5296
(dp5297
g61
(dp5298
sg70
g5238
sg63
(lp5299
g56
(g77
g58
NtRp5300
(dp5301
g61
(dp5302
sg70
g5296
sg63
(lp5303
g56
(g57
g58
NtRp5304
(dp5305
g61
(dp5306
g69
I2
ssg70
g5300
sg63
(lp5307
g56
(g65
g58
NtRp5308
(dp5309
g61
(dp5310
g69
I1
ssg70
Nsg63
(lp5311
g56
(g72
g58
NtRp5312
(dp5313
g61
(dp5314
sg70
g5308
sg63
(lp5315
g56
(g77
g58
NtRp5316
(dp5317
g61
(dp5318
sg70
g5312
sg63
(lp5319
g56
(g57
g58
NtRp5320
(dp5321
g61
(dp5322
g69
I1
ssg70
g5316
sg63
(lp5323
g5129
(S's\x04\x00\x00\x00View'
tRp5324
asbasbasbag56
(g72
g58
NtRp5325
(dp5326
g61
(dp5327
sg70
g5308
sg63
(lp5328
g56
(g77
g58
NtRp5329
(dp5330
g61
(dp5331
sg70
g5325
sg63
(lp5332
g56
(g57
g58
NtRp5333
(dp5334
g61
(dp5335
g69
I1
ssg70
g5329
sg63
(lp5336
I00
asbasbasbag56
(g72
g58
NtRp5337
(dp5338
g61
(dp5339
sg70
g5308
sg63
(lp5340
g56
(g77
g58
NtRp5341
(dp5342
g61
(dp5343
sg70
g5337
sg63
(lp5344
g56
(g57
g58
NtRp5345
(dp5346
g61
(dp5347
g69
I1
ssg70
g5341
sg63
(lp5348
S'/admin/default/edit/rdcdss/views/default/index.pdf'
p5349
asbasbasbasbasbasbasbag56
(g72
g58
NtRp5350
(dp5351
g61
(dp5352
sg70
g5238
sg63
(lp5353
g56
(g77
g58
NtRp5354
(dp5355
g61
(dp5356
sg70
g5350
sg63
(lp5357
g56
(g57
g58
NtRp5358
(dp5359
g61
(dp5360
g69
I2
ssg70
g5354
sg63
(lp5361
g56
(g65
g58
NtRp5362
(dp5363
g61
(dp5364
g69
I1
ssg70
Nsg63
(lp5365
g56
(g72
g58
NtRp5366
(dp5367
g61
(dp5368
sg70
g5362
sg63
(lp5369
g56
(g77
g58
NtRp5370
(dp5371
g61
(dp5372
sg70
g5366
sg63
(lp5373
g56
(g57
g58
NtRp5374
(dp5375
g61
(dp5376
g69
I1
ssg70
g5370
sg63
(lp5377
g5129
(S's\x06\x00\x00\x00Layout'
tRp5378
asbasbasbag56
(g72
g58
NtRp5379
(dp5380
g61
(dp5381
sg70
g5362
sg63
(lp5382
g56
(g77
g58
NtRp5383
(dp5384
g61
(dp5385
sg70
g5379
sg63
(lp5386
g56
(g57
g58
NtRp5387
(dp5388
g61
(dp5389
g69
I1
ssg70
g5383
sg63
(lp5390
I00
asbasbasbag56
(g72
g58
NtRp5391
(dp5392
g61
(dp5393
sg70
g5362
sg63
(lp5394
g56
(g77
g58
NtRp5395
(dp5396
g61
(dp5397
sg70
g5391
sg63
(lp5398
g56
(g57
g58
NtRp5399
(dp5400
g61
(dp5401
g69
I1
ssg70
g5395
sg63
(lp5402
S'/admin/default/edit/rdcdss/views/layout.html'
p5403
asbasbasbasbasbasbasbag56
(g72
g58
NtRp5404
(dp5405
g61
(dp5406
sg70
g5238
sg63
(lp5407
g56
(g77
g58
NtRp5408
(dp5409
g61
(dp5410
sg70
g5404
sg63
(lp5411
g56
(g57
g58
NtRp5412
(dp5413
g61
(dp5414
g69
I2
ssg70
g5408
sg63
(lp5415
g56
(g65
g58
NtRp5416
(dp5417
g61
(dp5418
g69
I1
ssg70
Nsg63
(lp5419
g56
(g72
g58
NtRp5420
(dp5421
g61
(dp5422
sg70
g5416
sg63
(lp5423
g56
(g77
g58
NtRp5424
(dp5425
g61
(dp5426
sg70
g5420
sg63
(lp5427
g56
(g57
g58
NtRp5428
(dp5429
g61
(dp5430
g69
I1
ssg70
g5424
sg63
(lp5431
g5129
(S's\n\x00\x00\x00Stylesheet'
tRp5432
asbasbasbag56
(g72
g58
NtRp5433
(dp5434
g61
(dp5435
sg70
g5416
sg63
(lp5436
g56
(g77
g58
NtRp5437
(dp5438
g61
(dp5439
sg70
g5433
sg63
(lp5440
g56
(g57
g58
NtRp5441
(dp5442
g61
(dp5443
g69
I1
ssg70
g5437
sg63
(lp5444
I00
asbasbasbag56
(g72
g58
NtRp5445
(dp5446
g61
(dp5447
sg70
g5416
sg63
(lp5448
g56
(g77
g58
NtRp5449
(dp5450
g61
(dp5451
sg70
g5445
sg63
(lp5452
g56
(g57
g58
NtRp5453
(dp5454
g61
(dp5455
g69
I1
ssg70
g5449
sg63
(lp5456
S'/admin/default/edit/rdcdss/static/base.css'
p5457
asbasbasbasbasbasbasbag56
(g72
g58
NtRp5458
(dp5459
g61
(dp5460
sg70
g5238
sg63
(lp5461
g56
(g77
g58
NtRp5462
(dp5463
g61
(dp5464
sg70
g5458
sg63
(lp5465
g56
(g57
g58
NtRp5466
(dp5467
g61
(dp5468
g69
I2
ssg70
g5462
sg63
(lp5469
g56
(g65
g58
NtRp5470
(dp5471
g61
(dp5472
g69
I1
ssg70
Nsg63
(lp5473
g56
(g72
g58
NtRp5474
(dp5475
g61
(dp5476
sg70
g5470
sg63
(lp5477
g56
(g77
g58
NtRp5478
(dp5479
g61
(dp5480
sg70
g5474
sg63
(lp5481
g56
(g57
g58
NtRp5482
(dp5483
g61
(dp5484
g69
I1
ssg70
g5478
sg63
(lp5485
g5129
(S's\x08\x00\x00\x00DB Model'
tRp5486
asbasbasbag56
(g72
g58
NtRp5487
(dp5488
g61
(dp5489
sg70
g5470
sg63
(lp5490
g56
(g77
g58
NtRp5491
(dp5492
g61
(dp5493
sg70
g5487
sg63
(lp5494
g56
(g57
g58
NtRp5495
(dp5496
g61
(dp5497
g69
I1
ssg70
g5491
sg63
(lp5498
I00
asbasbasbag56
(g72
g58
NtRp5499
(dp5500
g61
(dp5501
sg70
g5470
sg63
(lp5502
g56
(g77
g58
NtRp5503
(dp5504
g61
(dp5505
sg70
g5499
sg63
(lp5506
g56
(g57
g58
NtRp5507
(dp5508
g61
(dp5509
g69
I1
ssg70
g5503
sg63
(lp5510
S'/admin/default/edit/rdcdss/models/db.py'
p5511
asbasbasbasbasbasbasbag56
(g72
g58
NtRp5512
(dp5513
g61
(dp5514
sg70
g5238
sg63
(lp5515
g56
(g77
g58
NtRp5516
(dp5517
g61
(dp5518
sg70
g5512
sg63
(lp5519
g56
(g57
g58
NtRp5520
(dp5521
g61
(dp5522
g69
I2
ssg70
g5516
sg63
(lp5523
g56
(g65
g58
NtRp5524
(dp5525
g61
(dp5526
g69
I1
ssg70
Nsg63
(lp5527
g56
(g72
g58
NtRp5528
(dp5529
g61
(dp5530
sg70
g5524
sg63
(lp5531
g56
(g77
g58
NtRp5532
(dp5533
g61
(dp5534
sg70
g5528
sg63
(lp5535
g56
(g57
g58
NtRp5536
(dp5537
g61
(dp5538
g69
I1
ssg70
g5532
sg63
(lp5539
g5129
(S's\n\x00\x00\x00Menu Model'
tRp5540
asbasbasbag56
(g72
g58
NtRp5541
(dp5542
g61
(dp5543
sg70
g5524
sg63
(lp5544
g56
(g77
g58
NtRp5545
(dp5546
g61
(dp5547
sg70
g5541
sg63
(lp5548
g56
(g57
g58
NtRp5549
(dp5550
g61
(dp5551
g69
I1
ssg70
g5545
sg63
(lp5552
I00
asbasbasbag56
(g72
g58
NtRp5553
(dp5554
g61
(dp5555
sg70
g5524
sg63
(lp5556
g56
(g77
g58
NtRp5557
(dp5558
g61
(dp5559
sg70
g5553
sg63
(lp5560
g56
(g57
g58
NtRp5561
(dp5562
g61
(dp5563
g69
I1
ssg70
g5557
sg63
(lp5564
S'/admin/default/edit/rdcdss/models/menu.py'
p5565
asbasbasbasbasbasbasbag56
(g72
g58
NtRp5566
(dp5567
g61
(dp5568
sg70
g5238
sg63
(lp5569
g56
(g77
g58
NtRp5570
(dp5571
g61
(dp5572
sg70
g5566
sg63
(lp5573
g56
(g57
g58
NtRp5574
(dp5575
g61
(dp5576
g69
I2
ssg70
g5570
sg63
(lp5577
g56
(g65
g58
NtRp5578
(dp5579
g61
(dp5580
g69
I1
ssg70
Nsg63
(lp5581
g56
(g72
g58
NtRp5582
(dp5583
g61
(dp5584
sg70
g5578
sg63
(lp5585
g56
(g77
g58
NtRp5586
(dp5587
g61
(dp5588
sg70
g5582
sg63
(lp5589
g56
(g57
g58
NtRp5590
(dp5591
g61
(dp5592
g69
I1
ssg70
g5586
sg63
(lp5593
g5129
(S's\x08\x00\x00\x00Database'
tRp5594
asbasbasbag56
(g72
g58
NtRp5595
(dp5596
g61
(dp5597
sg70
g5578
sg63
(lp5598
g56
(g77
g58
NtRp5599
(dp5600
g61
(dp5601
sg70
g5595
sg63
(lp5602
g56
(g57
g58
NtRp5603
(dp5604
g61
(dp5605
g69
I1
ssg70
g5599
sg63
(lp5606
I00
asbasbasbag56
(g72
g58
NtRp5607
(dp5608
g61
(dp5609
sg70
g5578
sg63
(lp5610
g56
(g77
g58
NtRp5611
(dp5612
g61
(dp5613
sg70
g5607
sg63
(lp5614
g56
(g57
g58
NtRp5615
(dp5616
g61
(dp5617
g69
I1
ssg70
g5611
sg63
(lp5618
S'/rdcdss/appadmin/index'
p5619
asbasbasbasbasbasbasbag56
(g72
g58
NtRp5620
(dp5621
g61
(dp5622
sg70
g5238
sg63
(lp5623
g56
(g77
g58
NtRp5624
(dp5625
g61
(dp5626
sg70
g5620
sg63
(lp5627
g56
(g57
g58
NtRp5628
(dp5629
g61
(dp5630
g69
I2
ssg70
g5624
sg63
(lp5631
g56
(g65
g58
NtRp5632
(dp5633
g61
(dp5634
g69
I1
ssg70
Nsg63
(lp5635
g56
(g72
g58
NtRp5636
(dp5637
g61
(dp5638
sg70
g5632
sg63
(lp5639
g56
(g77
g58
NtRp5640
(dp5641
g61
(dp5642
sg70
g5636
sg63
(lp5643
g56
(g57
g58
NtRp5644
(dp5645
g61
(dp5646
g69
I1
ssg70
g5640
sg63
(lp5647
g5129
(S's\x06\x00\x00\x00Errors'
tRp5648
asbasbasbag56
(g72
g58
NtRp5649
(dp5650
g61
(dp5651
sg70
g5632
sg63
(lp5652
g56
(g77
g58
NtRp5653
(dp5654
g61
(dp5655
sg70
g5649
sg63
(lp5656
g56
(g57
g58
NtRp5657
(dp5658
g61
(dp5659
g69
I1
ssg70
g5653
sg63
(lp5660
I00
asbasbasbag56
(g72
g58
NtRp5661
(dp5662
g61
(dp5663
sg70
g5632
sg63
(lp5664
g56
(g77
g58
NtRp5665
(dp5666
g61
(dp5667
sg70
g5661
sg63
(lp5668
g56
(g57
g58
NtRp5669
(dp5670
g61
(dp5671
g69
I1
ssg70
g5665
sg63
(lp5672
S'/admin/default/errors/rdcdss'
p5673
asbasbasbasbasbasbasbag56
(g72
g58
NtRp5674
(dp5675
g61
(dp5676
sg70
g5238
sg63
(lp5677
g56
(g77
g58
NtRp5678
(dp5679
g61
(dp5680
sg70
g5674
sg63
(lp5681
g56
(g57
g58
NtRp5682
(dp5683
g61
(dp5684
g69
I2
ssg70
g5678
sg63
(lp5685
g56
(g65
g58
NtRp5686
(dp5687
g61
(dp5688
g69
I1
ssg70
Nsg63
(lp5689
g56
(g72
g58
NtRp5690
(dp5691
g61
(dp5692
sg70
g5686
sg63
(lp5693
g56
(g77
g58
NtRp5694
(dp5695
g61
(dp5696
sg70
g5690
sg63
(lp5697
g56
(g57
g58
NtRp5698
(dp5699
g61
(dp5700
g69
I1
ssg70
g5694
sg63
(lp5701
g5129
(S's\x05\x00\x00\x00About'
tRp5702
asbasbasbag56
(g72
g58
NtRp5703
(dp5704
g61
(dp5705
sg70
g5686
sg63
(lp5706
g56
(g77
g58
NtRp5707
(dp5708
g61
(dp5709
sg70
g5703
sg63
(lp5710
g56
(g57
g58
NtRp5711
(dp5712
g61
(dp5713
g69
I1
ssg70
g5707
sg63
(lp5714
I00
asbasbasbag56
(g72
g58
NtRp5715
(dp5716
g61
(dp5717
sg70
g5686
sg63
(lp5718
g56
(g77
g58
NtRp5719
(dp5720
g61
(dp5721
sg70
g5715
sg63
(lp5722
g56
(g57
g58
NtRp5723
(dp5724
g61
(dp5725
g69
I1
ssg70
g5719
sg63
(lp5726
S'/admin/default/about/rdcdss'
p5727
asbasbasbasbasbasbasbasbasbasbasbasbasbasbasbag56
(g72
g58
NtRp5728
(dp5729
g61
(dp5730
sg70
g5097
sg63
(lp5731
g56
(g77
g58
NtRp5732
(dp5733
g61
(dp5734
sg70
g5728
sg63
(lp5735
g56
(g57
g58
NtRp5736
(dp5737
g61
(dp5738
g69
I4
ssg70
g5732
sg63
(lp5739
g56
(g65
g58
NtRp5740
(dp5741
g61
(dp5742
g69
I3
ssg70
Nsg63
(lp5743
g56
(g72
g58
NtRp5744
(dp5745
g61
(dp5746
sg70
g5740
sg63
(lp5747
g56
(g77
g58
NtRp5748
(dp5749
g61
(dp5750
sg70
g5744
sg63
(lp5751
g56
(g57
g58
NtRp5752
(dp5753
g61
(dp5754
g69
I3
ssg70
g5748
sg63
(lp5755
g5129
(S's\t\x00\x00\x00Resources'
tRp5756
asbasbasbag56
(g72
g58
NtRp5757
(dp5758
g61
(dp5759
sg70
g5740
sg63
(lp5760
g56
(g77
g58
NtRp5761
(dp5762
g61
(dp5763
sg70
g5757
sg63
(lp5764
g56
(g57
g58
NtRp5765
(dp5766
g61
(dp5767
g69
I3
ssg70
g5761
sg63
(lp5768
g99
asbasbasbag56
(g72
g58
NtRp5769
(dp5770
g61
(dp5771
sg70
g5740
sg63
(lp5772
g56
(g77
g58
NtRp5773
(dp5774
g61
(dp5775
sg70
g5769
sg63
(lp5776
g56
(g57
g58
NtRp5777
(dp5778
g61
(dp5779
g69
I3
ssg70
g5773
sg63
(lp5780
S'None'
p5781
asbasbasbag56
(g72
g58
NtRp5782
(dp5783
g61
(dp5784
sg70
g5740
sg63
(lp5785
g56
(g77
g58
NtRp5786
(dp5787
g61
(dp5788
sg70
g5782
sg63
(lp5789
g56
(g57
g58
NtRp5790
(dp5791
g61
(dp5792
g69
I3
ssg70
g5786
sg63
(lp5793
g56
(g65
g58
NtRp5794
(dp5795
g61
(dp5796
g69
I2
ssg70
Nsg63
(lp5797
g56
(g72
g58
NtRp5798
(dp5799
g61
(dp5800
sg70
g5794
sg63
(lp5801
g56
(g77
g58
NtRp5802
(dp5803
g61
(dp5804
sg70
g5798
sg63
(lp5805
g56
(g57
g58
NtRp5806
(dp5807
g61
(dp5808
g69
I2
ssg70
g5802
sg63
(lp5809
g56
(g65
g58
NtRp5810
(dp5811
g61
(dp5812
g69
I1
ssg70
Nsg63
(lp5813
g56
(g72
g58
NtRp5814
(dp5815
g61
(dp5816
sg70
g5810
sg63
(lp5817
g56
(g77
g58
NtRp5818
(dp5819
g61
(dp5820
sg70
g5814
sg63
(lp5821
g56
(g57
g58
NtRp5822
(dp5823
g61
(dp5824
g69
I1
ssg70
g5818
sg63
(lp5825
g5129
(S's\r\x00\x00\x00Documentation'
tRp5826
asbasbasbag56
(g72
g58
NtRp5827
(dp5828
g61
(dp5829
sg70
g5810
sg63
(lp5830
g56
(g77
g58
NtRp5831
(dp5832
g61
(dp5833
sg70
g5827
sg63
(lp5834
g56
(g57
g58
NtRp5835
(dp5836
g61
(dp5837
g69
I1
ssg70
g5831
sg63
(lp5838
I00
asbasbasbag56
(g72
g58
NtRp5839
(dp5840
g61
(dp5841
sg70
g5810
sg63
(lp5842
g56
(g77
g58
NtRp5843
(dp5844
g61
(dp5845
sg70
g5839
sg63
(lp5846
g56
(g57
g58
NtRp5847
(dp5848
g61
(dp5849
g69
I1
ssg70
g5843
sg63
(lp5850
S'http://www.web2py.com/book'
p5851
asbasbasbag56
(g72
g58
NtRp5852
(dp5853
g61
(dp5854
sg70
g5810
sg63
(lp5855
g56
(g77
g58
NtRp5856
(dp5857
g61
(dp5858
sg70
g5852
sg63
(lp5859
g56
(g57
g58
NtRp5860
(dp5861
g61
(dp5862
g69
I1
ssg70
g5856
sg63
(lp5863
(lp5864
(g5129
(S's\x07\x00\x00\x00Preface'
tRp5865
I00
S'http://www.web2py.com/book/default/chapter/00'
tp5866
a(g5129
(S's\x0c\x00\x00\x00Introduction'
tRp5867
I00
S'http://www.web2py.com/book/default/chapter/01'
tp5868
a(g5129
(S's\x06\x00\x00\x00Python'
tRp5869
I00
S'http://www.web2py.com/book/default/chapter/02'
tp5870
a(g5129
(S's\x08\x00\x00\x00Overview'
tRp5871
I00
S'http://www.web2py.com/book/default/chapter/03'
tp5872
a(g5129
(S's\x08\x00\x00\x00The Core'
tRp5873
I00
S'http://www.web2py.com/book/default/chapter/04'
tp5874
a(g5129
(S's\t\x00\x00\x00The Views'
tRp5875
I00
S'http://www.web2py.com/book/default/chapter/05'
tp5876
a(g5129
(S's\x08\x00\x00\x00Database'
tRp5877
I00
S'http://www.web2py.com/book/default/chapter/06'
tp5878
a(g5129
(S's\x14\x00\x00\x00Forms and Validators'
tRp5879
I00
S'http://www.web2py.com/book/default/chapter/07'
tp5880
a(g5129
(S's\x0e\x00\x00\x00Access Control'
tRp5881
I00
S'http://www.web2py.com/book/default/chapter/08'
tp5882
a(g5129
(S's\x08\x00\x00\x00Services'
tRp5883
I00
S'http://www.web2py.com/book/default/chapter/09'
tp5884
a(g5129
(S's\x0c\x00\x00\x00Ajax Recipes'
tRp5885
I00
S'http://www.web2py.com/book/default/chapter/10'
tp5886
a(g5129
(S's\x12\x00\x00\x00Deployment Recipes'
tRp5887
I00
S'http://www.web2py.com/book/default/chapter/11'
tp5888
a(g5129
(S's\r\x00\x00\x00Other Recipes'
tRp5889
I00
S'http://www.web2py.com/book/default/chapter/12'
tp5890
a(g5129
(S's\r\x00\x00\x00Buy this book'
tRp5891
I00
S'http://stores.lulu.com/web2py'
tp5892
aasbasbasbasbasbasbasbag56
(g72
g58
NtRp5893
(dp5894
g61
(dp5895
sg70
g5794
sg63
(lp5896
g56
(g77
g58
NtRp5897
(dp5898
g61
(dp5899
sg70
g5893
sg63
(lp5900
g56
(g57
g58
NtRp5901
(dp5902
g61
(dp5903
g69
I2
ssg70
g5897
sg63
(lp5904
g56
(g65
g58
NtRp5905
(dp5906
g61
(dp5907
g69
I1
ssg70
Nsg63
(lp5908
g56
(g72
g58
NtRp5909
(dp5910
g61
(dp5911
sg70
g5905
sg63
(lp5912
g56
(g77
g58
NtRp5913
(dp5914
g61
(dp5915
sg70
g5909
sg63
(lp5916
g56
(g57
g58
NtRp5917
(dp5918
g61
(dp5919
g69
I1
ssg70
g5913
sg63
(lp5920
g5129
(S's\t\x00\x00\x00Community'
tRp5921
asbasbasbag56
(g72
g58
NtRp5922
(dp5923
g61
(dp5924
sg70
g5905
sg63
(lp5925
g56
(g77
g58
NtRp5926
(dp5927
g61
(dp5928
sg70
g5922
sg63
(lp5929
g56
(g57
g58
NtRp5930
(dp5931
g61
(dp5932
g69
I1
ssg70
g5926
sg63
(lp5933
I00
asbasbasbag56
(g72
g58
NtRp5934
(dp5935
g61
(dp5936
sg70
g5905
sg63
(lp5937
g56
(g77
g58
NtRp5938
(dp5939
g61
(dp5940
sg70
g5934
sg63
(lp5941
g56
(g57
g58
NtRp5942
(dp5943
g61
(dp5944
g69
I1
ssg70
g5938
sg63
(lp5945
Nasbasbasbag56
(g72
g58
NtRp5946
(dp5947
g61
(dp5948
sg70
g5905
sg63
(lp5949
g56
(g77
g58
NtRp5950
(dp5951
g61
(dp5952
sg70
g5946
sg63
(lp5953
g56
(g57
g58
NtRp5954
(dp5955
g61
(dp5956
g69
I1
ssg70
g5950
sg63
(lp5957
(lp5958
(g5129
(S's\x06\x00\x00\x00Groups'
tRp5959
I00
S'http://www.web2py.com/examples/default/usergroups'
tp5960
a(g5129
(S's\x07\x00\x00\x00Twitter'
tRp5961
I00
S'http://twitter.com/web2py'
tp5962
a(g5129
(S's\t\x00\x00\x00Live chat'
tRp5963
I00
S'http://mibbit.com/?channel=%23web2py&server=irc.mibbit.net'
tp5964
a(g5129
(S's\n\x00\x00\x00User Voice'
tRp5965
I00
S'http://web2py.uservoice.com/'
tp5966
aasbasbasbasbasbasbasbag56
(g72
g58
NtRp5967
(dp5968
g61
(dp5969
sg70
g5794
sg63
(lp5970
g56
(g77
g58
NtRp5971
(dp5972
g61
(dp5973
sg70
g5967
sg63
(lp5974
g56
(g57
g58
NtRp5975
(dp5976
g61
(dp5977
g69
I2
ssg70
g5971
sg63
(lp5978
g56
(g65
g58
NtRp5979
(dp5980
g61
(dp5981
g69
I1
ssg70
Nsg63
(lp5982
g56
(g72
g58
NtRp5983
(dp5984
g61
(dp5985
sg70
g5979
sg63
(lp5986
g56
(g77
g58
NtRp5987
(dp5988
g61
(dp5989
sg70
g5983
sg63
(lp5990
g56
(g57
g58
NtRp5991
(dp5992
g61
(dp5993
g69
I1
ssg70
g5987
sg63
(lp5994
g5129
(S's\x06\x00\x00\x00Web2py'
tRp5995
asbasbasbag56
(g72
g58
NtRp5996
(dp5997
g61
(dp5998
sg70
g5979
sg63
(lp5999
g56
(g77
g58
NtRp6000
(dp6001
g61
(dp6002
sg70
g5996
sg63
(lp6003
g56
(g57
g58
NtRp6004
(dp6005
g61
(dp6006
g69
I1
ssg70
g6000
sg63
(lp6007
I00
asbasbasbag56
(g72
g58
NtRp6008
(dp6009
g61
(dp6010
sg70
g5979
sg63
(lp6011
g56
(g77
g58
NtRp6012
(dp6013
g61
(dp6014
sg70
g6008
sg63
(lp6015
g56
(g57
g58
NtRp6016
(dp6017
g61
(dp6018
g69
I1
ssg70
g6012
sg63
(lp6019
S'http://www.web2py.com'
p6020
asbasbasbag56
(g72
g58
NtRp6021
(dp6022
g61
(dp6023
sg70
g5979
sg63
(lp6024
g56
(g77
g58
NtRp6025
(dp6026
g61
(dp6027
sg70
g6021
sg63
(lp6028
g56
(g57
g58
NtRp6029
(dp6030
g61
(dp6031
g69
I1
ssg70
g6025
sg63
(lp6032
(lp6033
(g5129
(S's\x08\x00\x00\x00Download'
tRp6034
I00
S'http://www.web2py.com/examples/default/download'
tp6035
a(g5129
(S's\x07\x00\x00\x00Support'
tRp6036
I00
S'http://www.web2py.com/examples/default/support'
tp6037
a(g5129
(S's\x0e\x00\x00\x00Quick Examples'
tRp6038
I00
S'http://web2py.com/examples/default/examples'
tp6039
a(g5129
(S's\x03\x00\x00\x00FAQ'
tRp6040
I00
S'http://web2py.com/AlterEgo'
tp6041
a(g5129
(S's\x11\x00\x00\x00Free Applications'
tRp6042
I00
S'http://web2py.com/appliances'
tp6043
a(g5129
(S's\x07\x00\x00\x00Plugins'
tRp6044
I00
S'http://web2py.com/plugins'
tp6045
a(g5129
(S's\x07\x00\x00\x00Recipes'
tRp6046
I00
S'http://web2pyslices.com/'
tp6047
a(g5129
(S's\x04\x00\x00\x00Demo'
tRp6048
I00
S'http://web2py.com/demo_admin'
tp6049
a(g5129
(S's\x08\x00\x00\x00Semantic'
tRp6050
I00
S'http://web2py.com/semantic'
tp6051
a(g5129
(S's\x07\x00\x00\x00Layouts'
tRp6052
I00
S'http://web2py.com/layouts'
tp6053
a(g5129
(S's\x06\x00\x00\x00Videos'
tRp6054
I00
S'http://www.web2py.com/examples/default/videos/'
tp6055
aasbasbasbasbasbasbasbasbasbasbasbasbasbasbasbasbasbasbasbag56
(g72
g58
NtRp6056
(dp6057
g61
(dp6058
sg70
g4553
sg63
(lp6059
g56
(g77
g58
NtRp6060
(dp6061
g61
(dp6062
g81
g82
ssg70
g6056
sg63
(lp6063
S'meta'
p6064
asbag56
(g77
g58
NtRp6065
(dp6066
g61
(dp6067
g88
g89
ssg70
g6056
sg63
(lp6068
S':'
asbag56
(g77
g58
NtRp6069
(dp6070
g61
(dp6071
sg70
g6056
sg63
(lp6072
g56
(g57
g58
NtRp6073
(dp6074
g61
(dp6075
g69
I5
ssg70
g6069
sg63
(lp6076
g56
(g65
g58
NtRp6077
(dp6078
g61
(dp6079
g69
I4
ssg70
Nsg63
(lp6080
g56
(g72
g58
NtRp6081
(dp6082
g61
(dp6083
sg70
g6077
sg63
(lp6084
g56
(g77
g58
NtRp6085
(dp6086
g61
(dp6087
g81
g82
ssg70
g6081
sg63
(lp6088
S'author'
p6089
asbag56
(g77
g58
NtRp6090
(dp6091
g61
(dp6092
g88
g89
ssg70
g6081
sg63
(lp6093
S':'
asbag56
(g77
g58
NtRp6094
(dp6095
g61
(dp6096
sg70
g6081
sg63
(lp6097
g56
(g57
g58
NtRp6098
(dp6099
g61
(dp6100
g69
I4
ssg70
g6094
sg63
(lp6101
S'you'
p6102
asbasbasbag56
(g72
g58
NtRp6103
(dp6104
g61
(dp6105
sg70
g6077
sg63
(lp6106
g56
(g77
g58
NtRp6107
(dp6108
g61
(dp6109
g81
g82
ssg70
g6103
sg63
(lp6110
S'copyright'
p6111
asbag56
(g77
g58
NtRp6112
(dp6113
g61
(dp6114
g88
g89
ssg70
g6103
sg63
(lp6115
S':'
asbag56
(g77
g58
NtRp6116
(dp6117
g61
(dp6118
sg70
g6103
sg63
(lp6119
g56
(g57
g58
NtRp6120
(dp6121
g61
(dp6122
g69
I4
ssg70
g6116
sg63
(lp6123
S'Copyright 2007-2010'
p6124
asbasbasbag56
(g72
g58
NtRp6125
(dp6126
g61
(dp6127
sg70
g6077
sg63
(lp6128
g56
(g77
g58
NtRp6129
(dp6130
g61
(dp6131
g81
g82
ssg70
g6125
sg63
(lp6132
S'description'
p6133
asbag56
(g77
g58
NtRp6134
(dp6135
g61
(dp6136
g88
g89
ssg70
g6125
sg63
(lp6137
S':'
asbag56
(g77
g58
NtRp6138
(dp6139
g61
(dp6140
sg70
g6125
sg63
(lp6141
g56
(g57
g58
NtRp6142
(dp6143
g61
(dp6144
g69
I4
ssg70
g6138
sg63
(lp6145
S'Free and open source full-stack enterprise framework for agile development of fast, scalable, secure and portable database-driven web-based applications. Written and programmable in Python'
p6146
asbasbasbag56
(g72
g58
NtRp6147
(dp6148
g61
(dp6149
sg70
g6077
sg63
(lp6150
g56
(g77
g58
NtRp6151
(dp6152
g61
(dp6153
g81
g82
ssg70
g6147
sg63
(lp6154
S'generator'
p6155
asbag56
(g77
g58
NtRp6156
(dp6157
g61
(dp6158
g88
g89
ssg70
g6147
sg63
(lp6159
S':'
asbag56
(g77
g58
NtRp6160
(dp6161
g61
(dp6162
sg70
g6147
sg63
(lp6163
g56
(g57
g58
NtRp6164
(dp6165
g61
(dp6166
g69
I4
ssg70
g6160
sg63
(lp6167
S'Web2py Enterprise Framework'
p6168
asbasbasbag56
(g72
g58
NtRp6169
(dp6170
g61
(dp6171
sg70
g6077
sg63
(lp6172
g56
(g77
g58
NtRp6173
(dp6174
g61
(dp6175
g81
g82
ssg70
g6169
sg63
(lp6176
S'keywords'
p6177
asbag56
(g77
g58
NtRp6178
(dp6179
g61
(dp6180
g88
g89
ssg70
g6169
sg63
(lp6181
S':'
asbag56
(g77
g58
NtRp6182
(dp6183
g61
(dp6184
sg70
g6169
sg63
(lp6185
g56
(g57
g58
NtRp6186
(dp6187
g61
(dp6188
g69
I4
ssg70
g6182
sg63
(lp6189
S'web2py, python, framework'
p6190
asbasbasbasbasbasbasbag56
(g72
g58
NtRp6191
(dp6192
g61
(dp6193
sg70
g4553
sg63
(lp6194
g56
(g77
g58
NtRp6195
(dp6196
g61
(dp6197
g81
g82
ssg70
g6191
sg63
(lp6198
S'postprocessing'
p6199
asbag56
(g77
g58
NtRp6200
(dp6201
g61
(dp6202
g88
g89
ssg70
g6191
sg63
(lp6203
S':'
asbag56
(g77
g58
NtRp6204
(dp6205
g61
(dp6206
sg70
g6191
sg63
(lp6207
g56
(g57
g58
NtRp6208
(dp6209
g61
(dp6210
g69
I5
ssg70
g6204
sg63
(lp6211
g56
(g65
g58
NtRp6212
(dp6213
g61
(dp6214
g69
I4
ssg70
Nsg63
(lp6215
sbasbasbasbag56
(g72
g58
NtRp6216
(dp6217
g61
(dp6218
sg70
g4553
sg63
(lp6219
g56
(g77
g58
NtRp6220
(dp6221
g61
(dp6222
g81
g82
ssg70
g6216
sg63
(lp6223
S'session_file'
p6224
asbag56
(g77
g58
NtRp6225
(dp6226
g61
(dp6227
g88
g89
ssg70
g6216
sg63
(lp6228
S':'
asbag56
(g77
g58
NtRp6229
(dp6230
g61
(dp6231
sg70
g6216
sg63
(lp6232
g56
(g57
g58
NtRp6233
(dp6234
g61
(dp6235
g69
I5
ssg70
g6229
sg63
(lp6236
S"<open file '/home/www-data/web2py/applications/rdcdss/sessions/89.123.2.193-4e1de357-5b7c-4409-92bc-12a58f0742b6', mode 'rb+' at 0x2b9bd974e5d0>"
p6237
asbasbasbag56
(g72
g58
NtRp6238
(dp6239
g61
(dp6240
sg70
g4553
sg63
(lp6241
g56
(g77
g58
NtRp6242
(dp6243
g61
(dp6244
g81
g82
ssg70
g6238
sg63
(lp6245
S'session_filename'
p6246
asbag56
(g77
g58
NtRp6247
(dp6248
g61
(dp6249
g88
g89
ssg70
g6238
sg63
(lp6250
S':'
asbag56
(g77
g58
NtRp6251
(dp6252
g61
(dp6253
sg70
g6238
sg63
(lp6254
g56
(g57
g58
NtRp6255
(dp6256
g61
(dp6257
g69
I5
ssg70
g6251
sg63
(lp6258
S'/home/www-data/web2py/applications/rdcdss/sessions/89.123.2.193-4e1de357-5b7c-4409-92bc-12a58f0742b6'
p6259
asbasbasbag56
(g72
g58
NtRp6260
(dp6261
g61
(dp6262
sg70
g4553
sg63
(lp6263
g56
(g77
g58
NtRp6264
(dp6265
g61
(dp6266
g81
g82
ssg70
g6260
sg63
(lp6267
S'session_id'
p6268
asbag56
(g77
g58
NtRp6269
(dp6270
g61
(dp6271
g88
g89
ssg70
g6260
sg63
(lp6272
S':'
asbag56
(g77
g58
NtRp6273
(dp6274
g61
(dp6275
sg70
g6260
sg63
(lp6276
g56
(g57
g58
NtRp6277
(dp6278
g61
(dp6279
g69
I5
ssg70
g6273
sg63
(lp6280
S'89.123.2.193-4e1de357-5b7c-4409-92bc-12a58f0742b6'
p6281
asbasbasbag56
(g72
g58
NtRp6282
(dp6283
g61
(dp6284
sg70
g4553
sg63
(lp6285
g56
(g77
g58
NtRp6286
(dp6287
g61
(dp6288
g81
g82
ssg70
g6282
sg63
(lp6289
S'session_id_name'
p6290
asbag56
(g77
g58
NtRp6291
(dp6292
g61
(dp6293
g88
g89
ssg70
g6282
sg63
(lp6294
S':'
asbag56
(g77
g58
NtRp6295
(dp6296
g61
(dp6297
sg70
g6282
sg63
(lp6298
g56
(g57
g58
NtRp6299
(dp6300
g61
(dp6301
g69
I5
ssg70
g6295
sg63
(lp6302
g4610
asbasbasbag56
(g72
g58
NtRp6303
(dp6304
g61
(dp6305
sg70
g4553
sg63
(lp6306
g56
(g77
g58
NtRp6307
(dp6308
g61
(dp6309
g81
g82
ssg70
g6303
sg63
(lp6310
S'session_locked'
p6311
asbag56
(g77
g58
NtRp6312
(dp6313
g61
(dp6314
g88
g89
ssg70
g6303
sg63
(lp6315
S':'
asbag56
(g77
g58
NtRp6316
(dp6317
g61
(dp6318
sg70
g6303
sg63
(lp6319
g56
(g57
g58
NtRp6320
(dp6321
g61
(dp6322
g69
I5
ssg70
g6316
sg63
(lp6323
g1755
asbasbasbag56
(g72
g58
NtRp6324
(dp6325
g61
(dp6326
sg70
g4553
sg63
(lp6327
g56
(g77
g58
NtRp6328
(dp6329
g61
(dp6330
g81
g82
ssg70
g6324
sg63
(lp6331
S'session_new'
p6332
asbag56
(g77
g58
NtRp6333
(dp6334
g61
(dp6335
g88
g89
ssg70
g6324
sg63
(lp6336
S':'
asbag56
(g77
g58
NtRp6337
(dp6338
g61
(dp6339
sg70
g6324
sg63
(lp6340
g56
(g57
g58
NtRp6341
(dp6342
g61
(dp6343
g69
I5
ssg70
g6337
sg63
(lp6344
g99
asbasbasbag56
(g72
g58
NtRp6345
(dp6346
g61
(dp6347
sg70
g4553
sg63
(lp6348
g56
(g77
g58
NtRp6349
(dp6350
g61
(dp6351
g81
g82
ssg70
g6345
sg63
(lp6352
S'status'
p6353
asbag56
(g77
g58
NtRp6354
(dp6355
g61
(dp6356
g88
g89
ssg70
g6345
sg63
(lp6357
S':'
asbag56
(g77
g58
NtRp6358
(dp6359
g61
(dp6360
sg70
g6345
sg63
(lp6361
g56
(g57
g58
NtRp6362
(dp6363
g61
(dp6364
g69
I5
ssg70
g6358
sg63
(lp6365
S'200'
p6366
asbasbasbag56
(g72
g58
NtRp6367
(dp6368
g61
(dp6369
sg70
g4553
sg63
(lp6370
g56
(g77
g58
NtRp6371
(dp6372
g61
(dp6373
g81
g82
ssg70
g6367
sg63
(lp6374
S'subtitle'
p6375
asbag56
(g77
g58
NtRp6376
(dp6377
g61
(dp6378
g88
g89
ssg70
g6367
sg63
(lp6379
S':'
asbag56
(g77
g58
NtRp6380
(dp6381
g61
(dp6382
sg70
g6367
sg63
(lp6383
g56
(g57
g58
NtRp6384
(dp6385
g61
(dp6386
g69
I5
ssg70
g6380
sg63
(lp6387
g5129
(S's\r\x00\x00\x00customize me!'
tRp6388
asbasbasbag56
(g72
g58
NtRp6389
(dp6390
g61
(dp6391
sg70
g4553
sg63
(lp6392
g56
(g77
g58
NtRp6393
(dp6394
g61
(dp6395
g81
g82
ssg70
g6389
sg63
(lp6396
S'title'
p6397
asbag56
(g77
g58
NtRp6398
(dp6399
g61
(dp6400
g88
g89
ssg70
g6389
sg63
(lp6401
S':'
asbag56
(g77
g58
NtRp6402
(dp6403
g61
(dp6404
sg70
g6389
sg63
(lp6405
g56
(g57
g58
NtRp6406
(dp6407
g61
(dp6408
g69
I5
ssg70
g6402
sg63
(lp6409
g121
asbasbasbag56
(g72
g58
NtRp6410
(dp6411
g61
(dp6412
sg70
g4553
sg63
(lp6413
g56
(g77
g58
NtRp6414
(dp6415
g61
(dp6416
g81
g82
ssg70
g6410
sg63
(lp6417
g2079
asbag56
(g77
g58
NtRp6418
(dp6419
g61
(dp6420
g88
g89
ssg70
g6410
sg63
(lp6421
S':'
asbag56
(g77
g58
NtRp6422
(dp6423
g61
(dp6424
sg70
g6410
sg63
(lp6425
g56
(g57
g58
NtRp6426
(dp6427
g61
(dp6428
g69
I5
ssg70
g6422
sg63
(lp6429
g2092
asbasbasbag56
(g72
g58
NtRp6430
(dp6431
g61
(dp6432
sg70
g4553
sg63
(lp6433
g56
(g77
g58
NtRp6434
(dp6435
g61
(dp6436
g81
g82
ssg70
g6430
sg63
(lp6437
S'view'
p6438
asbag56
(g77
g58
NtRp6439
(dp6440
g61
(dp6441
g88
g89
ssg70
g6430
sg63
(lp6442
S':'
asbag56
(g77
g58
NtRp6443
(dp6444
g61
(dp6445
sg70
g6430
sg63
(lp6446
g56
(g57
g58
NtRp6447
(dp6448
g61
(dp6449
g69
I5
ssg70
g6443
sg63
(lp6450
S'generic.pdf'
p6451
asbasbasbasbasbsS'locals'
p6452
(dp6453
S'self'
p6454
S'<gluon.html.web2pyHTMLParser instance>'
p6455
sS'parent_tagname'
p6456
S"''"
p6457
sS'tagname'
p6458
S"'form'"
p6459
sssS'traceback'
p6460
S'Traceback (most recent call last):\n  File "/home/www-data/web2py/gluon/restricted.py", line 181, in restricted\n    exec ccode in environment\n  File "/home/www-data/web2py/applications/rdcdss/views/generic.pdf", line 21, in <module>\n    html=response.render(\'%s/%s.html\' % (request.controller,request.function))\n  File "/home/www-data/web2py/gluon/html.py", line 1014, in __call__\n    return web2pyHTMLParser(decoder.decoder(html)).tree\n  File "/home/www-data/web2py/gluon/html.py", line 1995, in __init__\n    self.feed(text)\n  File "/usr/lib/python2.6/HTMLParser.py", line 108, in feed\n    self.goahead(0)\n  File "/usr/lib/python2.6/HTMLParser.py", line 150, in goahead\n    k = self.parse_endtag(i)\n  File "/usr/lib/python2.6/HTMLParser.py", line 319, in parse_endtag\n    self.handle_endtag(tag.lower())\n  File "/home/www-data/web2py/gluon/html.py", line 2030, in handle_endtag\n    raise RuntimeError, "unable to balance tag %s" % tagname\nRuntimeError: unable to balance tag form\n'
p6461
s.