(dp1
S'output'
p2
S''
sS'layer'
p3
S'/home/www-data/web2py/applications/rdcdss/controllers/default.py'
p4
sS'code'
p5
S'# -*- coding: utf-8 -*- \n# this file is released under public domain and you can use without limitations\n\n#########################################################################\n## This is a samples controller\n## - index is the default action of any application\n## - user is required for authentication and authorization\n## - download is for downloading files uploaded in the db (does streaming)\n## - call exposes all registered services (none by default)\n#########################################################################\nimport os\nimport time\nimport hashlib\nimport cPickle\n\ndef index():\n    """\n    Test powerTable\n    """\n    RUNQUERYPATH = "../master/code/runQuery/"\n    session.data = {"document":[]}\n    session.query = ""\n    logfile = open(\'logs/\'+str(response.session_id),\'a\')\n    logfile.write("SESSION: "+str(response.session_id)+"\\n")\n    logfile.write("TIME: "+time.strftime("%X %x %z")+"\\n")\n    db.t_result.truncate()\n    db.t_resdis.truncate()\n    query = ""\n    collection = ""\n    diseases = ""\n    reranking = ""\n    timer = ""\n    table = ""\n    distable = ""\n    if request.vars.q:\n        t0 = time.clock()\n        query = request.vars.q\n        checked = request.vars.c\n        os.system(\'pwd\')\n        if checked == "on":\n            hashstring = hashlib.md5(request.vars.q+"index_raregenet"+str(time.time())).hexdigest()\n            collection = "CHECKED"\n            os.system(\'sh \'+RUNQUERYPATH+\'runQueryDiseases.sh "\'+request.vars.q+\'" index_raregenet \'+hashstring)\n            diseases = "CHECKED"\n        else:\n            hashstring = hashlib.md5(request.vars.q+"index_rare"+str(time.time())).hexdigest()\n            collection = ""\n            os.system(\'sh \'+RUNQUERYPATH+\'runQueryDiseases.sh "\'+request.vars.q+\'" index_rare \'+hashstring)\n            diseases = "CHECKED"\n        \n        db.t_result.truncate()\n        db.t_result.import_from_csv_file(open(os.getcwd()+\'/results/\'+hashstring,\'r\'))\n        rows = []\n        for i,row in db().select(db.t_result.ALL):\n            session.data("id_"+i)={"title":row.f_title,"url":row.f_url,"snippet":row.f_snippet}\n            rows.append(row)\n        session.hashstring = hashstring\n        session.query = query\n        db.t_resdis.truncate()\n        db.t_resdis.import_from_csv_file(open(os.getcwd()+\'/results/\'+hashstring+\'.dis\',\'r\'))\n        timer = time.clock() - t0\n        logfile.write("QUERY: "+query+"\\n")\n        logfile.write("GENETIC CHECKED: "+str(checked)+"\\n")\n        logfile.write("RESULT FILE: "+hashstring+"\\n")\n        logfile.write("SECONDS: "+str(timer)+"\\n")\n        logfile.close()\n        #table = createResultTable(db.t_result)\n        distable = createDiseaseTable(db.t_resdis)\n        #distable = SQLTABLE(db().select(db.t_resdis.f_rank,db.t_resdis.f_disease,db.t_resdis.f_freq,db.t_resdis.f_docnos),headers=\'labels\',truncate=80)\n        timer = str(timer)[:5] + " seconds"\n        print timer\n        \n        response.d_rows = session.data\n        response.d_query = query\n        response.d_timer = timer\n        response.d_raregenet = checked\n        response.d_session_id = response.session_id\n\n    return locals()\n    \ndef createResultTable(data):\n    class Virtual(object):\n        @virtualsettings(label=T(\'Source\'))\n        def sourcelink(self):\n            return A(self.t_result.f_source,_href=self.t_result.f_url,_target=\'_blank\')\n    \n    table = plugins.powerTable\n    table.datasource = data\n            \n    table.dtfeatures[\'sScrollY\'] = \'100%\'\n    table.virtualfields = Virtual()\n    table.dtfeatures[\'bSort\'] = False\n    table.dtfeatures[\'aaSortingFixed\'] = [[2,\'asc\']]\n    table.dtfeatures[\'iDisplayLength\'] = 20\n    table.dtfeatures[\'bPaginate\'] =  False\n    \n    table.truncate = 60 \n    table.headers = \'labels\'\n    table.keycolumn = \'t_result.id\'\n    table.showkeycolumn = False\n    table.extra = dict(\n                       details={\'detailscolumns\':\'t_result.f_title,t_result.f_url,t_result.f_snippet\',\'detailscallback\':URL(\'display_details.load\')}\n                       )\n    table.columns = [\'t_result.f_rank\',\n                     \'t_result.f_title\',\n                     \'virtual.sourcelink\',\n                     #\'t_result.f_source\',\n                     #\'t_result.f_docno\',\n                     #\'t_result.f_score\',\n                    ]\n    table.hiddencolumns = [\'t_result.f_source\',\'t_result.f_url\']\n    table.dtfeatures[\'bInfo\'] =  False\n    table.dtfeatures[\'bFilter\'] =  False\n    table.dtfeatures[\'bAutoWidth\'] =  False\n    table.dtfeatures[\'aoColumns\'] = [\n            { \'sWidth\': \'0%\' },\n            { \'sWidth\': \'5.5%\' },\n            { \'sWidth\': \'5.5%\' },\n            { \'sWidth\': \'55.5%\' },\n            { \'sWidth\': \'33.5%\' }\n        ]\n    return table.create()\n\ndef createDiseaseTable(data):\n    distable = plugins.powerTable\n    distable.datasource = data\n    \n    distable.dtfeatures[\'sScrollY\'] = \'100%\'\n    distable.dtfeatures[\'bSort\'] = False\n    distable.dtfeatures[\'aaSortingFixed\'] = [[2,\'asc\']]\n    distable.dtfeatures[\'iDisplayLength\'] = 20\n    distable.dtfeatures[\'bPaginate\'] =  False\n    distable.dtfeatures[\'bInfo\'] =  False\n    distable.dtfeatures[\'bFilter\'] =  False\n    \n    distable.truncate = 60 \n    distable.headers = \'labels\'\n    distable.keycolumn = \'t_resdis.id\'\n    distable.showkeycolumn = False\n    \n    distable.columns = [\'t_resdis.f_rank\',\n                     \'t_resdis.f_disease\',\n                     \'t_resdis.f_freq\',\n                     \'t_resdis.f_docnos\',\n                     ]\n                     \n    return distable.create()\n\ndef filterOnString(fs):\n        fs = fs.lower()\n        query = (db.t_result.f_title.lower().contains(fs) | db.t_result.f_snippet.lower().contains(fs) | db.t_result.f_source.lower().contains(fs) ) \n        return db(query).select()\n \ndef display_details():\n    """\n    return a custom object to be inserted in detail for table\n    """\n    key = None\n    cols = None\n    for k in request.vars.keys():\n        if k[:3] == \'dt_\':\n            key = request.vars[k]\n        elif k[:6] == \'dtcols\':\n            cols = request.vars[k]\n\n    value = int(key.split(\'.\')[2])\n    rows = cPickle.load(response.session_file)[\'data\']\n    row = rows[value-1]\n\n    logfile = open(\'logs/\'+str(response.session_id),\'a\')\n    logfile.write("OPENED DETAILS FOR RANK: "+str(value)+"\\n")\n    logfile.close()\n    \n    details = DIV(B("Title: "))\n    details.append(P(str(row[0])))\n    details.append(B("URL: "))\n    details.append(P(A(str(row[1]),_href=str(row[1]),_target=\'_blank\')))\n    details.append(B("Text: "))\n    details.append(P(str(row[2])))\n    return details\n\ndef feedback():\n    if request.vars.comment:\n        feedbackfile = open("logs/messages","a")\n        feedbackfile.write("SESSION: "+str(response.session_id)+"\\n")\n        feedbackfile.write("TIME: "+time.strftime("%X %x %z")+"\\n")\n        if session.query:\n            feedbackfile.write("QUERY: "+str(session.query)+"\\n")\n        if session.hashstring:\n            feedbackfile.write("RESULT FILE: "+str(session.hashstring)+"\\n")\n        else:\n            feedbackfile.write("RESULT FILE: "+"no recent queries"+"\\n")\n        if response.session_id:\n            feedbackfile.write("LOG FILE: "+str(response.session_id)+"\\n")\n        feedbackfile.write("COMMENT: \'"+str(request.vars.comment)+"\'\\n")\n        feedbackfile.close()\n        message="Feedback received. Thank you!"\n        return message\n    return ""\n\ndef filterResults():\n    fword = str(request.vars.values()[0])\n    data = filterOnString(fword)\n    table = createResultTable(data)\n    return str(table) + "<script>addFilterBox(\'"+str(fword)+"\');$(\'input#fword\').focus().val($(\'input#fword\').val());</script>"\n\ndef user():\n    """\n    exposes:\n    http://..../[app]/default/user/login \n    http://..../[app]/default/user/logout\n    http://..../[app]/default/user/register\n    http://..../[app]/default/user/profile\n    http://..../[app]/default/user/retrieve_password\n    http://..../[app]/default/user/change_password\n    use @auth.requires_login()\n        @auth.requires_membership(\'group name\')\n        @auth.requires_permission(\'read\',\'table name\',record_id)\n    to decorate functions that need access control\n    """\n    return dict(form=auth())\n\n\ndef download():\n    """\n    allows downloading of uploaded files\n    http://..../[app]/default/download/[filename]\n    """\n    return response.download(request,db)\n\n\ndef call():\n    """\n    exposes services. for example:\n    http://..../[app]/default/call/jsonrpc\n    decorate with @services.jsonrpc the functions to expose\n    supports xml, json, xmlrpc, jsonrpc, amfrpc, rss, csv\n    """\n    session.forget()\n    return service()\n\nresponse._vars=response._caller(index)\n'
p6
sS'snapshot'
p7
(dp8
S'exception'
p9
(dp10
S'__getslice__'
p11
S"<method-wrapper '__getslice__' of exceptions.SyntaxError object>"
p12
sS'text'
p13
S'\'session.data("id_"+i)={"title":row.f_title,"url":row.f_url,"snippet":row.f_snippet}\\n\''
p14
sS'__str__'
p15
S"<method-wrapper '__str__' of exceptions.SyntaxError object>"
p16
sS'__reduce__'
p17
S'<built-in method __reduce__ of exceptions.SyntaxError object>'
p18
sS'__dict__'
p19
S'{}'
p20
sS'__sizeof__'
p21
S'<built-in method __sizeof__ of exceptions.SyntaxError object>'
p22
sS'__init__'
p23
S"<method-wrapper '__init__' of exceptions.SyntaxError object>"
p24
sS'__setattr__'
p25
S"<method-wrapper '__setattr__' of exceptions.SyntaxError object>"
p26
sS'__reduce_ex__'
p27
S'<built-in method __reduce_ex__ of exceptions.SyntaxError object>'
p28
sS'__new__'
p29
S'<built-in method __new__ of type object>'
p30
sS'__format__'
p31
S'<built-in method __format__ of exceptions.SyntaxError object>'
p32
sS'__class__'
p33
S"<type 'exceptions.SyntaxError'>"
p34
sS'filename'
p35
S"'/home/www-data/web2py/applications/rdcdss/controllers/default.py'"
p36
sS'lineno'
p37
S'55'
p38
sS'msg'
p39
S'"can\'t assign to function call"'
p40
sS'__doc__'
p41
S"'Invalid syntax.'"
p42
sS'__getitem__'
p43
S"<method-wrapper '__getitem__' of exceptions.SyntaxError object>"
p44
sS'__setstate__'
p45
S'<built-in method __setstate__ of exceptions.SyntaxError object>'
p46
sS'__getattribute__'
p47
S"<method-wrapper '__getattribute__' of exceptions.SyntaxError object>"
p48
sS'print_file_and_line'
p49
S'None'
p50
sS'args'
p51
S'("can\'t assign to function call", (\'/home/www-data/web2py/applications/rdcdss/controllers/default.py\', 55, None, \'session.data("id_"+i)={"title":row.f_title,"url":row.f_url,"snippet":row.f_snippet}\\n\'))'
p52
sS'__subclasshook__'
p53
S'<built-in method __subclasshook__ of type object>'
p54
sS'offset'
p55
S'None'
p56
sS'__unicode__'
p57
S'<built-in method __unicode__ of exceptions.SyntaxError object>'
p58
sS'__delattr__'
p59
S"<method-wrapper '__delattr__' of exceptions.SyntaxError object>"
p60
sS'__repr__'
p61
S"<method-wrapper '__repr__' of exceptions.SyntaxError object>"
p62
sS'__hash__'
p63
S"<method-wrapper '__hash__' of exceptions.SyntaxError object>"
p64
ssS'evalue'
p65
S"can't assign to function call (default.py, line 55)"
p66
sS'request'
p67
ccopy_reg
_reconstructor
p68
(cgluon.html
BEAUTIFY
p69
c__builtin__
object
p70
NtRp71
(dp72
S'attributes'
p73
(dp74
sS'components'
p75
(lp76
g68
(cgluon.html
TABLE
p77
g70
NtRp78
(dp79
g73
(dp80
S'level'
p81
I5
ssS'parent'
p82
Nsg75
(lp83
g68
(cgluon.html
TR
p84
g70
NtRp85
(dp86
g73
(dp87
sg82
g78
sg75
(lp88
g68
(cgluon.html
TD
p89
g70
NtRp90
(dp91
g73
(dp92
S'_style'
p93
S'font-weight:bold;'
p94
ssg82
g85
sg75
(lp95
S'ajax'
p96
asbag68
(g89
g70
NtRp97
(dp98
g73
(dp99
S'_valign'
p100
S'top'
p101
ssg82
g85
sg75
(lp102
S':'
asbag68
(g89
g70
NtRp103
(dp104
g73
(dp105
sg82
g85
sg75
(lp106
g68
(g69
g70
NtRp107
(dp108
g73
(dp109
g81
I5
ssg82
g103
sg75
(lp110
S'False'
p111
asbasbasbag68
(g84
g70
NtRp112
(dp113
g73
(dp114
sg82
g78
sg75
(lp115
g68
(g89
g70
NtRp116
(dp117
g73
(dp118
g93
g94
ssg82
g112
sg75
(lp119
S'application'
p120
asbag68
(g89
g70
NtRp121
(dp122
g73
(dp123
g100
g101
ssg82
g112
sg75
(lp124
S':'
asbag68
(g89
g70
NtRp125
(dp126
g73
(dp127
sg82
g112
sg75
(lp128
g68
(g69
g70
NtRp129
(dp130
g73
(dp131
g81
I5
ssg82
g125
sg75
(lp132
S'rdcdss'
p133
asbasbasbag68
(g84
g70
NtRp134
(dp135
g73
(dp136
sg82
g78
sg75
(lp137
g68
(g89
g70
NtRp138
(dp139
g73
(dp140
g93
g94
ssg82
g134
sg75
(lp141
g51
asbag68
(g89
g70
NtRp142
(dp143
g73
(dp144
g100
g101
ssg82
g134
sg75
(lp145
S':'
asbag68
(g89
g70
NtRp146
(dp147
g73
(dp148
sg82
g134
sg75
(lp149
g68
(g69
g70
NtRp150
(dp151
g73
(dp152
g81
I5
ssg82
g146
sg75
(lp153
g68
(g77
g70
NtRp154
(dp155
g73
(dp156
g81
I4
ssg82
Nsg75
(lp157
sbasbasbasbag68
(g84
g70
NtRp158
(dp159
g73
(dp160
sg82
g78
sg75
(lp161
g68
(g89
g70
NtRp162
(dp163
g73
(dp164
g93
g94
ssg82
g158
sg75
(lp165
S'body'
p166
asbag68
(g89
g70
NtRp167
(dp168
g73
(dp169
g100
g101
ssg82
g158
sg75
(lp170
S':'
asbag68
(g89
g70
NtRp171
(dp172
g73
(dp173
sg82
g158
sg75
(lp174
g68
(g69
g70
NtRp175
(dp176
g73
(dp177
g81
I5
ssg82
g171
sg75
(lp178
S'<cStringIO.StringO object at 0x2b9bdb749bc8>'
p179
asbasbasbag68
(g84
g70
NtRp180
(dp181
g73
(dp182
sg82
g78
sg75
(lp183
g68
(g89
g70
NtRp184
(dp185
g73
(dp186
g93
g94
ssg82
g180
sg75
(lp187
S'client'
p188
asbag68
(g89
g70
NtRp189
(dp190
g73
(dp191
g100
g101
ssg82
g180
sg75
(lp192
S':'
asbag68
(g89
g70
NtRp193
(dp194
g73
(dp195
sg82
g180
sg75
(lp196
g68
(g69
g70
NtRp197
(dp198
g73
(dp199
g81
I5
ssg82
g193
sg75
(lp200
S'89.123.2.193'
p201
asbasbasbag68
(g84
g70
NtRp202
(dp203
g73
(dp204
sg82
g78
sg75
(lp205
g68
(g89
g70
NtRp206
(dp207
g73
(dp208
g93
g94
ssg82
g202
sg75
(lp209
S'controller'
p210
asbag68
(g89
g70
NtRp211
(dp212
g73
(dp213
g100
g101
ssg82
g202
sg75
(lp214
S':'
asbag68
(g89
g70
NtRp215
(dp216
g73
(dp217
sg82
g202
sg75
(lp218
g68
(g69
g70
NtRp219
(dp220
g73
(dp221
g81
I5
ssg82
g215
sg75
(lp222
S'default'
p223
asbasbasbag68
(g84
g70
NtRp224
(dp225
g73
(dp226
sg82
g78
sg75
(lp227
g68
(g89
g70
NtRp228
(dp229
g73
(dp230
g93
g94
ssg82
g224
sg75
(lp231
S'cookies'
p232
asbag68
(g89
g70
NtRp233
(dp234
g73
(dp235
g100
g101
ssg82
g224
sg75
(lp236
S':'
asbag68
(g89
g70
NtRp237
(dp238
g73
(dp239
sg82
g224
sg75
(lp240
g68
(g69
g70
NtRp241
(dp242
g73
(dp243
g81
I5
ssg82
g237
sg75
(lp244
g68
(g77
g70
NtRp245
(dp246
g73
(dp247
g81
I4
ssg82
Nsg75
(lp248
g68
(g84
g70
NtRp249
(dp250
g73
(dp251
sg82
g245
sg75
(lp252
g68
(g89
g70
NtRp253
(dp254
g73
(dp255
g93
g94
ssg82
g249
sg75
(lp256
S'session_id_admin'
p257
asbag68
(g89
g70
NtRp258
(dp259
g73
(dp260
g100
g101
ssg82
g249
sg75
(lp261
S':'
asbag68
(g89
g70
NtRp262
(dp263
g73
(dp264
sg82
g249
sg75
(lp265
g68
(g69
g70
NtRp266
(dp267
g73
(dp268
g81
I4
ssg82
g262
sg75
(lp269
g68
(g77
g70
NtRp270
(dp271
g73
(dp272
g81
I3
ssg82
Nsg75
(lp273
g68
(g84
g70
NtRp274
(dp275
g73
(dp276
sg82
g270
sg75
(lp277
g68
(g89
g70
NtRp278
(dp279
g73
(dp280
g93
g94
ssg82
g274
sg75
(lp281
S'comment'
p282
asbag68
(g89
g70
NtRp283
(dp284
g73
(dp285
g100
g101
ssg82
g274
sg75
(lp286
S':'
asbag68
(g89
g70
NtRp287
(dp288
g73
(dp289
sg82
g274
sg75
(lp290
g68
(g69
g70
NtRp291
(dp292
g73
(dp293
g81
I3
ssg82
g287
sg75
(lp294
S''
asbasbasbag68
(g84
g70
NtRp295
(dp296
g73
(dp297
sg82
g270
sg75
(lp298
g68
(g89
g70
NtRp299
(dp300
g73
(dp301
g93
g94
ssg82
g295
sg75
(lp302
S'domain'
p303
asbag68
(g89
g70
NtRp304
(dp305
g73
(dp306
g100
g101
ssg82
g295
sg75
(lp307
S':'
asbag68
(g89
g70
NtRp308
(dp309
g73
(dp310
sg82
g295
sg75
(lp311
g68
(g69
g70
NtRp312
(dp313
g73
(dp314
g81
I3
ssg82
g308
sg75
(lp315
S''
asbasbasbag68
(g84
g70
NtRp316
(dp317
g73
(dp318
sg82
g270
sg75
(lp319
g68
(g89
g70
NtRp320
(dp321
g73
(dp322
g93
g94
ssg82
g316
sg75
(lp323
S'expires'
p324
asbag68
(g89
g70
NtRp325
(dp326
g73
(dp327
g100
g101
ssg82
g316
sg75
(lp328
S':'
asbag68
(g89
g70
NtRp329
(dp330
g73
(dp331
sg82
g316
sg75
(lp332
g68
(g69
g70
NtRp333
(dp334
g73
(dp335
g81
I3
ssg82
g329
sg75
(lp336
S''
asbasbasbag68
(g84
g70
NtRp337
(dp338
g73
(dp339
sg82
g270
sg75
(lp340
g68
(g89
g70
NtRp341
(dp342
g73
(dp343
g93
g94
ssg82
g337
sg75
(lp344
S'httponly'
p345
asbag68
(g89
g70
NtRp346
(dp347
g73
(dp348
g100
g101
ssg82
g337
sg75
(lp349
S':'
asbag68
(g89
g70
NtRp350
(dp351
g73
(dp352
sg82
g337
sg75
(lp353
g68
(g69
g70
NtRp354
(dp355
g73
(dp356
g81
I3
ssg82
g350
sg75
(lp357
S''
asbasbasbag68
(g84
g70
NtRp358
(dp359
g73
(dp360
sg82
g270
sg75
(lp361
g68
(g89
g70
NtRp362
(dp363
g73
(dp364
g93
g94
ssg82
g358
sg75
(lp365
S'max-age'
p366
asbag68
(g89
g70
NtRp367
(dp368
g73
(dp369
g100
g101
ssg82
g358
sg75
(lp370
S':'
asbag68
(g89
g70
NtRp371
(dp372
g73
(dp373
sg82
g358
sg75
(lp374
g68
(g69
g70
NtRp375
(dp376
g73
(dp377
g81
I3
ssg82
g371
sg75
(lp378
S''
asbasbasbag68
(g84
g70
NtRp379
(dp380
g73
(dp381
sg82
g270
sg75
(lp382
g68
(g89
g70
NtRp383
(dp384
g73
(dp385
g93
g94
ssg82
g379
sg75
(lp386
S'path'
p387
asbag68
(g89
g70
NtRp388
(dp389
g73
(dp390
g100
g101
ssg82
g379
sg75
(lp391
S':'
asbag68
(g89
g70
NtRp392
(dp393
g73
(dp394
sg82
g379
sg75
(lp395
g68
(g69
g70
NtRp396
(dp397
g73
(dp398
g81
I3
ssg82
g392
sg75
(lp399
S''
asbasbasbag68
(g84
g70
NtRp400
(dp401
g73
(dp402
sg82
g270
sg75
(lp403
g68
(g89
g70
NtRp404
(dp405
g73
(dp406
g93
g94
ssg82
g400
sg75
(lp407
S'secure'
p408
asbag68
(g89
g70
NtRp409
(dp410
g73
(dp411
g100
g101
ssg82
g400
sg75
(lp412
S':'
asbag68
(g89
g70
NtRp413
(dp414
g73
(dp415
sg82
g400
sg75
(lp416
g68
(g69
g70
NtRp417
(dp418
g73
(dp419
g81
I3
ssg82
g413
sg75
(lp420
S''
asbasbasbag68
(g84
g70
NtRp421
(dp422
g73
(dp423
sg82
g270
sg75
(lp424
g68
(g89
g70
NtRp425
(dp426
g73
(dp427
g93
g94
ssg82
g421
sg75
(lp428
S'version'
p429
asbag68
(g89
g70
NtRp430
(dp431
g73
(dp432
g100
g101
ssg82
g421
sg75
(lp433
S':'
asbag68
(g89
g70
NtRp434
(dp435
g73
(dp436
sg82
g421
sg75
(lp437
g68
(g69
g70
NtRp438
(dp439
g73
(dp440
g81
I3
ssg82
g434
sg75
(lp441
S''
asbasbasbasbasbasbasbag68
(g84
g70
NtRp442
(dp443
g73
(dp444
sg82
g245
sg75
(lp445
g68
(g89
g70
NtRp446
(dp447
g73
(dp448
g93
g94
ssg82
g442
sg75
(lp449
S'session_id_raredisss_devel'
p450
asbag68
(g89
g70
NtRp451
(dp452
g73
(dp453
g100
g101
ssg82
g442
sg75
(lp454
S':'
asbag68
(g89
g70
NtRp455
(dp456
g73
(dp457
sg82
g442
sg75
(lp458
g68
(g69
g70
NtRp459
(dp460
g73
(dp461
g81
I4
ssg82
g455
sg75
(lp462
g68
(g77
g70
NtRp463
(dp464
g73
(dp465
g81
I3
ssg82
Nsg75
(lp466
g68
(g84
g70
NtRp467
(dp468
g73
(dp469
sg82
g463
sg75
(lp470
g68
(g89
g70
NtRp471
(dp472
g73
(dp473
g93
g94
ssg82
g467
sg75
(lp474
g282
asbag68
(g89
g70
NtRp475
(dp476
g73
(dp477
g100
g101
ssg82
g467
sg75
(lp478
S':'
asbag68
(g89
g70
NtRp479
(dp480
g73
(dp481
sg82
g467
sg75
(lp482
g68
(g69
g70
NtRp483
(dp484
g73
(dp485
g81
I3
ssg82
g479
sg75
(lp486
S''
asbasbasbag68
(g84
g70
NtRp487
(dp488
g73
(dp489
sg82
g463
sg75
(lp490
g68
(g89
g70
NtRp491
(dp492
g73
(dp493
g93
g94
ssg82
g487
sg75
(lp494
g303
asbag68
(g89
g70
NtRp495
(dp496
g73
(dp497
g100
g101
ssg82
g487
sg75
(lp498
S':'
asbag68
(g89
g70
NtRp499
(dp500
g73
(dp501
sg82
g487
sg75
(lp502
g68
(g69
g70
NtRp503
(dp504
g73
(dp505
g81
I3
ssg82
g499
sg75
(lp506
S''
asbasbasbag68
(g84
g70
NtRp507
(dp508
g73
(dp509
sg82
g463
sg75
(lp510
g68
(g89
g70
NtRp511
(dp512
g73
(dp513
g93
g94
ssg82
g507
sg75
(lp514
g324
asbag68
(g89
g70
NtRp515
(dp516
g73
(dp517
g100
g101
ssg82
g507
sg75
(lp518
S':'
asbag68
(g89
g70
NtRp519
(dp520
g73
(dp521
sg82
g507
sg75
(lp522
g68
(g69
g70
NtRp523
(dp524
g73
(dp525
g81
I3
ssg82
g519
sg75
(lp526
S''
asbasbasbag68
(g84
g70
NtRp527
(dp528
g73
(dp529
sg82
g463
sg75
(lp530
g68
(g89
g70
NtRp531
(dp532
g73
(dp533
g93
g94
ssg82
g527
sg75
(lp534
g345
asbag68
(g89
g70
NtRp535
(dp536
g73
(dp537
g100
g101
ssg82
g527
sg75
(lp538
S':'
asbag68
(g89
g70
NtRp539
(dp540
g73
(dp541
sg82
g527
sg75
(lp542
g68
(g69
g70
NtRp543
(dp544
g73
(dp545
g81
I3
ssg82
g539
sg75
(lp546
S''
asbasbasbag68
(g84
g70
NtRp547
(dp548
g73
(dp549
sg82
g463
sg75
(lp550
g68
(g89
g70
NtRp551
(dp552
g73
(dp553
g93
g94
ssg82
g547
sg75
(lp554
g366
asbag68
(g89
g70
NtRp555
(dp556
g73
(dp557
g100
g101
ssg82
g547
sg75
(lp558
S':'
asbag68
(g89
g70
NtRp559
(dp560
g73
(dp561
sg82
g547
sg75
(lp562
g68
(g69
g70
NtRp563
(dp564
g73
(dp565
g81
I3
ssg82
g559
sg75
(lp566
S''
asbasbasbag68
(g84
g70
NtRp567
(dp568
g73
(dp569
sg82
g463
sg75
(lp570
g68
(g89
g70
NtRp571
(dp572
g73
(dp573
g93
g94
ssg82
g567
sg75
(lp574
g387
asbag68
(g89
g70
NtRp575
(dp576
g73
(dp577
g100
g101
ssg82
g567
sg75
(lp578
S':'
asbag68
(g89
g70
NtRp579
(dp580
g73
(dp581
sg82
g567
sg75
(lp582
g68
(g69
g70
NtRp583
(dp584
g73
(dp585
g81
I3
ssg82
g579
sg75
(lp586
S''
asbasbasbag68
(g84
g70
NtRp587
(dp588
g73
(dp589
sg82
g463
sg75
(lp590
g68
(g89
g70
NtRp591
(dp592
g73
(dp593
g93
g94
ssg82
g587
sg75
(lp594
g408
asbag68
(g89
g70
NtRp595
(dp596
g73
(dp597
g100
g101
ssg82
g587
sg75
(lp598
S':'
asbag68
(g89
g70
NtRp599
(dp600
g73
(dp601
sg82
g587
sg75
(lp602
g68
(g69
g70
NtRp603
(dp604
g73
(dp605
g81
I3
ssg82
g599
sg75
(lp606
S''
asbasbasbag68
(g84
g70
NtRp607
(dp608
g73
(dp609
sg82
g463
sg75
(lp610
g68
(g89
g70
NtRp611
(dp612
g73
(dp613
g93
g94
ssg82
g607
sg75
(lp614
g429
asbag68
(g89
g70
NtRp615
(dp616
g73
(dp617
g100
g101
ssg82
g607
sg75
(lp618
S':'
asbag68
(g89
g70
NtRp619
(dp620
g73
(dp621
sg82
g607
sg75
(lp622
g68
(g69
g70
NtRp623
(dp624
g73
(dp625
g81
I3
ssg82
g619
sg75
(lp626
S''
asbasbasbasbasbasbasbag68
(g84
g70
NtRp627
(dp628
g73
(dp629
sg82
g245
sg75
(lp630
g68
(g89
g70
NtRp631
(dp632
g73
(dp633
g93
g94
ssg82
g627
sg75
(lp634
S'session_id_rdcdss'
p635
asbag68
(g89
g70
NtRp636
(dp637
g73
(dp638
g100
g101
ssg82
g627
sg75
(lp639
S':'
asbag68
(g89
g70
NtRp640
(dp641
g73
(dp642
sg82
g627
sg75
(lp643
g68
(g69
g70
NtRp644
(dp645
g73
(dp646
g81
I4
ssg82
g640
sg75
(lp647
g68
(g77
g70
NtRp648
(dp649
g73
(dp650
g81
I3
ssg82
Nsg75
(lp651
g68
(g84
g70
NtRp652
(dp653
g73
(dp654
sg82
g648
sg75
(lp655
g68
(g89
g70
NtRp656
(dp657
g73
(dp658
g93
g94
ssg82
g652
sg75
(lp659
g282
asbag68
(g89
g70
NtRp660
(dp661
g73
(dp662
g100
g101
ssg82
g652
sg75
(lp663
S':'
asbag68
(g89
g70
NtRp664
(dp665
g73
(dp666
sg82
g652
sg75
(lp667
g68
(g69
g70
NtRp668
(dp669
g73
(dp670
g81
I3
ssg82
g664
sg75
(lp671
S''
asbasbasbag68
(g84
g70
NtRp672
(dp673
g73
(dp674
sg82
g648
sg75
(lp675
g68
(g89
g70
NtRp676
(dp677
g73
(dp678
g93
g94
ssg82
g672
sg75
(lp679
g303
asbag68
(g89
g70
NtRp680
(dp681
g73
(dp682
g100
g101
ssg82
g672
sg75
(lp683
S':'
asbag68
(g89
g70
NtRp684
(dp685
g73
(dp686
sg82
g672
sg75
(lp687
g68
(g69
g70
NtRp688
(dp689
g73
(dp690
g81
I3
ssg82
g684
sg75
(lp691
S''
asbasbasbag68
(g84
g70
NtRp692
(dp693
g73
(dp694
sg82
g648
sg75
(lp695
g68
(g89
g70
NtRp696
(dp697
g73
(dp698
g93
g94
ssg82
g692
sg75
(lp699
g324
asbag68
(g89
g70
NtRp700
(dp701
g73
(dp702
g100
g101
ssg82
g692
sg75
(lp703
S':'
asbag68
(g89
g70
NtRp704
(dp705
g73
(dp706
sg82
g692
sg75
(lp707
g68
(g69
g70
NtRp708
(dp709
g73
(dp710
g81
I3
ssg82
g704
sg75
(lp711
S''
asbasbasbag68
(g84
g70
NtRp712
(dp713
g73
(dp714
sg82
g648
sg75
(lp715
g68
(g89
g70
NtRp716
(dp717
g73
(dp718
g93
g94
ssg82
g712
sg75
(lp719
g345
asbag68
(g89
g70
NtRp720
(dp721
g73
(dp722
g100
g101
ssg82
g712
sg75
(lp723
S':'
asbag68
(g89
g70
NtRp724
(dp725
g73
(dp726
sg82
g712
sg75
(lp727
g68
(g69
g70
NtRp728
(dp729
g73
(dp730
g81
I3
ssg82
g724
sg75
(lp731
S''
asbasbasbag68
(g84
g70
NtRp732
(dp733
g73
(dp734
sg82
g648
sg75
(lp735
g68
(g89
g70
NtRp736
(dp737
g73
(dp738
g93
g94
ssg82
g732
sg75
(lp739
g366
asbag68
(g89
g70
NtRp740
(dp741
g73
(dp742
g100
g101
ssg82
g732
sg75
(lp743
S':'
asbag68
(g89
g70
NtRp744
(dp745
g73
(dp746
sg82
g732
sg75
(lp747
g68
(g69
g70
NtRp748
(dp749
g73
(dp750
g81
I3
ssg82
g744
sg75
(lp751
S''
asbasbasbag68
(g84
g70
NtRp752
(dp753
g73
(dp754
sg82
g648
sg75
(lp755
g68
(g89
g70
NtRp756
(dp757
g73
(dp758
g93
g94
ssg82
g752
sg75
(lp759
g387
asbag68
(g89
g70
NtRp760
(dp761
g73
(dp762
g100
g101
ssg82
g752
sg75
(lp763
S':'
asbag68
(g89
g70
NtRp764
(dp765
g73
(dp766
sg82
g752
sg75
(lp767
g68
(g69
g70
NtRp768
(dp769
g73
(dp770
g81
I3
ssg82
g764
sg75
(lp771
S''
asbasbasbag68
(g84
g70
NtRp772
(dp773
g73
(dp774
sg82
g648
sg75
(lp775
g68
(g89
g70
NtRp776
(dp777
g73
(dp778
g93
g94
ssg82
g772
sg75
(lp779
g408
asbag68
(g89
g70
NtRp780
(dp781
g73
(dp782
g100
g101
ssg82
g772
sg75
(lp783
S':'
asbag68
(g89
g70
NtRp784
(dp785
g73
(dp786
sg82
g772
sg75
(lp787
g68
(g69
g70
NtRp788
(dp789
g73
(dp790
g81
I3
ssg82
g784
sg75
(lp791
S''
asbasbasbag68
(g84
g70
NtRp792
(dp793
g73
(dp794
sg82
g648
sg75
(lp795
g68
(g89
g70
NtRp796
(dp797
g73
(dp798
g93
g94
ssg82
g792
sg75
(lp799
g429
asbag68
(g89
g70
NtRp800
(dp801
g73
(dp802
g100
g101
ssg82
g792
sg75
(lp803
S':'
asbag68
(g89
g70
NtRp804
(dp805
g73
(dp806
sg82
g792
sg75
(lp807
g68
(g69
g70
NtRp808
(dp809
g73
(dp810
g81
I3
ssg82
g804
sg75
(lp811
S''
asbasbasbasbasbasbasbag68
(g84
g70
NtRp812
(dp813
g73
(dp814
sg82
g245
sg75
(lp815
g68
(g89
g70
NtRp816
(dp817
g73
(dp818
g93
g94
ssg82
g812
sg75
(lp819
S'session_id_welcome'
p820
asbag68
(g89
g70
NtRp821
(dp822
g73
(dp823
g100
g101
ssg82
g812
sg75
(lp824
S':'
asbag68
(g89
g70
NtRp825
(dp826
g73
(dp827
sg82
g812
sg75
(lp828
g68
(g69
g70
NtRp829
(dp830
g73
(dp831
g81
I4
ssg82
g825
sg75
(lp832
g68
(g77
g70
NtRp833
(dp834
g73
(dp835
g81
I3
ssg82
Nsg75
(lp836
g68
(g84
g70
NtRp837
(dp838
g73
(dp839
sg82
g833
sg75
(lp840
g68
(g89
g70
NtRp841
(dp842
g73
(dp843
g93
g94
ssg82
g837
sg75
(lp844
g282
asbag68
(g89
g70
NtRp845
(dp846
g73
(dp847
g100
g101
ssg82
g837
sg75
(lp848
S':'
asbag68
(g89
g70
NtRp849
(dp850
g73
(dp851
sg82
g837
sg75
(lp852
g68
(g69
g70
NtRp853
(dp854
g73
(dp855
g81
I3
ssg82
g849
sg75
(lp856
S''
asbasbasbag68
(g84
g70
NtRp857
(dp858
g73
(dp859
sg82
g833
sg75
(lp860
g68
(g89
g70
NtRp861
(dp862
g73
(dp863
g93
g94
ssg82
g857
sg75
(lp864
g303
asbag68
(g89
g70
NtRp865
(dp866
g73
(dp867
g100
g101
ssg82
g857
sg75
(lp868
S':'
asbag68
(g89
g70
NtRp869
(dp870
g73
(dp871
sg82
g857
sg75
(lp872
g68
(g69
g70
NtRp873
(dp874
g73
(dp875
g81
I3
ssg82
g869
sg75
(lp876
S''
asbasbasbag68
(g84
g70
NtRp877
(dp878
g73
(dp879
sg82
g833
sg75
(lp880
g68
(g89
g70
NtRp881
(dp882
g73
(dp883
g93
g94
ssg82
g877
sg75
(lp884
g324
asbag68
(g89
g70
NtRp885
(dp886
g73
(dp887
g100
g101
ssg82
g877
sg75
(lp888
S':'
asbag68
(g89
g70
NtRp889
(dp890
g73
(dp891
sg82
g877
sg75
(lp892
g68
(g69
g70
NtRp893
(dp894
g73
(dp895
g81
I3
ssg82
g889
sg75
(lp896
S''
asbasbasbag68
(g84
g70
NtRp897
(dp898
g73
(dp899
sg82
g833
sg75
(lp900
g68
(g89
g70
NtRp901
(dp902
g73
(dp903
g93
g94
ssg82
g897
sg75
(lp904
g345
asbag68
(g89
g70
NtRp905
(dp906
g73
(dp907
g100
g101
ssg82
g897
sg75
(lp908
S':'
asbag68
(g89
g70
NtRp909
(dp910
g73
(dp911
sg82
g897
sg75
(lp912
g68
(g69
g70
NtRp913
(dp914
g73
(dp915
g81
I3
ssg82
g909
sg75
(lp916
S''
asbasbasbag68
(g84
g70
NtRp917
(dp918
g73
(dp919
sg82
g833
sg75
(lp920
g68
(g89
g70
NtRp921
(dp922
g73
(dp923
g93
g94
ssg82
g917
sg75
(lp924
g366
asbag68
(g89
g70
NtRp925
(dp926
g73
(dp927
g100
g101
ssg82
g917
sg75
(lp928
S':'
asbag68
(g89
g70
NtRp929
(dp930
g73
(dp931
sg82
g917
sg75
(lp932
g68
(g69
g70
NtRp933
(dp934
g73
(dp935
g81
I3
ssg82
g929
sg75
(lp936
S''
asbasbasbag68
(g84
g70
NtRp937
(dp938
g73
(dp939
sg82
g833
sg75
(lp940
g68
(g89
g70
NtRp941
(dp942
g73
(dp943
g93
g94
ssg82
g937
sg75
(lp944
g387
asbag68
(g89
g70
NtRp945
(dp946
g73
(dp947
g100
g101
ssg82
g937
sg75
(lp948
S':'
asbag68
(g89
g70
NtRp949
(dp950
g73
(dp951
sg82
g937
sg75
(lp952
g68
(g69
g70
NtRp953
(dp954
g73
(dp955
g81
I3
ssg82
g949
sg75
(lp956
S''
asbasbasbag68
(g84
g70
NtRp957
(dp958
g73
(dp959
sg82
g833
sg75
(lp960
g68
(g89
g70
NtRp961
(dp962
g73
(dp963
g93
g94
ssg82
g957
sg75
(lp964
g408
asbag68
(g89
g70
NtRp965
(dp966
g73
(dp967
g100
g101
ssg82
g957
sg75
(lp968
S':'
asbag68
(g89
g70
NtRp969
(dp970
g73
(dp971
sg82
g957
sg75
(lp972
g68
(g69
g70
NtRp973
(dp974
g73
(dp975
g81
I3
ssg82
g969
sg75
(lp976
S''
asbasbasbag68
(g84
g70
NtRp977
(dp978
g73
(dp979
sg82
g833
sg75
(lp980
g68
(g89
g70
NtRp981
(dp982
g73
(dp983
g93
g94
ssg82
g977
sg75
(lp984
g429
asbag68
(g89
g70
NtRp985
(dp986
g73
(dp987
g100
g101
ssg82
g977
sg75
(lp988
S':'
asbag68
(g89
g70
NtRp989
(dp990
g73
(dp991
sg82
g977
sg75
(lp992
g68
(g69
g70
NtRp993
(dp994
g73
(dp995
g81
I3
ssg82
g989
sg75
(lp996
S''
asbasbasbasbasbasbasbasbasbasbasbag68
(g84
g70
NtRp997
(dp998
g73
(dp999
sg82
g78
sg75
(lp1000
g68
(g89
g70
NtRp1001
(dp1002
g73
(dp1003
g93
g94
ssg82
g997
sg75
(lp1004
S'env'
p1005
asbag68
(g89
g70
NtRp1006
(dp1007
g73
(dp1008
g100
g101
ssg82
g997
sg75
(lp1009
S':'
asbag68
(g89
g70
NtRp1010
(dp1011
g73
(dp1012
sg82
g997
sg75
(lp1013
g68
(g69
g70
NtRp1014
(dp1015
g73
(dp1016
g81
I5
ssg82
g1010
sg75
(lp1017
g68
(g77
g70
NtRp1018
(dp1019
g73
(dp1020
g81
I4
ssg82
Nsg75
(lp1021
g68
(g84
g70
NtRp1022
(dp1023
g73
(dp1024
sg82
g1018
sg75
(lp1025
g68
(g89
g70
NtRp1026
(dp1027
g73
(dp1028
g93
g94
ssg82
g1022
sg75
(lp1029
S'app_folders'
p1030
asbag68
(g89
g70
NtRp1031
(dp1032
g73
(dp1033
g100
g101
ssg82
g1022
sg75
(lp1034
S':'
asbag68
(g89
g70
NtRp1035
(dp1036
g73
(dp1037
sg82
g1022
sg75
(lp1038
g68
(g69
g70
NtRp1039
(dp1040
g73
(dp1041
g81
I4
ssg82
g1035
sg75
(lp1042
S"set(['/home/www-data/web2py/applications/rdcdss/', '/home/www-data/web2py/applications/examples/', '/home/www-data/web2py/applications/RareDisSS_Stable/', '/home/www-data/web2py/applications/welcome/', '/home/www-data/web2py/applications/admin/', '/home/www-data/web2py/applications/RareDisSS_Devel/'])"
p1043
asbasbasbag68
(g84
g70
NtRp1044
(dp1045
g73
(dp1046
sg82
g1018
sg75
(lp1047
g68
(g89
g70
NtRp1048
(dp1049
g73
(dp1050
g93
g94
ssg82
g1044
sg75
(lp1051
S'applications_parent'
p1052
asbag68
(g89
g70
NtRp1053
(dp1054
g73
(dp1055
g100
g101
ssg82
g1044
sg75
(lp1056
S':'
asbag68
(g89
g70
NtRp1057
(dp1058
g73
(dp1059
sg82
g1044
sg75
(lp1060
g68
(g69
g70
NtRp1061
(dp1062
g73
(dp1063
g81
I4
ssg82
g1057
sg75
(lp1064
S'/home/www-data/web2py'
p1065
asbasbasbag68
(g84
g70
NtRp1066
(dp1067
g73
(dp1068
sg82
g1018
sg75
(lp1069
g68
(g89
g70
NtRp1070
(dp1071
g73
(dp1072
g93
g94
ssg82
g1066
sg75
(lp1073
S'db_sessions'
p1074
asbag68
(g89
g70
NtRp1075
(dp1076
g73
(dp1077
g100
g101
ssg82
g1066
sg75
(lp1078
S':'
asbag68
(g89
g70
NtRp1079
(dp1080
g73
(dp1081
sg82
g1066
sg75
(lp1082
g68
(g69
g70
NtRp1083
(dp1084
g73
(dp1085
g81
I4
ssg82
g1079
sg75
(lp1086
S'set([])'
p1087
asbasbasbag68
(g84
g70
NtRp1088
(dp1089
g73
(dp1090
sg82
g1018
sg75
(lp1091
g68
(g89
g70
NtRp1092
(dp1093
g73
(dp1094
g93
g94
ssg82
g1088
sg75
(lp1095
S'debugging'
p1096
asbag68
(g89
g70
NtRp1097
(dp1098
g73
(dp1099
g100
g101
ssg82
g1088
sg75
(lp1100
S':'
asbag68
(g89
g70
NtRp1101
(dp1102
g73
(dp1103
sg82
g1088
sg75
(lp1104
g68
(g69
g70
NtRp1105
(dp1106
g73
(dp1107
g81
I4
ssg82
g1101
sg75
(lp1108
g111
asbasbasbag68
(g84
g70
NtRp1109
(dp1110
g73
(dp1111
sg82
g1018
sg75
(lp1112
g68
(g89
g70
NtRp1113
(dp1114
g73
(dp1115
g93
g94
ssg82
g1109
sg75
(lp1116
S'document_root'
p1117
asbag68
(g89
g70
NtRp1118
(dp1119
g73
(dp1120
g100
g101
ssg82
g1109
sg75
(lp1121
S':'
asbag68
(g89
g70
NtRp1122
(dp1123
g73
(dp1124
sg82
g1109
sg75
(lp1125
g68
(g69
g70
NtRp1126
(dp1127
g73
(dp1128
g81
I4
ssg82
g1122
sg75
(lp1129
S'/etc/apache2/htdocs'
p1130
asbasbasbag68
(g84
g70
NtRp1131
(dp1132
g73
(dp1133
sg82
g1018
sg75
(lp1134
g68
(g89
g70
NtRp1135
(dp1136
g73
(dp1137
g93
g94
ssg82
g1131
sg75
(lp1138
S'gateway_interface'
p1139
asbag68
(g89
g70
NtRp1140
(dp1141
g73
(dp1142
g100
g101
ssg82
g1131
sg75
(lp1143
S':'
asbag68
(g89
g70
NtRp1144
(dp1145
g73
(dp1146
sg82
g1131
sg75
(lp1147
g68
(g69
g70
NtRp1148
(dp1149
g73
(dp1150
g81
I4
ssg82
g1144
sg75
(lp1151
S'CGI/1.1'
p1152
asbasbasbag68
(g84
g70
NtRp1153
(dp1154
g73
(dp1155
sg82
g1018
sg75
(lp1156
g68
(g89
g70
NtRp1157
(dp1158
g73
(dp1159
g93
g94
ssg82
g1153
sg75
(lp1160
S'gluon_parent'
p1161
asbag68
(g89
g70
NtRp1162
(dp1163
g73
(dp1164
g100
g101
ssg82
g1153
sg75
(lp1165
S':'
asbag68
(g89
g70
NtRp1166
(dp1167
g73
(dp1168
sg82
g1153
sg75
(lp1169
g68
(g69
g70
NtRp1170
(dp1171
g73
(dp1172
g81
I4
ssg82
g1166
sg75
(lp1173
g1065
asbasbasbag68
(g84
g70
NtRp1174
(dp1175
g73
(dp1176
sg82
g1018
sg75
(lp1177
g68
(g89
g70
NtRp1178
(dp1179
g73
(dp1180
g93
g94
ssg82
g1174
sg75
(lp1181
S'http_accept'
p1182
asbag68
(g89
g70
NtRp1183
(dp1184
g73
(dp1185
g100
g101
ssg82
g1174
sg75
(lp1186
S':'
asbag68
(g89
g70
NtRp1187
(dp1188
g73
(dp1189
sg82
g1174
sg75
(lp1190
g68
(g69
g70
NtRp1191
(dp1192
g73
(dp1193
g81
I4
ssg82
g1187
sg75
(lp1194
S'text/html,application/xhtml+xml,application/xml;q=0.9,*/*;q=0.8'
p1195
asbasbasbag68
(g84
g70
NtRp1196
(dp1197
g73
(dp1198
sg82
g1018
sg75
(lp1199
g68
(g89
g70
NtRp1200
(dp1201
g73
(dp1202
g93
g94
ssg82
g1196
sg75
(lp1203
S'http_accept_charset'
p1204
asbag68
(g89
g70
NtRp1205
(dp1206
g73
(dp1207
g100
g101
ssg82
g1196
sg75
(lp1208
S':'
asbag68
(g89
g70
NtRp1209
(dp1210
g73
(dp1211
sg82
g1196
sg75
(lp1212
g68
(g69
g70
NtRp1213
(dp1214
g73
(dp1215
g81
I4
ssg82
g1209
sg75
(lp1216
S'ISO-8859-1,utf-8;q=0.7,*;q=0.3'
p1217
asbasbasbag68
(g84
g70
NtRp1218
(dp1219
g73
(dp1220
sg82
g1018
sg75
(lp1221
g68
(g89
g70
NtRp1222
(dp1223
g73
(dp1224
g93
g94
ssg82
g1218
sg75
(lp1225
S'http_accept_encoding'
p1226
asbag68
(g89
g70
NtRp1227
(dp1228
g73
(dp1229
g100
g101
ssg82
g1218
sg75
(lp1230
S':'
asbag68
(g89
g70
NtRp1231
(dp1232
g73
(dp1233
sg82
g1218
sg75
(lp1234
g68
(g69
g70
NtRp1235
(dp1236
g73
(dp1237
g81
I4
ssg82
g1231
sg75
(lp1238
S'gzip,deflate,sdch'
p1239
asbasbasbag68
(g84
g70
NtRp1240
(dp1241
g73
(dp1242
sg82
g1018
sg75
(lp1243
g68
(g89
g70
NtRp1244
(dp1245
g73
(dp1246
g93
g94
ssg82
g1240
sg75
(lp1247
S'http_accept_language'
p1248
asbag68
(g89
g70
NtRp1249
(dp1250
g73
(dp1251
g100
g101
ssg82
g1240
sg75
(lp1252
S':'
asbag68
(g89
g70
NtRp1253
(dp1254
g73
(dp1255
sg82
g1240
sg75
(lp1256
g68
(g69
g70
NtRp1257
(dp1258
g73
(dp1259
g81
I4
ssg82
g1253
sg75
(lp1260
S'en-US,en;q=0.8'
p1261
asbasbasbag68
(g84
g70
NtRp1262
(dp1263
g73
(dp1264
sg82
g1018
sg75
(lp1265
g68
(g89
g70
NtRp1266
(dp1267
g73
(dp1268
g93
g94
ssg82
g1262
sg75
(lp1269
S'http_cache_control'
p1270
asbag68
(g89
g70
NtRp1271
(dp1272
g73
(dp1273
g100
g101
ssg82
g1262
sg75
(lp1274
S':'
asbag68
(g89
g70
NtRp1275
(dp1276
g73
(dp1277
sg82
g1262
sg75
(lp1278
g68
(g69
g70
NtRp1279
(dp1280
g73
(dp1281
g81
I4
ssg82
g1275
sg75
(lp1282
S'max-age=0'
p1283
asbasbasbag68
(g84
g70
NtRp1284
(dp1285
g73
(dp1286
sg82
g1018
sg75
(lp1287
g68
(g89
g70
NtRp1288
(dp1289
g73
(dp1290
g93
g94
ssg82
g1284
sg75
(lp1291
S'http_connection'
p1292
asbag68
(g89
g70
NtRp1293
(dp1294
g73
(dp1295
g100
g101
ssg82
g1284
sg75
(lp1296
S':'
asbag68
(g89
g70
NtRp1297
(dp1298
g73
(dp1299
sg82
g1284
sg75
(lp1300
g68
(g69
g70
NtRp1301
(dp1302
g73
(dp1303
g81
I4
ssg82
g1297
sg75
(lp1304
S'keep-alive'
p1305
asbasbasbag68
(g84
g70
NtRp1306
(dp1307
g73
(dp1308
sg82
g1018
sg75
(lp1309
g68
(g89
g70
NtRp1310
(dp1311
g73
(dp1312
g93
g94
ssg82
g1306
sg75
(lp1313
S'http_cookie'
p1314
asbag68
(g89
g70
NtRp1315
(dp1316
g73
(dp1317
g100
g101
ssg82
g1306
sg75
(lp1318
S':'
asbag68
(g89
g70
NtRp1319
(dp1320
g73
(dp1321
sg82
g1306
sg75
(lp1322
g68
(g69
g70
NtRp1323
(dp1324
g73
(dp1325
g81
I4
ssg82
g1319
sg75
(lp1326
S'__utmz=231008458.1308780762.2.2.utmcsr=blog.ovi.com|utmccn=(referral)|utmcmd=referral|utmcct=/2011/06/17/architecture-buffs-win-an-n8-thanks-to-3d-maps/; __utma=231008458.31146925.1301686846.1308784518.1308821596.4; __utmz=123610009.1308848100.1.1.utmcsr=(direct)|utmccn=(direct)|utmcmd=(none); __utma=123610009.1990170896.1308848100.1308848100.1308848100.1; session_id_welcome=89.123.2.193-656c74cb-a5a1-41e4-ac1a-2010553e1f38; session_id_raredisss_devel=89.123.2.193-209ddbd2-47ad-4cdf-8ea3-23e3682363fd; session_id_rdcdss=89.123.2.193-4e1de357-5b7c-4409-92bc-12a58f0742b6; session_id_admin=89.123.2.193-c73a459b-d1a2-42c0-b456-303b7fd610ac'
p1327
asbasbasbag68
(g84
g70
NtRp1328
(dp1329
g73
(dp1330
sg82
g1018
sg75
(lp1331
g68
(g89
g70
NtRp1332
(dp1333
g73
(dp1334
g93
g94
ssg82
g1328
sg75
(lp1335
S'http_host'
p1336
asbag68
(g89
g70
NtRp1337
(dp1338
g73
(dp1339
g100
g101
ssg82
g1328
sg75
(lp1340
S':'
asbag68
(g89
g70
NtRp1341
(dp1342
g73
(dp1343
sg82
g1328
sg75
(lp1344
g68
(g69
g70
NtRp1345
(dp1346
g73
(dp1347
g81
I4
ssg82
g1341
sg75
(lp1348
S'costanza.dragusin.ro'
p1349
asbasbasbag68
(g84
g70
NtRp1350
(dp1351
g73
(dp1352
sg82
g1018
sg75
(lp1353
g68
(g89
g70
NtRp1354
(dp1355
g73
(dp1356
g93
g94
ssg82
g1350
sg75
(lp1357
S'http_user_agent'
p1358
asbag68
(g89
g70
NtRp1359
(dp1360
g73
(dp1361
g100
g101
ssg82
g1350
sg75
(lp1362
S':'
asbag68
(g89
g70
NtRp1363
(dp1364
g73
(dp1365
sg82
g1350
sg75
(lp1366
g68
(g69
g70
NtRp1367
(dp1368
g73
(dp1369
g81
I4
ssg82
g1363
sg75
(lp1370
S'Mozilla/5.0 (Macintosh; Intel Mac OS X 10_6_8) AppleWebKit/534.30 (KHTML, like Gecko) Chrome/12.0.742.112 Safari/534.30'
p1371
asbasbasbag68
(g84
g70
NtRp1372
(dp1373
g73
(dp1374
sg82
g1018
sg75
(lp1375
g68
(g89
g70
NtRp1376
(dp1377
g73
(dp1378
g93
g94
ssg82
g1372
sg75
(lp1379
S'https'
p1380
asbag68
(g89
g70
NtRp1381
(dp1382
g73
(dp1383
g100
g101
ssg82
g1372
sg75
(lp1384
S':'
asbag68
(g89
g70
NtRp1385
(dp1386
g73
(dp1387
sg82
g1372
sg75
(lp1388
g68
(g69
g70
NtRp1389
(dp1390
g73
(dp1391
g81
I4
ssg82
g1385
sg75
(lp1392
S'1'
asbasbasbag68
(g84
g70
NtRp1393
(dp1394
g73
(dp1395
sg82
g1018
sg75
(lp1396
g68
(g89
g70
NtRp1397
(dp1398
g73
(dp1399
g93
g94
ssg82
g1393
sg75
(lp1400
S'mod_wsgi_application_group'
p1401
asbag68
(g89
g70
NtRp1402
(dp1403
g73
(dp1404
g100
g101
ssg82
g1393
sg75
(lp1405
S':'
asbag68
(g89
g70
NtRp1406
(dp1407
g73
(dp1408
sg82
g1393
sg75
(lp1409
g68
(g69
g70
NtRp1410
(dp1411
g73
(dp1412
g81
I4
ssg82
g1406
sg75
(lp1413
S'109.169.46.204|'
p1414
asbasbasbag68
(g84
g70
NtRp1415
(dp1416
g73
(dp1417
sg82
g1018
sg75
(lp1418
g68
(g89
g70
NtRp1419
(dp1420
g73
(dp1421
g93
g94
ssg82
g1415
sg75
(lp1422
S'mod_wsgi_callable_object'
p1423
asbag68
(g89
g70
NtRp1424
(dp1425
g73
(dp1426
g100
g101
ssg82
g1415
sg75
(lp1427
S':'
asbag68
(g89
g70
NtRp1428
(dp1429
g73
(dp1430
sg82
g1415
sg75
(lp1431
g68
(g69
g70
NtRp1432
(dp1433
g73
(dp1434
g81
I4
ssg82
g1428
sg75
(lp1435
S'application'
p1436
asbasbasbag68
(g84
g70
NtRp1437
(dp1438
g73
(dp1439
sg82
g1018
sg75
(lp1440
g68
(g89
g70
NtRp1441
(dp1442
g73
(dp1443
g93
g94
ssg82
g1437
sg75
(lp1444
S'mod_wsgi_handler_script'
p1445
asbag68
(g89
g70
NtRp1446
(dp1447
g73
(dp1448
g100
g101
ssg82
g1437
sg75
(lp1449
S':'
asbag68
(g89
g70
NtRp1450
(dp1451
g73
(dp1452
sg82
g1437
sg75
(lp1453
g68
(g69
g70
NtRp1454
(dp1455
g73
(dp1456
g81
I4
ssg82
g1450
sg75
(lp1457
S''
asbasbasbag68
(g84
g70
NtRp1458
(dp1459
g73
(dp1460
sg82
g1018
sg75
(lp1461
g68
(g89
g70
NtRp1462
(dp1463
g73
(dp1464
g93
g94
ssg82
g1458
sg75
(lp1465
S'mod_wsgi_input_chunked'
p1466
asbag68
(g89
g70
NtRp1467
(dp1468
g73
(dp1469
g100
g101
ssg82
g1458
sg75
(lp1470
S':'
asbag68
(g89
g70
NtRp1471
(dp1472
g73
(dp1473
sg82
g1458
sg75
(lp1474
g68
(g69
g70
NtRp1475
(dp1476
g73
(dp1477
g81
I4
ssg82
g1471
sg75
(lp1478
S'0'
asbasbasbag68
(g84
g70
NtRp1479
(dp1480
g73
(dp1481
sg82
g1018
sg75
(lp1482
g68
(g89
g70
NtRp1483
(dp1484
g73
(dp1485
g93
g94
ssg82
g1479
sg75
(lp1486
S'mod_wsgi_listener_host'
p1487
asbag68
(g89
g70
NtRp1488
(dp1489
g73
(dp1490
g100
g101
ssg82
g1479
sg75
(lp1491
S':'
asbag68
(g89
g70
NtRp1492
(dp1493
g73
(dp1494
sg82
g1479
sg75
(lp1495
g68
(g69
g70
NtRp1496
(dp1497
g73
(dp1498
g81
I4
ssg82
g1492
sg75
(lp1499
S''
asbasbasbag68
(g84
g70
NtRp1500
(dp1501
g73
(dp1502
sg82
g1018
sg75
(lp1503
g68
(g89
g70
NtRp1504
(dp1505
g73
(dp1506
g93
g94
ssg82
g1500
sg75
(lp1507
S'mod_wsgi_listener_port'
p1508
asbag68
(g89
g70
NtRp1509
(dp1510
g73
(dp1511
g100
g101
ssg82
g1500
sg75
(lp1512
S':'
asbag68
(g89
g70
NtRp1513
(dp1514
g73
(dp1515
sg82
g1500
sg75
(lp1516
g68
(g69
g70
NtRp1517
(dp1518
g73
(dp1519
g81
I4
ssg82
g1513
sg75
(lp1520
S'443'
p1521
asbasbasbag68
(g84
g70
NtRp1522
(dp1523
g73
(dp1524
sg82
g1018
sg75
(lp1525
g68
(g89
g70
NtRp1526
(dp1527
g73
(dp1528
g93
g94
ssg82
g1522
sg75
(lp1529
S'mod_wsgi_process_group'
p1530
asbag68
(g89
g70
NtRp1531
(dp1532
g73
(dp1533
g100
g101
ssg82
g1522
sg75
(lp1534
S':'
asbag68
(g89
g70
NtRp1535
(dp1536
g73
(dp1537
sg82
g1522
sg75
(lp1538
g68
(g69
g70
NtRp1539
(dp1540
g73
(dp1541
g81
I4
ssg82
g1535
sg75
(lp1542
S'web2py'
p1543
asbasbasbag68
(g84
g70
NtRp1544
(dp1545
g73
(dp1546
sg82
g1018
sg75
(lp1547
g68
(g89
g70
NtRp1548
(dp1549
g73
(dp1550
g93
g94
ssg82
g1544
sg75
(lp1551
S'mod_wsgi_request_handler'
p1552
asbag68
(g89
g70
NtRp1553
(dp1554
g73
(dp1555
g100
g101
ssg82
g1544
sg75
(lp1556
S':'
asbag68
(g89
g70
NtRp1557
(dp1558
g73
(dp1559
sg82
g1544
sg75
(lp1560
g68
(g69
g70
NtRp1561
(dp1562
g73
(dp1563
g81
I4
ssg82
g1557
sg75
(lp1564
S'wsgi-script'
p1565
asbasbasbag68
(g84
g70
NtRp1566
(dp1567
g73
(dp1568
sg82
g1018
sg75
(lp1569
g68
(g89
g70
NtRp1570
(dp1571
g73
(dp1572
g93
g94
ssg82
g1566
sg75
(lp1573
S'mod_wsgi_script_reloading'
p1574
asbag68
(g89
g70
NtRp1575
(dp1576
g73
(dp1577
g100
g101
ssg82
g1566
sg75
(lp1578
S':'
asbag68
(g89
g70
NtRp1579
(dp1580
g73
(dp1581
sg82
g1566
sg75
(lp1582
g68
(g69
g70
NtRp1583
(dp1584
g73
(dp1585
g81
I4
ssg82
g1579
sg75
(lp1586
S'1'
asbasbasbag68
(g84
g70
NtRp1587
(dp1588
g73
(dp1589
sg82
g1018
sg75
(lp1590
g68
(g89
g70
NtRp1591
(dp1592
g73
(dp1593
g93
g94
ssg82
g1587
sg75
(lp1594
S'mod_wsgi_version'
p1595
asbag68
(g89
g70
NtRp1596
(dp1597
g73
(dp1598
g100
g101
ssg82
g1587
sg75
(lp1599
S':'
asbag68
(g89
g70
NtRp1600
(dp1601
g73
(dp1602
sg82
g1587
sg75
(lp1603
g68
(g69
g70
NtRp1604
(dp1605
g73
(dp1606
g81
I4
ssg82
g1600
sg75
(lp1607
g68
(g77
g70
NtRp1608
(dp1609
g73
(dp1610
g81
I3
ssg82
Nsg75
(lp1611
g68
(g84
g70
NtRp1612
(dp1613
g73
(dp1614
sg82
g1608
sg75
(lp1615
g68
(g89
g70
NtRp1616
(dp1617
g73
(dp1618
sg82
g1612
sg75
(lp1619
g68
(g69
g70
NtRp1620
(dp1621
g73
(dp1622
g81
I3
ssg82
g1616
sg75
(lp1623
S'3'
asbasbasbag68
(g84
g70
NtRp1624
(dp1625
g73
(dp1626
sg82
g1608
sg75
(lp1627
g68
(g89
g70
NtRp1628
(dp1629
g73
(dp1630
sg82
g1624
sg75
(lp1631
g68
(g69
g70
NtRp1632
(dp1633
g73
(dp1634
g81
I3
ssg82
g1628
sg75
(lp1635
S'2'
asbasbasbasbasbasbasbag68
(g84
g70
NtRp1636
(dp1637
g73
(dp1638
sg82
g1018
sg75
(lp1639
g68
(g89
g70
NtRp1640
(dp1641
g73
(dp1642
g93
g94
ssg82
g1636
sg75
(lp1643
S'path_info'
p1644
asbag68
(g89
g70
NtRp1645
(dp1646
g73
(dp1647
g100
g101
ssg82
g1636
sg75
(lp1648
S':'
asbag68
(g89
g70
NtRp1649
(dp1650
g73
(dp1651
sg82
g1636
sg75
(lp1652
g68
(g69
g70
NtRp1653
(dp1654
g73
(dp1655
g81
I4
ssg82
g1649
sg75
(lp1656
S'/rdcdss/default/index.xml'
p1657
asbasbasbag68
(g84
g70
NtRp1658
(dp1659
g73
(dp1660
sg82
g1018
sg75
(lp1661
g68
(g89
g70
NtRp1662
(dp1663
g73
(dp1664
g93
g94
ssg82
g1658
sg75
(lp1665
S'path_translated'
p1666
asbag68
(g89
g70
NtRp1667
(dp1668
g73
(dp1669
g100
g101
ssg82
g1658
sg75
(lp1670
S':'
asbag68
(g89
g70
NtRp1671
(dp1672
g73
(dp1673
sg82
g1658
sg75
(lp1674
g68
(g69
g70
NtRp1675
(dp1676
g73
(dp1677
g81
I4
ssg82
g1671
sg75
(lp1678
S'/home/www-data/web2py/wsgihandler.py/rdcdss/default/index.xml'
p1679
asbasbasbag68
(g84
g70
NtRp1680
(dp1681
g73
(dp1682
sg82
g1018
sg75
(lp1683
g68
(g89
g70
NtRp1684
(dp1685
g73
(dp1686
g93
g94
ssg82
g1680
sg75
(lp1687
S'query_string'
p1688
asbag68
(g89
g70
NtRp1689
(dp1690
g73
(dp1691
g100
g101
ssg82
g1680
sg75
(lp1692
S':'
asbag68
(g89
g70
NtRp1693
(dp1694
g73
(dp1695
sg82
g1680
sg75
(lp1696
g68
(g69
g70
NtRp1697
(dp1698
g73
(dp1699
g81
I4
ssg82
g1693
sg75
(lp1700
S'q=anemia%2C+low+red+blood+cells+count%2C+infection'
p1701
asbasbasbag68
(g84
g70
NtRp1702
(dp1703
g73
(dp1704
sg82
g1018
sg75
(lp1705
g68
(g89
g70
NtRp1706
(dp1707
g73
(dp1708
g93
g94
ssg82
g1702
sg75
(lp1709
S'remote_addr'
p1710
asbag68
(g89
g70
NtRp1711
(dp1712
g73
(dp1713
g100
g101
ssg82
g1702
sg75
(lp1714
S':'
asbag68
(g89
g70
NtRp1715
(dp1716
g73
(dp1717
sg82
g1702
sg75
(lp1718
g68
(g69
g70
NtRp1719
(dp1720
g73
(dp1721
g81
I4
ssg82
g1715
sg75
(lp1722
g201
asbasbasbag68
(g84
g70
NtRp1723
(dp1724
g73
(dp1725
sg82
g1018
sg75
(lp1726
g68
(g89
g70
NtRp1727
(dp1728
g73
(dp1729
g93
g94
ssg82
g1723
sg75
(lp1730
S'remote_port'
p1731
asbag68
(g89
g70
NtRp1732
(dp1733
g73
(dp1734
g100
g101
ssg82
g1723
sg75
(lp1735
S':'
asbag68
(g89
g70
NtRp1736
(dp1737
g73
(dp1738
sg82
g1723
sg75
(lp1739
g68
(g69
g70
NtRp1740
(dp1741
g73
(dp1742
g81
I4
ssg82
g1736
sg75
(lp1743
S'59449'
p1744
asbasbasbag68
(g84
g70
NtRp1745
(dp1746
g73
(dp1747
sg82
g1018
sg75
(lp1748
g68
(g89
g70
NtRp1749
(dp1750
g73
(dp1751
g93
g94
ssg82
g1745
sg75
(lp1752
S'request_method'
p1753
asbag68
(g89
g70
NtRp1754
(dp1755
g73
(dp1756
g100
g101
ssg82
g1745
sg75
(lp1757
S':'
asbag68
(g89
g70
NtRp1758
(dp1759
g73
(dp1760
sg82
g1745
sg75
(lp1761
g68
(g69
g70
NtRp1762
(dp1763
g73
(dp1764
g81
I4
ssg82
g1758
sg75
(lp1765
S'GET'
p1766
asbasbasbag68
(g84
g70
NtRp1767
(dp1768
g73
(dp1769
sg82
g1018
sg75
(lp1770
g68
(g89
g70
NtRp1771
(dp1772
g73
(dp1773
g93
g94
ssg82
g1767
sg75
(lp1774
S'request_uri'
p1775
asbag68
(g89
g70
NtRp1776
(dp1777
g73
(dp1778
g100
g101
ssg82
g1767
sg75
(lp1779
S':'
asbag68
(g89
g70
NtRp1780
(dp1781
g73
(dp1782
sg82
g1767
sg75
(lp1783
g68
(g69
g70
NtRp1784
(dp1785
g73
(dp1786
g81
I4
ssg82
g1780
sg75
(lp1787
S'/rdcdss/default/index.xml?q=anemia%2C+low+red+blood+cells+count%2C+infection'
p1788
asbasbasbag68
(g84
g70
NtRp1789
(dp1790
g73
(dp1791
sg82
g1018
sg75
(lp1792
g68
(g89
g70
NtRp1793
(dp1794
g73
(dp1795
g93
g94
ssg82
g1789
sg75
(lp1796
S'script_filename'
p1797
asbag68
(g89
g70
NtRp1798
(dp1799
g73
(dp1800
g100
g101
ssg82
g1789
sg75
(lp1801
S':'
asbag68
(g89
g70
NtRp1802
(dp1803
g73
(dp1804
sg82
g1789
sg75
(lp1805
g68
(g69
g70
NtRp1806
(dp1807
g73
(dp1808
g81
I4
ssg82
g1802
sg75
(lp1809
S'/home/www-data/web2py/wsgihandler.py'
p1810
asbasbasbag68
(g84
g70
NtRp1811
(dp1812
g73
(dp1813
sg82
g1018
sg75
(lp1814
g68
(g89
g70
NtRp1815
(dp1816
g73
(dp1817
g93
g94
ssg82
g1811
sg75
(lp1818
S'script_name'
p1819
asbag68
(g89
g70
NtRp1820
(dp1821
g73
(dp1822
g100
g101
ssg82
g1811
sg75
(lp1823
S':'
asbag68
(g89
g70
NtRp1824
(dp1825
g73
(dp1826
sg82
g1811
sg75
(lp1827
g68
(g69
g70
NtRp1828
(dp1829
g73
(dp1830
g81
I4
ssg82
g1824
sg75
(lp1831
S''
asbasbasbag68
(g84
g70
NtRp1832
(dp1833
g73
(dp1834
sg82
g1018
sg75
(lp1835
g68
(g89
g70
NtRp1836
(dp1837
g73
(dp1838
g93
g94
ssg82
g1832
sg75
(lp1839
S'server_addr'
p1840
asbag68
(g89
g70
NtRp1841
(dp1842
g73
(dp1843
g100
g101
ssg82
g1832
sg75
(lp1844
S':'
asbag68
(g89
g70
NtRp1845
(dp1846
g73
(dp1847
sg82
g1832
sg75
(lp1848
g68
(g69
g70
NtRp1849
(dp1850
g73
(dp1851
g81
I4
ssg82
g1845
sg75
(lp1852
S'109.169.46.204'
p1853
asbasbasbag68
(g84
g70
NtRp1854
(dp1855
g73
(dp1856
sg82
g1018
sg75
(lp1857
g68
(g89
g70
NtRp1858
(dp1859
g73
(dp1860
g93
g94
ssg82
g1854
sg75
(lp1861
S'server_admin'
p1862
asbag68
(g89
g70
NtRp1863
(dp1864
g73
(dp1865
g100
g101
ssg82
g1854
sg75
(lp1866
S':'
asbag68
(g89
g70
NtRp1867
(dp1868
g73
(dp1869
sg82
g1854
sg75
(lp1870
g68
(g69
g70
NtRp1871
(dp1872
g73
(dp1873
g81
I4
ssg82
g1867
sg75
(lp1874
S'[no address given]'
p1875
asbasbasbag68
(g84
g70
NtRp1876
(dp1877
g73
(dp1878
sg82
g1018
sg75
(lp1879
g68
(g89
g70
NtRp1880
(dp1881
g73
(dp1882
g93
g94
ssg82
g1876
sg75
(lp1883
S'server_name'
p1884
asbag68
(g89
g70
NtRp1885
(dp1886
g73
(dp1887
g100
g101
ssg82
g1876
sg75
(lp1888
S':'
asbag68
(g89
g70
NtRp1889
(dp1890
g73
(dp1891
sg82
g1876
sg75
(lp1892
g68
(g69
g70
NtRp1893
(dp1894
g73
(dp1895
g81
I4
ssg82
g1889
sg75
(lp1896
S'costanza.dragusin.ro'
p1897
asbasbasbag68
(g84
g70
NtRp1898
(dp1899
g73
(dp1900
sg82
g1018
sg75
(lp1901
g68
(g89
g70
NtRp1902
(dp1903
g73
(dp1904
g93
g94
ssg82
g1898
sg75
(lp1905
S'server_port'
p1906
asbag68
(g89
g70
NtRp1907
(dp1908
g73
(dp1909
g100
g101
ssg82
g1898
sg75
(lp1910
S':'
asbag68
(g89
g70
NtRp1911
(dp1912
g73
(dp1913
sg82
g1898
sg75
(lp1914
g68
(g69
g70
NtRp1915
(dp1916
g73
(dp1917
g81
I4
ssg82
g1911
sg75
(lp1918
S'443'
p1919
asbasbasbag68
(g84
g70
NtRp1920
(dp1921
g73
(dp1922
sg82
g1018
sg75
(lp1923
g68
(g89
g70
NtRp1924
(dp1925
g73
(dp1926
g93
g94
ssg82
g1920
sg75
(lp1927
S'server_protocol'
p1928
asbag68
(g89
g70
NtRp1929
(dp1930
g73
(dp1931
g100
g101
ssg82
g1920
sg75
(lp1932
S':'
asbag68
(g89
g70
NtRp1933
(dp1934
g73
(dp1935
sg82
g1920
sg75
(lp1936
g68
(g69
g70
NtRp1937
(dp1938
g73
(dp1939
g81
I4
ssg82
g1933
sg75
(lp1940
S'HTTP/1.1'
p1941
asbasbasbag68
(g84
g70
NtRp1942
(dp1943
g73
(dp1944
sg82
g1018
sg75
(lp1945
g68
(g89
g70
NtRp1946
(dp1947
g73
(dp1948
g93
g94
ssg82
g1942
sg75
(lp1949
S'server_signature'
p1950
asbag68
(g89
g70
NtRp1951
(dp1952
g73
(dp1953
g100
g101
ssg82
g1942
sg75
(lp1954
S':'
asbag68
(g89
g70
NtRp1955
(dp1956
g73
(dp1957
sg82
g1942
sg75
(lp1958
g68
(g69
g70
NtRp1959
(dp1960
g73
(dp1961
g81
I4
ssg82
g1955
sg75
(lp1962
S'<address>Apache/2.2.16 (Ubuntu) Server at costanza.dragusin.ro Port 443</address>\n'
p1963
asbasbasbag68
(g84
g70
NtRp1964
(dp1965
g73
(dp1966
sg82
g1018
sg75
(lp1967
g68
(g89
g70
NtRp1968
(dp1969
g73
(dp1970
g93
g94
ssg82
g1964
sg75
(lp1971
S'server_software'
p1972
asbag68
(g89
g70
NtRp1973
(dp1974
g73
(dp1975
g100
g101
ssg82
g1964
sg75
(lp1976
S':'
asbag68
(g89
g70
NtRp1977
(dp1978
g73
(dp1979
sg82
g1964
sg75
(lp1980
g68
(g69
g70
NtRp1981
(dp1982
g73
(dp1983
g81
I4
ssg82
g1977
sg75
(lp1984
S'Apache/2.2.16 (Ubuntu)'
p1985
asbasbasbag68
(g84
g70
NtRp1986
(dp1987
g73
(dp1988
sg82
g1018
sg75
(lp1989
g68
(g89
g70
NtRp1990
(dp1991
g73
(dp1992
g93
g94
ssg82
g1986
sg75
(lp1993
S'ssl_tls_sni'
p1994
asbag68
(g89
g70
NtRp1995
(dp1996
g73
(dp1997
g100
g101
ssg82
g1986
sg75
(lp1998
S':'
asbag68
(g89
g70
NtRp1999
(dp2000
g73
(dp2001
sg82
g1986
sg75
(lp2002
g68
(g69
g70
NtRp2003
(dp2004
g73
(dp2005
g81
I4
ssg82
g1999
sg75
(lp2006
S'costanza.dragusin.ro'
p2007
asbasbasbag68
(g84
g70
NtRp2008
(dp2009
g73
(dp2010
sg82
g1018
sg75
(lp2011
g68
(g89
g70
NtRp2012
(dp2013
g73
(dp2014
g93
g94
ssg82
g2008
sg75
(lp2015
S'web2py_path'
p2016
asbag68
(g89
g70
NtRp2017
(dp2018
g73
(dp2019
g100
g101
ssg82
g2008
sg75
(lp2020
S':'
asbag68
(g89
g70
NtRp2021
(dp2022
g73
(dp2023
sg82
g2008
sg75
(lp2024
g68
(g69
g70
NtRp2025
(dp2026
g73
(dp2027
g81
I4
ssg82
g2021
sg75
(lp2028
g1065
asbasbasbag68
(g84
g70
NtRp2029
(dp2030
g73
(dp2031
sg82
g1018
sg75
(lp2032
g68
(g89
g70
NtRp2033
(dp2034
g73
(dp2035
g93
g94
ssg82
g2029
sg75
(lp2036
S'web2py_version'
p2037
asbag68
(g89
g70
NtRp2038
(dp2039
g73
(dp2040
g100
g101
ssg82
g2029
sg75
(lp2041
S':'
asbag68
(g89
g70
NtRp2042
(dp2043
g73
(dp2044
sg82
g2029
sg75
(lp2045
g68
(g69
g70
NtRp2046
(dp2047
g73
(dp2048
g81
I4
ssg82
g2042
sg75
(lp2049
S'Version 1.95.1 (2011-04-25 15:04:14)\n'
p2050
asbasbasbag68
(g84
g70
NtRp2051
(dp2052
g73
(dp2053
sg82
g1018
sg75
(lp2054
g68
(g89
g70
NtRp2055
(dp2056
g73
(dp2057
g93
g94
ssg82
g2051
sg75
(lp2058
S'wsgi_errors'
p2059
asbag68
(g89
g70
NtRp2060
(dp2061
g73
(dp2062
g100
g101
ssg82
g2051
sg75
(lp2063
S':'
asbag68
(g89
g70
NtRp2064
(dp2065
g73
(dp2066
sg82
g2051
sg75
(lp2067
g68
(g69
g70
NtRp2068
(dp2069
g73
(dp2070
g81
I4
ssg82
g2064
sg75
(lp2071
S'<mod_wsgi.Log object at 0x2b9bdb7fd7f0>'
p2072
asbasbasbag68
(g84
g70
NtRp2073
(dp2074
g73
(dp2075
sg82
g1018
sg75
(lp2076
g68
(g89
g70
NtRp2077
(dp2078
g73
(dp2079
g93
g94
ssg82
g2073
sg75
(lp2080
S'wsgi_file_wrapper'
p2081
asbag68
(g89
g70
NtRp2082
(dp2083
g73
(dp2084
g100
g101
ssg82
g2073
sg75
(lp2085
S':'
asbag68
(g89
g70
NtRp2086
(dp2087
g73
(dp2088
sg82
g2073
sg75
(lp2089
g68
(g69
g70
NtRp2090
(dp2091
g73
(dp2092
g81
I4
ssg82
g2086
sg75
(lp2093
S'<built-in method file_wrapper of mod_wsgi.Adapter object at 0x2b9bdb8d8030>'
p2094
asbasbasbag68
(g84
g70
NtRp2095
(dp2096
g73
(dp2097
sg82
g1018
sg75
(lp2098
g68
(g89
g70
NtRp2099
(dp2100
g73
(dp2101
g93
g94
ssg82
g2095
sg75
(lp2102
S'wsgi_input'
p2103
asbag68
(g89
g70
NtRp2104
(dp2105
g73
(dp2106
g100
g101
ssg82
g2095
sg75
(lp2107
S':'
asbag68
(g89
g70
NtRp2108
(dp2109
g73
(dp2110
sg82
g2095
sg75
(lp2111
g68
(g69
g70
NtRp2112
(dp2113
g73
(dp2114
g81
I4
ssg82
g2108
sg75
(lp2115
S'<mod_wsgi.Input object at 0x2b9bdb7fdd70>'
p2116
asbasbasbag68
(g84
g70
NtRp2117
(dp2118
g73
(dp2119
sg82
g1018
sg75
(lp2120
g68
(g89
g70
NtRp2121
(dp2122
g73
(dp2123
g93
g94
ssg82
g2117
sg75
(lp2124
S'wsgi_multiprocess'
p2125
asbag68
(g89
g70
NtRp2126
(dp2127
g73
(dp2128
g100
g101
ssg82
g2117
sg75
(lp2129
S':'
asbag68
(g89
g70
NtRp2130
(dp2131
g73
(dp2132
sg82
g2117
sg75
(lp2133
g68
(g69
g70
NtRp2134
(dp2135
g73
(dp2136
g81
I4
ssg82
g2130
sg75
(lp2137
g111
asbasbasbag68
(g84
g70
NtRp2138
(dp2139
g73
(dp2140
sg82
g1018
sg75
(lp2141
g68
(g89
g70
NtRp2142
(dp2143
g73
(dp2144
g93
g94
ssg82
g2138
sg75
(lp2145
S'wsgi_multithread'
p2146
asbag68
(g89
g70
NtRp2147
(dp2148
g73
(dp2149
g100
g101
ssg82
g2138
sg75
(lp2150
S':'
asbag68
(g89
g70
NtRp2151
(dp2152
g73
(dp2153
sg82
g2138
sg75
(lp2154
g68
(g69
g70
NtRp2155
(dp2156
g73
(dp2157
g81
I4
ssg82
g2151
sg75
(lp2158
S'True'
p2159
asbasbasbag68
(g84
g70
NtRp2160
(dp2161
g73
(dp2162
sg82
g1018
sg75
(lp2163
g68
(g89
g70
NtRp2164
(dp2165
g73
(dp2166
g93
g94
ssg82
g2160
sg75
(lp2167
S'wsgi_run_once'
p2168
asbag68
(g89
g70
NtRp2169
(dp2170
g73
(dp2171
g100
g101
ssg82
g2160
sg75
(lp2172
S':'
asbag68
(g89
g70
NtRp2173
(dp2174
g73
(dp2175
sg82
g2160
sg75
(lp2176
g68
(g69
g70
NtRp2177
(dp2178
g73
(dp2179
g81
I4
ssg82
g2173
sg75
(lp2180
g111
asbasbasbag68
(g84
g70
NtRp2181
(dp2182
g73
(dp2183
sg82
g1018
sg75
(lp2184
g68
(g89
g70
NtRp2185
(dp2186
g73
(dp2187
g93
g94
ssg82
g2181
sg75
(lp2188
S'wsgi_url_scheme'
p2189
asbag68
(g89
g70
NtRp2190
(dp2191
g73
(dp2192
g100
g101
ssg82
g2181
sg75
(lp2193
S':'
asbag68
(g89
g70
NtRp2194
(dp2195
g73
(dp2196
sg82
g2181
sg75
(lp2197
g68
(g69
g70
NtRp2198
(dp2199
g73
(dp2200
g81
I4
ssg82
g2194
sg75
(lp2201
S'https'
p2202
asbasbasbag68
(g84
g70
NtRp2203
(dp2204
g73
(dp2205
sg82
g1018
sg75
(lp2206
g68
(g89
g70
NtRp2207
(dp2208
g73
(dp2209
g93
g94
ssg82
g2203
sg75
(lp2210
S'wsgi_version'
p2211
asbag68
(g89
g70
NtRp2212
(dp2213
g73
(dp2214
g100
g101
ssg82
g2203
sg75
(lp2215
S':'
asbag68
(g89
g70
NtRp2216
(dp2217
g73
(dp2218
sg82
g2203
sg75
(lp2219
g68
(g69
g70
NtRp2220
(dp2221
g73
(dp2222
g81
I4
ssg82
g2216
sg75
(lp2223
g68
(g77
g70
NtRp2224
(dp2225
g73
(dp2226
g81
I3
ssg82
Nsg75
(lp2227
g68
(g84
g70
NtRp2228
(dp2229
g73
(dp2230
sg82
g2224
sg75
(lp2231
g68
(g89
g70
NtRp2232
(dp2233
g73
(dp2234
sg82
g2228
sg75
(lp2235
g68
(g69
g70
NtRp2236
(dp2237
g73
(dp2238
g81
I3
ssg82
g2232
sg75
(lp2239
S'1'
asbasbasbag68
(g84
g70
NtRp2240
(dp2241
g73
(dp2242
sg82
g2224
sg75
(lp2243
g68
(g89
g70
NtRp2244
(dp2245
g73
(dp2246
sg82
g2240
sg75
(lp2247
g68
(g69
g70
NtRp2248
(dp2249
g73
(dp2250
g81
I3
ssg82
g2244
sg75
(lp2251
S'1'
asbasbasbasbasbasbasbasbasbasbasbag68
(g84
g70
NtRp2252
(dp2253
g73
(dp2254
sg82
g78
sg75
(lp2255
g68
(g89
g70
NtRp2256
(dp2257
g73
(dp2258
g93
g94
ssg82
g2252
sg75
(lp2259
S'extension'
p2260
asbag68
(g89
g70
NtRp2261
(dp2262
g73
(dp2263
g100
g101
ssg82
g2252
sg75
(lp2264
S':'
asbag68
(g89
g70
NtRp2265
(dp2266
g73
(dp2267
sg82
g2252
sg75
(lp2268
g68
(g69
g70
NtRp2269
(dp2270
g73
(dp2271
g81
I5
ssg82
g2265
sg75
(lp2272
S'xml'
p2273
asbasbasbag68
(g84
g70
NtRp2274
(dp2275
g73
(dp2276
sg82
g78
sg75
(lp2277
g68
(g89
g70
NtRp2278
(dp2279
g73
(dp2280
g93
g94
ssg82
g2274
sg75
(lp2281
S'folder'
p2282
asbag68
(g89
g70
NtRp2283
(dp2284
g73
(dp2285
g100
g101
ssg82
g2274
sg75
(lp2286
S':'
asbag68
(g89
g70
NtRp2287
(dp2288
g73
(dp2289
sg82
g2274
sg75
(lp2290
g68
(g69
g70
NtRp2291
(dp2292
g73
(dp2293
g81
I5
ssg82
g2287
sg75
(lp2294
S'/home/www-data/web2py/applications/rdcdss/'
p2295
asbasbasbag68
(g84
g70
NtRp2296
(dp2297
g73
(dp2298
sg82
g78
sg75
(lp2299
g68
(g89
g70
NtRp2300
(dp2301
g73
(dp2302
g93
g94
ssg82
g2296
sg75
(lp2303
S'function'
p2304
asbag68
(g89
g70
NtRp2305
(dp2306
g73
(dp2307
g100
g101
ssg82
g2296
sg75
(lp2308
S':'
asbag68
(g89
g70
NtRp2309
(dp2310
g73
(dp2311
sg82
g2296
sg75
(lp2312
g68
(g69
g70
NtRp2313
(dp2314
g73
(dp2315
g81
I5
ssg82
g2309
sg75
(lp2316
S'index'
p2317
asbasbasbag68
(g84
g70
NtRp2318
(dp2319
g73
(dp2320
sg82
g78
sg75
(lp2321
g68
(g89
g70
NtRp2322
(dp2323
g73
(dp2324
g93
g94
ssg82
g2318
sg75
(lp2325
S'get_vars'
p2326
asbag68
(g89
g70
NtRp2327
(dp2328
g73
(dp2329
g100
g101
ssg82
g2318
sg75
(lp2330
S':'
asbag68
(g89
g70
NtRp2331
(dp2332
g73
(dp2333
sg82
g2318
sg75
(lp2334
g68
(g69
g70
NtRp2335
(dp2336
g73
(dp2337
g81
I5
ssg82
g2331
sg75
(lp2338
g68
(g77
g70
NtRp2339
(dp2340
g73
(dp2341
g81
I4
ssg82
Nsg75
(lp2342
g68
(g84
g70
NtRp2343
(dp2344
g73
(dp2345
sg82
g2339
sg75
(lp2346
g68
(g89
g70
NtRp2347
(dp2348
g73
(dp2349
g93
g94
ssg82
g2343
sg75
(lp2350
S'q'
asbag68
(g89
g70
NtRp2351
(dp2352
g73
(dp2353
g100
g101
ssg82
g2343
sg75
(lp2354
S':'
asbag68
(g89
g70
NtRp2355
(dp2356
g73
(dp2357
sg82
g2343
sg75
(lp2358
g68
(g69
g70
NtRp2359
(dp2360
g73
(dp2361
g81
I4
ssg82
g2355
sg75
(lp2362
S'anemia, low red blood cells count, infection'
p2363
asbasbasbasbasbasbasbag68
(g84
g70
NtRp2364
(dp2365
g73
(dp2366
sg82
g78
sg75
(lp2367
g68
(g89
g70
NtRp2368
(dp2369
g73
(dp2370
g93
g94
ssg82
g2364
sg75
(lp2371
S'is_restful'
p2372
asbag68
(g89
g70
NtRp2373
(dp2374
g73
(dp2375
g100
g101
ssg82
g2364
sg75
(lp2376
S':'
asbag68
(g89
g70
NtRp2377
(dp2378
g73
(dp2379
sg82
g2364
sg75
(lp2380
g68
(g69
g70
NtRp2381
(dp2382
g73
(dp2383
g81
I5
ssg82
g2377
sg75
(lp2384
g111
asbasbasbag68
(g84
g70
NtRp2385
(dp2386
g73
(dp2387
sg82
g78
sg75
(lp2388
g68
(g89
g70
NtRp2389
(dp2390
g73
(dp2391
g93
g94
ssg82
g2385
sg75
(lp2392
S'now'
p2393
asbag68
(g89
g70
NtRp2394
(dp2395
g73
(dp2396
g100
g101
ssg82
g2385
sg75
(lp2397
S':'
asbag68
(g89
g70
NtRp2398
(dp2399
g73
(dp2400
sg82
g2385
sg75
(lp2401
g68
(g69
g70
NtRp2402
(dp2403
g73
(dp2404
g81
I5
ssg82
g2398
sg75
(lp2405
S'datetime.datetime(2011, 6, 30, 16, 39, 36, 639742)'
p2406
asbasbasbag68
(g84
g70
NtRp2407
(dp2408
g73
(dp2409
sg82
g78
sg75
(lp2410
g68
(g89
g70
NtRp2411
(dp2412
g73
(dp2413
g93
g94
ssg82
g2407
sg75
(lp2414
S'post_vars'
p2415
asbag68
(g89
g70
NtRp2416
(dp2417
g73
(dp2418
g100
g101
ssg82
g2407
sg75
(lp2419
S':'
asbag68
(g89
g70
NtRp2420
(dp2421
g73
(dp2422
sg82
g2407
sg75
(lp2423
g68
(g69
g70
NtRp2424
(dp2425
g73
(dp2426
g81
I5
ssg82
g2420
sg75
(lp2427
g68
(g77
g70
NtRp2428
(dp2429
g73
(dp2430
g81
I4
ssg82
Nsg75
(lp2431
sbasbasbasbag68
(g84
g70
NtRp2432
(dp2433
g73
(dp2434
sg82
g78
sg75
(lp2435
g68
(g89
g70
NtRp2436
(dp2437
g73
(dp2438
g93
g94
ssg82
g2432
sg75
(lp2439
S'raw_extension'
p2440
asbag68
(g89
g70
NtRp2441
(dp2442
g73
(dp2443
g100
g101
ssg82
g2432
sg75
(lp2444
S':'
asbag68
(g89
g70
NtRp2445
(dp2446
g73
(dp2447
sg82
g2432
sg75
(lp2448
g68
(g69
g70
NtRp2449
(dp2450
g73
(dp2451
g81
I5
ssg82
g2445
sg75
(lp2452
g2273
asbasbasbag68
(g84
g70
NtRp2453
(dp2454
g73
(dp2455
sg82
g78
sg75
(lp2456
g68
(g89
g70
NtRp2457
(dp2458
g73
(dp2459
g93
g94
ssg82
g2453
sg75
(lp2460
S'url'
p2461
asbag68
(g89
g70
NtRp2462
(dp2463
g73
(dp2464
g100
g101
ssg82
g2453
sg75
(lp2465
S':'
asbag68
(g89
g70
NtRp2466
(dp2467
g73
(dp2468
sg82
g2453
sg75
(lp2469
g68
(g69
g70
NtRp2470
(dp2471
g73
(dp2472
g81
I5
ssg82
g2466
sg75
(lp2473
S'/rdcdss/default/index.xml'
p2474
asbasbasbag68
(g84
g70
NtRp2475
(dp2476
g73
(dp2477
sg82
g78
sg75
(lp2478
g68
(g89
g70
NtRp2479
(dp2480
g73
(dp2481
g93
g94
ssg82
g2475
sg75
(lp2482
S'uuid'
p2483
asbag68
(g89
g70
NtRp2484
(dp2485
g73
(dp2486
g100
g101
ssg82
g2475
sg75
(lp2487
S':'
asbag68
(g89
g70
NtRp2488
(dp2489
g73
(dp2490
sg82
g2475
sg75
(lp2491
g68
(g69
g70
NtRp2492
(dp2493
g73
(dp2494
g81
I5
ssg82
g2488
sg75
(lp2495
S'rdcdss/89.123.2.193.2011-06-30.16-39-36.62647aea-49bd-456a-8289-23a563cf40f2'
p2496
asbasbasbag68
(g84
g70
NtRp2497
(dp2498
g73
(dp2499
sg82
g78
sg75
(lp2500
g68
(g89
g70
NtRp2501
(dp2502
g73
(dp2503
g93
g94
ssg82
g2497
sg75
(lp2504
S'vars'
p2505
asbag68
(g89
g70
NtRp2506
(dp2507
g73
(dp2508
g100
g101
ssg82
g2497
sg75
(lp2509
S':'
asbag68
(g89
g70
NtRp2510
(dp2511
g73
(dp2512
sg82
g2497
sg75
(lp2513
g68
(g69
g70
NtRp2514
(dp2515
g73
(dp2516
g81
I5
ssg82
g2510
sg75
(lp2517
g68
(g77
g70
NtRp2518
(dp2519
g73
(dp2520
g81
I4
ssg82
Nsg75
(lp2521
g68
(g84
g70
NtRp2522
(dp2523
g73
(dp2524
sg82
g2518
sg75
(lp2525
g68
(g89
g70
NtRp2526
(dp2527
g73
(dp2528
g93
g94
ssg82
g2522
sg75
(lp2529
S'q'
asbag68
(g89
g70
NtRp2530
(dp2531
g73
(dp2532
g100
g101
ssg82
g2522
sg75
(lp2533
S':'
asbag68
(g89
g70
NtRp2534
(dp2535
g73
(dp2536
sg82
g2522
sg75
(lp2537
g68
(g69
g70
NtRp2538
(dp2539
g73
(dp2540
g81
I4
ssg82
g2534
sg75
(lp2541
g2363
asbasbasbasbasbasbasbag68
(g84
g70
NtRp2542
(dp2543
g73
(dp2544
sg82
g78
sg75
(lp2545
g68
(g89
g70
NtRp2546
(dp2547
g73
(dp2548
g93
g94
ssg82
g2542
sg75
(lp2549
S'wsgi'
p2550
asbag68
(g89
g70
NtRp2551
(dp2552
g73
(dp2553
g100
g101
ssg82
g2542
sg75
(lp2554
S':'
asbag68
(g89
g70
NtRp2555
(dp2556
g73
(dp2557
sg82
g2542
sg75
(lp2558
g68
(g69
g70
NtRp2559
(dp2560
g73
(dp2561
g81
I5
ssg82
g2555
sg75
(lp2562
g68
(g77
g70
NtRp2563
(dp2564
g73
(dp2565
g81
I4
ssg82
Nsg75
(lp2566
g68
(g84
g70
NtRp2567
(dp2568
g73
(dp2569
sg82
g2563
sg75
(lp2570
g68
(g89
g70
NtRp2571
(dp2572
g73
(dp2573
g93
g94
ssg82
g2567
sg75
(lp2574
S'environ'
p2575
asbag68
(g89
g70
NtRp2576
(dp2577
g73
(dp2578
g100
g101
ssg82
g2567
sg75
(lp2579
S':'
asbag68
(g89
g70
NtRp2580
(dp2581
g73
(dp2582
sg82
g2567
sg75
(lp2583
g68
(g69
g70
NtRp2584
(dp2585
g73
(dp2586
g81
I4
ssg82
g2580
sg75
(lp2587
g68
(g77
g70
NtRp2588
(dp2589
g73
(dp2590
g81
I3
ssg82
Nsg75
(lp2591
g68
(g84
g70
NtRp2592
(dp2593
g73
(dp2594
sg82
g2588
sg75
(lp2595
g68
(g89
g70
NtRp2596
(dp2597
g73
(dp2598
g93
g94
ssg82
g2592
sg75
(lp2599
S'DOCUMENT_ROOT'
p2600
asbag68
(g89
g70
NtRp2601
(dp2602
g73
(dp2603
g100
g101
ssg82
g2592
sg75
(lp2604
S':'
asbag68
(g89
g70
NtRp2605
(dp2606
g73
(dp2607
sg82
g2592
sg75
(lp2608
g68
(g69
g70
NtRp2609
(dp2610
g73
(dp2611
g81
I3
ssg82
g2605
sg75
(lp2612
g1130
asbasbasbag68
(g84
g70
NtRp2613
(dp2614
g73
(dp2615
sg82
g2588
sg75
(lp2616
g68
(g89
g70
NtRp2617
(dp2618
g73
(dp2619
g93
g94
ssg82
g2613
sg75
(lp2620
S'GATEWAY_INTERFACE'
p2621
asbag68
(g89
g70
NtRp2622
(dp2623
g73
(dp2624
g100
g101
ssg82
g2613
sg75
(lp2625
S':'
asbag68
(g89
g70
NtRp2626
(dp2627
g73
(dp2628
sg82
g2613
sg75
(lp2629
g68
(g69
g70
NtRp2630
(dp2631
g73
(dp2632
g81
I3
ssg82
g2626
sg75
(lp2633
g1152
asbasbasbag68
(g84
g70
NtRp2634
(dp2635
g73
(dp2636
sg82
g2588
sg75
(lp2637
g68
(g89
g70
NtRp2638
(dp2639
g73
(dp2640
g93
g94
ssg82
g2634
sg75
(lp2641
S'HTTPS'
p2642
asbag68
(g89
g70
NtRp2643
(dp2644
g73
(dp2645
g100
g101
ssg82
g2634
sg75
(lp2646
S':'
asbag68
(g89
g70
NtRp2647
(dp2648
g73
(dp2649
sg82
g2634
sg75
(lp2650
g68
(g69
g70
NtRp2651
(dp2652
g73
(dp2653
g81
I3
ssg82
g2647
sg75
(lp2654
S'1'
asbasbasbag68
(g84
g70
NtRp2655
(dp2656
g73
(dp2657
sg82
g2588
sg75
(lp2658
g68
(g89
g70
NtRp2659
(dp2660
g73
(dp2661
g93
g94
ssg82
g2655
sg75
(lp2662
S'HTTP_ACCEPT'
p2663
asbag68
(g89
g70
NtRp2664
(dp2665
g73
(dp2666
g100
g101
ssg82
g2655
sg75
(lp2667
S':'
asbag68
(g89
g70
NtRp2668
(dp2669
g73
(dp2670
sg82
g2655
sg75
(lp2671
g68
(g69
g70
NtRp2672
(dp2673
g73
(dp2674
g81
I3
ssg82
g2668
sg75
(lp2675
g1195
asbasbasbag68
(g84
g70
NtRp2676
(dp2677
g73
(dp2678
sg82
g2588
sg75
(lp2679
g68
(g89
g70
NtRp2680
(dp2681
g73
(dp2682
g93
g94
ssg82
g2676
sg75
(lp2683
S'HTTP_ACCEPT_CHARSET'
p2684
asbag68
(g89
g70
NtRp2685
(dp2686
g73
(dp2687
g100
g101
ssg82
g2676
sg75
(lp2688
S':'
asbag68
(g89
g70
NtRp2689
(dp2690
g73
(dp2691
sg82
g2676
sg75
(lp2692
g68
(g69
g70
NtRp2693
(dp2694
g73
(dp2695
g81
I3
ssg82
g2689
sg75
(lp2696
g1217
asbasbasbag68
(g84
g70
NtRp2697
(dp2698
g73
(dp2699
sg82
g2588
sg75
(lp2700
g68
(g89
g70
NtRp2701
(dp2702
g73
(dp2703
g93
g94
ssg82
g2697
sg75
(lp2704
S'HTTP_ACCEPT_ENCODING'
p2705
asbag68
(g89
g70
NtRp2706
(dp2707
g73
(dp2708
g100
g101
ssg82
g2697
sg75
(lp2709
S':'
asbag68
(g89
g70
NtRp2710
(dp2711
g73
(dp2712
sg82
g2697
sg75
(lp2713
g68
(g69
g70
NtRp2714
(dp2715
g73
(dp2716
g81
I3
ssg82
g2710
sg75
(lp2717
g1239
asbasbasbag68
(g84
g70
NtRp2718
(dp2719
g73
(dp2720
sg82
g2588
sg75
(lp2721
g68
(g89
g70
NtRp2722
(dp2723
g73
(dp2724
g93
g94
ssg82
g2718
sg75
(lp2725
S'HTTP_ACCEPT_LANGUAGE'
p2726
asbag68
(g89
g70
NtRp2727
(dp2728
g73
(dp2729
g100
g101
ssg82
g2718
sg75
(lp2730
S':'
asbag68
(g89
g70
NtRp2731
(dp2732
g73
(dp2733
sg82
g2718
sg75
(lp2734
g68
(g69
g70
NtRp2735
(dp2736
g73
(dp2737
g81
I3
ssg82
g2731
sg75
(lp2738
g1261
asbasbasbag68
(g84
g70
NtRp2739
(dp2740
g73
(dp2741
sg82
g2588
sg75
(lp2742
g68
(g89
g70
NtRp2743
(dp2744
g73
(dp2745
g93
g94
ssg82
g2739
sg75
(lp2746
S'HTTP_CACHE_CONTROL'
p2747
asbag68
(g89
g70
NtRp2748
(dp2749
g73
(dp2750
g100
g101
ssg82
g2739
sg75
(lp2751
S':'
asbag68
(g89
g70
NtRp2752
(dp2753
g73
(dp2754
sg82
g2739
sg75
(lp2755
g68
(g69
g70
NtRp2756
(dp2757
g73
(dp2758
g81
I3
ssg82
g2752
sg75
(lp2759
g1283
asbasbasbag68
(g84
g70
NtRp2760
(dp2761
g73
(dp2762
sg82
g2588
sg75
(lp2763
g68
(g89
g70
NtRp2764
(dp2765
g73
(dp2766
g93
g94
ssg82
g2760
sg75
(lp2767
S'HTTP_CONNECTION'
p2768
asbag68
(g89
g70
NtRp2769
(dp2770
g73
(dp2771
g100
g101
ssg82
g2760
sg75
(lp2772
S':'
asbag68
(g89
g70
NtRp2773
(dp2774
g73
(dp2775
sg82
g2760
sg75
(lp2776
g68
(g69
g70
NtRp2777
(dp2778
g73
(dp2779
g81
I3
ssg82
g2773
sg75
(lp2780
g1305
asbasbasbag68
(g84
g70
NtRp2781
(dp2782
g73
(dp2783
sg82
g2588
sg75
(lp2784
g68
(g89
g70
NtRp2785
(dp2786
g73
(dp2787
g93
g94
ssg82
g2781
sg75
(lp2788
S'HTTP_COOKIE'
p2789
asbag68
(g89
g70
NtRp2790
(dp2791
g73
(dp2792
g100
g101
ssg82
g2781
sg75
(lp2793
S':'
asbag68
(g89
g70
NtRp2794
(dp2795
g73
(dp2796
sg82
g2781
sg75
(lp2797
g68
(g69
g70
NtRp2798
(dp2799
g73
(dp2800
g81
I3
ssg82
g2794
sg75
(lp2801
g1327
asbasbasbag68
(g84
g70
NtRp2802
(dp2803
g73
(dp2804
sg82
g2588
sg75
(lp2805
g68
(g89
g70
NtRp2806
(dp2807
g73
(dp2808
g93
g94
ssg82
g2802
sg75
(lp2809
S'HTTP_HOST'
p2810
asbag68
(g89
g70
NtRp2811
(dp2812
g73
(dp2813
g100
g101
ssg82
g2802
sg75
(lp2814
S':'
asbag68
(g89
g70
NtRp2815
(dp2816
g73
(dp2817
sg82
g2802
sg75
(lp2818
g68
(g69
g70
NtRp2819
(dp2820
g73
(dp2821
g81
I3
ssg82
g2815
sg75
(lp2822
g1349
asbasbasbag68
(g84
g70
NtRp2823
(dp2824
g73
(dp2825
sg82
g2588
sg75
(lp2826
g68
(g89
g70
NtRp2827
(dp2828
g73
(dp2829
g93
g94
ssg82
g2823
sg75
(lp2830
S'HTTP_USER_AGENT'
p2831
asbag68
(g89
g70
NtRp2832
(dp2833
g73
(dp2834
g100
g101
ssg82
g2823
sg75
(lp2835
S':'
asbag68
(g89
g70
NtRp2836
(dp2837
g73
(dp2838
sg82
g2823
sg75
(lp2839
g68
(g69
g70
NtRp2840
(dp2841
g73
(dp2842
g81
I3
ssg82
g2836
sg75
(lp2843
g1371
asbasbasbag68
(g84
g70
NtRp2844
(dp2845
g73
(dp2846
sg82
g2588
sg75
(lp2847
g68
(g89
g70
NtRp2848
(dp2849
g73
(dp2850
g93
g94
ssg82
g2844
sg75
(lp2851
S'PATH_INFO'
p2852
asbag68
(g89
g70
NtRp2853
(dp2854
g73
(dp2855
g100
g101
ssg82
g2844
sg75
(lp2856
S':'
asbag68
(g89
g70
NtRp2857
(dp2858
g73
(dp2859
sg82
g2844
sg75
(lp2860
g68
(g69
g70
NtRp2861
(dp2862
g73
(dp2863
g81
I3
ssg82
g2857
sg75
(lp2864
g1657
asbasbasbag68
(g84
g70
NtRp2865
(dp2866
g73
(dp2867
sg82
g2588
sg75
(lp2868
g68
(g89
g70
NtRp2869
(dp2870
g73
(dp2871
g93
g94
ssg82
g2865
sg75
(lp2872
S'PATH_TRANSLATED'
p2873
asbag68
(g89
g70
NtRp2874
(dp2875
g73
(dp2876
g100
g101
ssg82
g2865
sg75
(lp2877
S':'
asbag68
(g89
g70
NtRp2878
(dp2879
g73
(dp2880
sg82
g2865
sg75
(lp2881
g68
(g69
g70
NtRp2882
(dp2883
g73
(dp2884
g81
I3
ssg82
g2878
sg75
(lp2885
g1679
asbasbasbag68
(g84
g70
NtRp2886
(dp2887
g73
(dp2888
sg82
g2588
sg75
(lp2889
g68
(g89
g70
NtRp2890
(dp2891
g73
(dp2892
g93
g94
ssg82
g2886
sg75
(lp2893
S'QUERY_STRING'
p2894
asbag68
(g89
g70
NtRp2895
(dp2896
g73
(dp2897
g100
g101
ssg82
g2886
sg75
(lp2898
S':'
asbag68
(g89
g70
NtRp2899
(dp2900
g73
(dp2901
sg82
g2886
sg75
(lp2902
g68
(g69
g70
NtRp2903
(dp2904
g73
(dp2905
g81
I3
ssg82
g2899
sg75
(lp2906
g1701
asbasbasbag68
(g84
g70
NtRp2907
(dp2908
g73
(dp2909
sg82
g2588
sg75
(lp2910
g68
(g89
g70
NtRp2911
(dp2912
g73
(dp2913
g93
g94
ssg82
g2907
sg75
(lp2914
S'REMOTE_ADDR'
p2915
asbag68
(g89
g70
NtRp2916
(dp2917
g73
(dp2918
g100
g101
ssg82
g2907
sg75
(lp2919
S':'
asbag68
(g89
g70
NtRp2920
(dp2921
g73
(dp2922
sg82
g2907
sg75
(lp2923
g68
(g69
g70
NtRp2924
(dp2925
g73
(dp2926
g81
I3
ssg82
g2920
sg75
(lp2927
g201
asbasbasbag68
(g84
g70
NtRp2928
(dp2929
g73
(dp2930
sg82
g2588
sg75
(lp2931
g68
(g89
g70
NtRp2932
(dp2933
g73
(dp2934
g93
g94
ssg82
g2928
sg75
(lp2935
S'REMOTE_PORT'
p2936
asbag68
(g89
g70
NtRp2937
(dp2938
g73
(dp2939
g100
g101
ssg82
g2928
sg75
(lp2940
S':'
asbag68
(g89
g70
NtRp2941
(dp2942
g73
(dp2943
sg82
g2928
sg75
(lp2944
g68
(g69
g70
NtRp2945
(dp2946
g73
(dp2947
g81
I3
ssg82
g2941
sg75
(lp2948
g1744
asbasbasbag68
(g84
g70
NtRp2949
(dp2950
g73
(dp2951
sg82
g2588
sg75
(lp2952
g68
(g89
g70
NtRp2953
(dp2954
g73
(dp2955
g93
g94
ssg82
g2949
sg75
(lp2956
S'REQUEST_METHOD'
p2957
asbag68
(g89
g70
NtRp2958
(dp2959
g73
(dp2960
g100
g101
ssg82
g2949
sg75
(lp2961
S':'
asbag68
(g89
g70
NtRp2962
(dp2963
g73
(dp2964
sg82
g2949
sg75
(lp2965
g68
(g69
g70
NtRp2966
(dp2967
g73
(dp2968
g81
I3
ssg82
g2962
sg75
(lp2969
g1766
asbasbasbag68
(g84
g70
NtRp2970
(dp2971
g73
(dp2972
sg82
g2588
sg75
(lp2973
g68
(g89
g70
NtRp2974
(dp2975
g73
(dp2976
g93
g94
ssg82
g2970
sg75
(lp2977
S'REQUEST_URI'
p2978
asbag68
(g89
g70
NtRp2979
(dp2980
g73
(dp2981
g100
g101
ssg82
g2970
sg75
(lp2982
S':'
asbag68
(g89
g70
NtRp2983
(dp2984
g73
(dp2985
sg82
g2970
sg75
(lp2986
g68
(g69
g70
NtRp2987
(dp2988
g73
(dp2989
g81
I3
ssg82
g2983
sg75
(lp2990
g1788
asbasbasbag68
(g84
g70
NtRp2991
(dp2992
g73
(dp2993
sg82
g2588
sg75
(lp2994
g68
(g89
g70
NtRp2995
(dp2996
g73
(dp2997
g93
g94
ssg82
g2991
sg75
(lp2998
S'SCRIPT_FILENAME'
p2999
asbag68
(g89
g70
NtRp3000
(dp3001
g73
(dp3002
g100
g101
ssg82
g2991
sg75
(lp3003
S':'
asbag68
(g89
g70
NtRp3004
(dp3005
g73
(dp3006
sg82
g2991
sg75
(lp3007
g68
(g69
g70
NtRp3008
(dp3009
g73
(dp3010
g81
I3
ssg82
g3004
sg75
(lp3011
g1810
asbasbasbag68
(g84
g70
NtRp3012
(dp3013
g73
(dp3014
sg82
g2588
sg75
(lp3015
g68
(g89
g70
NtRp3016
(dp3017
g73
(dp3018
g93
g94
ssg82
g3012
sg75
(lp3019
S'SCRIPT_NAME'
p3020
asbag68
(g89
g70
NtRp3021
(dp3022
g73
(dp3023
g100
g101
ssg82
g3012
sg75
(lp3024
S':'
asbag68
(g89
g70
NtRp3025
(dp3026
g73
(dp3027
sg82
g3012
sg75
(lp3028
g68
(g69
g70
NtRp3029
(dp3030
g73
(dp3031
g81
I3
ssg82
g3025
sg75
(lp3032
S''
asbasbasbag68
(g84
g70
NtRp3033
(dp3034
g73
(dp3035
sg82
g2588
sg75
(lp3036
g68
(g89
g70
NtRp3037
(dp3038
g73
(dp3039
g93
g94
ssg82
g3033
sg75
(lp3040
S'SERVER_ADDR'
p3041
asbag68
(g89
g70
NtRp3042
(dp3043
g73
(dp3044
g100
g101
ssg82
g3033
sg75
(lp3045
S':'
asbag68
(g89
g70
NtRp3046
(dp3047
g73
(dp3048
sg82
g3033
sg75
(lp3049
g68
(g69
g70
NtRp3050
(dp3051
g73
(dp3052
g81
I3
ssg82
g3046
sg75
(lp3053
g1853
asbasbasbag68
(g84
g70
NtRp3054
(dp3055
g73
(dp3056
sg82
g2588
sg75
(lp3057
g68
(g89
g70
NtRp3058
(dp3059
g73
(dp3060
g93
g94
ssg82
g3054
sg75
(lp3061
S'SERVER_ADMIN'
p3062
asbag68
(g89
g70
NtRp3063
(dp3064
g73
(dp3065
g100
g101
ssg82
g3054
sg75
(lp3066
S':'
asbag68
(g89
g70
NtRp3067
(dp3068
g73
(dp3069
sg82
g3054
sg75
(lp3070
g68
(g69
g70
NtRp3071
(dp3072
g73
(dp3073
g81
I3
ssg82
g3067
sg75
(lp3074
g1875
asbasbasbag68
(g84
g70
NtRp3075
(dp3076
g73
(dp3077
sg82
g2588
sg75
(lp3078
g68
(g89
g70
NtRp3079
(dp3080
g73
(dp3081
g93
g94
ssg82
g3075
sg75
(lp3082
S'SERVER_NAME'
p3083
asbag68
(g89
g70
NtRp3084
(dp3085
g73
(dp3086
g100
g101
ssg82
g3075
sg75
(lp3087
S':'
asbag68
(g89
g70
NtRp3088
(dp3089
g73
(dp3090
sg82
g3075
sg75
(lp3091
g68
(g69
g70
NtRp3092
(dp3093
g73
(dp3094
g81
I3
ssg82
g3088
sg75
(lp3095
g1897
asbasbasbag68
(g84
g70
NtRp3096
(dp3097
g73
(dp3098
sg82
g2588
sg75
(lp3099
g68
(g89
g70
NtRp3100
(dp3101
g73
(dp3102
g93
g94
ssg82
g3096
sg75
(lp3103
S'SERVER_PORT'
p3104
asbag68
(g89
g70
NtRp3105
(dp3106
g73
(dp3107
g100
g101
ssg82
g3096
sg75
(lp3108
S':'
asbag68
(g89
g70
NtRp3109
(dp3110
g73
(dp3111
sg82
g3096
sg75
(lp3112
g68
(g69
g70
NtRp3113
(dp3114
g73
(dp3115
g81
I3
ssg82
g3109
sg75
(lp3116
g1919
asbasbasbag68
(g84
g70
NtRp3117
(dp3118
g73
(dp3119
sg82
g2588
sg75
(lp3120
g68
(g89
g70
NtRp3121
(dp3122
g73
(dp3123
g93
g94
ssg82
g3117
sg75
(lp3124
S'SERVER_PROTOCOL'
p3125
asbag68
(g89
g70
NtRp3126
(dp3127
g73
(dp3128
g100
g101
ssg82
g3117
sg75
(lp3129
S':'
asbag68
(g89
g70
NtRp3130
(dp3131
g73
(dp3132
sg82
g3117
sg75
(lp3133
g68
(g69
g70
NtRp3134
(dp3135
g73
(dp3136
g81
I3
ssg82
g3130
sg75
(lp3137
g1941
asbasbasbag68
(g84
g70
NtRp3138
(dp3139
g73
(dp3140
sg82
g2588
sg75
(lp3141
g68
(g89
g70
NtRp3142
(dp3143
g73
(dp3144
g93
g94
ssg82
g3138
sg75
(lp3145
S'SERVER_SIGNATURE'
p3146
asbag68
(g89
g70
NtRp3147
(dp3148
g73
(dp3149
g100
g101
ssg82
g3138
sg75
(lp3150
S':'
asbag68
(g89
g70
NtRp3151
(dp3152
g73
(dp3153
sg82
g3138
sg75
(lp3154
g68
(g69
g70
NtRp3155
(dp3156
g73
(dp3157
g81
I3
ssg82
g3151
sg75
(lp3158
g1963
asbasbasbag68
(g84
g70
NtRp3159
(dp3160
g73
(dp3161
sg82
g2588
sg75
(lp3162
g68
(g89
g70
NtRp3163
(dp3164
g73
(dp3165
g93
g94
ssg82
g3159
sg75
(lp3166
S'SERVER_SOFTWARE'
p3167
asbag68
(g89
g70
NtRp3168
(dp3169
g73
(dp3170
g100
g101
ssg82
g3159
sg75
(lp3171
S':'
asbag68
(g89
g70
NtRp3172
(dp3173
g73
(dp3174
sg82
g3159
sg75
(lp3175
g68
(g69
g70
NtRp3176
(dp3177
g73
(dp3178
g81
I3
ssg82
g3172
sg75
(lp3179
g1985
asbasbasbag68
(g84
g70
NtRp3180
(dp3181
g73
(dp3182
sg82
g2588
sg75
(lp3183
g68
(g89
g70
NtRp3184
(dp3185
g73
(dp3186
g93
g94
ssg82
g3180
sg75
(lp3187
S'SSL_TLS_SNI'
p3188
asbag68
(g89
g70
NtRp3189
(dp3190
g73
(dp3191
g100
g101
ssg82
g3180
sg75
(lp3192
S':'
asbag68
(g89
g70
NtRp3193
(dp3194
g73
(dp3195
sg82
g3180
sg75
(lp3196
g68
(g69
g70
NtRp3197
(dp3198
g73
(dp3199
g81
I3
ssg82
g3193
sg75
(lp3200
g2007
asbasbasbag68
(g84
g70
NtRp3201
(dp3202
g73
(dp3203
sg82
g2588
sg75
(lp3204
g68
(g89
g70
NtRp3205
(dp3206
g73
(dp3207
g93
g94
ssg82
g3201
sg75
(lp3208
S'mod_wsgi.application_group'
p3209
asbag68
(g89
g70
NtRp3210
(dp3211
g73
(dp3212
g100
g101
ssg82
g3201
sg75
(lp3213
S':'
asbag68
(g89
g70
NtRp3214
(dp3215
g73
(dp3216
sg82
g3201
sg75
(lp3217
g68
(g69
g70
NtRp3218
(dp3219
g73
(dp3220
g81
I3
ssg82
g3214
sg75
(lp3221
g1414
asbasbasbag68
(g84
g70
NtRp3222
(dp3223
g73
(dp3224
sg82
g2588
sg75
(lp3225
g68
(g89
g70
NtRp3226
(dp3227
g73
(dp3228
g93
g94
ssg82
g3222
sg75
(lp3229
S'mod_wsgi.callable_object'
p3230
asbag68
(g89
g70
NtRp3231
(dp3232
g73
(dp3233
g100
g101
ssg82
g3222
sg75
(lp3234
S':'
asbag68
(g89
g70
NtRp3235
(dp3236
g73
(dp3237
sg82
g3222
sg75
(lp3238
g68
(g69
g70
NtRp3239
(dp3240
g73
(dp3241
g81
I3
ssg82
g3235
sg75
(lp3242
g1436
asbasbasbag68
(g84
g70
NtRp3243
(dp3244
g73
(dp3245
sg82
g2588
sg75
(lp3246
g68
(g89
g70
NtRp3247
(dp3248
g73
(dp3249
g93
g94
ssg82
g3243
sg75
(lp3250
S'mod_wsgi.handler_script'
p3251
asbag68
(g89
g70
NtRp3252
(dp3253
g73
(dp3254
g100
g101
ssg82
g3243
sg75
(lp3255
S':'
asbag68
(g89
g70
NtRp3256
(dp3257
g73
(dp3258
sg82
g3243
sg75
(lp3259
g68
(g69
g70
NtRp3260
(dp3261
g73
(dp3262
g81
I3
ssg82
g3256
sg75
(lp3263
S''
asbasbasbag68
(g84
g70
NtRp3264
(dp3265
g73
(dp3266
sg82
g2588
sg75
(lp3267
g68
(g89
g70
NtRp3268
(dp3269
g73
(dp3270
g93
g94
ssg82
g3264
sg75
(lp3271
S'mod_wsgi.input_chunked'
p3272
asbag68
(g89
g70
NtRp3273
(dp3274
g73
(dp3275
g100
g101
ssg82
g3264
sg75
(lp3276
S':'
asbag68
(g89
g70
NtRp3277
(dp3278
g73
(dp3279
sg82
g3264
sg75
(lp3280
g68
(g69
g70
NtRp3281
(dp3282
g73
(dp3283
g81
I3
ssg82
g3277
sg75
(lp3284
S'0'
asbasbasbag68
(g84
g70
NtRp3285
(dp3286
g73
(dp3287
sg82
g2588
sg75
(lp3288
g68
(g89
g70
NtRp3289
(dp3290
g73
(dp3291
g93
g94
ssg82
g3285
sg75
(lp3292
S'mod_wsgi.listener_host'
p3293
asbag68
(g89
g70
NtRp3294
(dp3295
g73
(dp3296
g100
g101
ssg82
g3285
sg75
(lp3297
S':'
asbag68
(g89
g70
NtRp3298
(dp3299
g73
(dp3300
sg82
g3285
sg75
(lp3301
g68
(g69
g70
NtRp3302
(dp3303
g73
(dp3304
g81
I3
ssg82
g3298
sg75
(lp3305
S''
asbasbasbag68
(g84
g70
NtRp3306
(dp3307
g73
(dp3308
sg82
g2588
sg75
(lp3309
g68
(g89
g70
NtRp3310
(dp3311
g73
(dp3312
g93
g94
ssg82
g3306
sg75
(lp3313
S'mod_wsgi.listener_port'
p3314
asbag68
(g89
g70
NtRp3315
(dp3316
g73
(dp3317
g100
g101
ssg82
g3306
sg75
(lp3318
S':'
asbag68
(g89
g70
NtRp3319
(dp3320
g73
(dp3321
sg82
g3306
sg75
(lp3322
g68
(g69
g70
NtRp3323
(dp3324
g73
(dp3325
g81
I3
ssg82
g3319
sg75
(lp3326
g1521
asbasbasbag68
(g84
g70
NtRp3327
(dp3328
g73
(dp3329
sg82
g2588
sg75
(lp3330
g68
(g89
g70
NtRp3331
(dp3332
g73
(dp3333
g93
g94
ssg82
g3327
sg75
(lp3334
S'mod_wsgi.process_group'
p3335
asbag68
(g89
g70
NtRp3336
(dp3337
g73
(dp3338
g100
g101
ssg82
g3327
sg75
(lp3339
S':'
asbag68
(g89
g70
NtRp3340
(dp3341
g73
(dp3342
sg82
g3327
sg75
(lp3343
g68
(g69
g70
NtRp3344
(dp3345
g73
(dp3346
g81
I3
ssg82
g3340
sg75
(lp3347
g1543
asbasbasbag68
(g84
g70
NtRp3348
(dp3349
g73
(dp3350
sg82
g2588
sg75
(lp3351
g68
(g89
g70
NtRp3352
(dp3353
g73
(dp3354
g93
g94
ssg82
g3348
sg75
(lp3355
S'mod_wsgi.request_handler'
p3356
asbag68
(g89
g70
NtRp3357
(dp3358
g73
(dp3359
g100
g101
ssg82
g3348
sg75
(lp3360
S':'
asbag68
(g89
g70
NtRp3361
(dp3362
g73
(dp3363
sg82
g3348
sg75
(lp3364
g68
(g69
g70
NtRp3365
(dp3366
g73
(dp3367
g81
I3
ssg82
g3361
sg75
(lp3368
g1565
asbasbasbag68
(g84
g70
NtRp3369
(dp3370
g73
(dp3371
sg82
g2588
sg75
(lp3372
g68
(g89
g70
NtRp3373
(dp3374
g73
(dp3375
g93
g94
ssg82
g3369
sg75
(lp3376
S'mod_wsgi.script_reloading'
p3377
asbag68
(g89
g70
NtRp3378
(dp3379
g73
(dp3380
g100
g101
ssg82
g3369
sg75
(lp3381
S':'
asbag68
(g89
g70
NtRp3382
(dp3383
g73
(dp3384
sg82
g3369
sg75
(lp3385
g68
(g69
g70
NtRp3386
(dp3387
g73
(dp3388
g81
I3
ssg82
g3382
sg75
(lp3389
S'1'
asbasbasbag68
(g84
g70
NtRp3390
(dp3391
g73
(dp3392
sg82
g2588
sg75
(lp3393
g68
(g89
g70
NtRp3394
(dp3395
g73
(dp3396
g93
g94
ssg82
g3390
sg75
(lp3397
S'mod_wsgi.version'
p3398
asbag68
(g89
g70
NtRp3399
(dp3400
g73
(dp3401
g100
g101
ssg82
g3390
sg75
(lp3402
S':'
asbag68
(g89
g70
NtRp3403
(dp3404
g73
(dp3405
sg82
g3390
sg75
(lp3406
g68
(g69
g70
NtRp3407
(dp3408
g73
(dp3409
g81
I3
ssg82
g3403
sg75
(lp3410
g68
(g77
g70
NtRp3411
(dp3412
g73
(dp3413
g81
I2
ssg82
Nsg75
(lp3414
g68
(g84
g70
NtRp3415
(dp3416
g73
(dp3417
sg82
g3411
sg75
(lp3418
g68
(g89
g70
NtRp3419
(dp3420
g73
(dp3421
sg82
g3415
sg75
(lp3422
g68
(g69
g70
NtRp3423
(dp3424
g73
(dp3425
g81
I2
ssg82
g3419
sg75
(lp3426
S'3'
asbasbasbag68
(g84
g70
NtRp3427
(dp3428
g73
(dp3429
sg82
g3411
sg75
(lp3430
g68
(g89
g70
NtRp3431
(dp3432
g73
(dp3433
sg82
g3427
sg75
(lp3434
g68
(g69
g70
NtRp3435
(dp3436
g73
(dp3437
g81
I2
ssg82
g3431
sg75
(lp3438
S'2'
asbasbasbasbasbasbasbag68
(g84
g70
NtRp3439
(dp3440
g73
(dp3441
sg82
g2588
sg75
(lp3442
g68
(g89
g70
NtRp3443
(dp3444
g73
(dp3445
g93
g94
ssg82
g3439
sg75
(lp3446
S'wsgi.errors'
p3447
asbag68
(g89
g70
NtRp3448
(dp3449
g73
(dp3450
g100
g101
ssg82
g3439
sg75
(lp3451
S':'
asbag68
(g89
g70
NtRp3452
(dp3453
g73
(dp3454
sg82
g3439
sg75
(lp3455
g68
(g69
g70
NtRp3456
(dp3457
g73
(dp3458
g81
I3
ssg82
g3452
sg75
(lp3459
S'<mod_wsgi.Log object at 0x2b9bdb7fd7f0>'
p3460
asbasbasbag68
(g84
g70
NtRp3461
(dp3462
g73
(dp3463
sg82
g2588
sg75
(lp3464
g68
(g89
g70
NtRp3465
(dp3466
g73
(dp3467
g93
g94
ssg82
g3461
sg75
(lp3468
S'wsgi.file_wrapper'
p3469
asbag68
(g89
g70
NtRp3470
(dp3471
g73
(dp3472
g100
g101
ssg82
g3461
sg75
(lp3473
S':'
asbag68
(g89
g70
NtRp3474
(dp3475
g73
(dp3476
sg82
g3461
sg75
(lp3477
g68
(g69
g70
NtRp3478
(dp3479
g73
(dp3480
g81
I3
ssg82
g3474
sg75
(lp3481
S'<built-in method file_wrapper of mod_wsgi.Adapter object at 0x2b9bdb8d8030>'
p3482
asbasbasbag68
(g84
g70
NtRp3483
(dp3484
g73
(dp3485
sg82
g2588
sg75
(lp3486
g68
(g89
g70
NtRp3487
(dp3488
g73
(dp3489
g93
g94
ssg82
g3483
sg75
(lp3490
S'wsgi.input'
p3491
asbag68
(g89
g70
NtRp3492
(dp3493
g73
(dp3494
g100
g101
ssg82
g3483
sg75
(lp3495
S':'
asbag68
(g89
g70
NtRp3496
(dp3497
g73
(dp3498
sg82
g3483
sg75
(lp3499
g68
(g69
g70
NtRp3500
(dp3501
g73
(dp3502
g81
I3
ssg82
g3496
sg75
(lp3503
S'<cStringIO.StringO object at 0x2b9bdb749bc8>'
p3504
asbasbasbag68
(g84
g70
NtRp3505
(dp3506
g73
(dp3507
sg82
g2588
sg75
(lp3508
g68
(g89
g70
NtRp3509
(dp3510
g73
(dp3511
g93
g94
ssg82
g3505
sg75
(lp3512
S'wsgi.multiprocess'
p3513
asbag68
(g89
g70
NtRp3514
(dp3515
g73
(dp3516
g100
g101
ssg82
g3505
sg75
(lp3517
S':'
asbag68
(g89
g70
NtRp3518
(dp3519
g73
(dp3520
sg82
g3505
sg75
(lp3521
g68
(g69
g70
NtRp3522
(dp3523
g73
(dp3524
g81
I3
ssg82
g3518
sg75
(lp3525
g111
asbasbasbag68
(g84
g70
NtRp3526
(dp3527
g73
(dp3528
sg82
g2588
sg75
(lp3529
g68
(g89
g70
NtRp3530
(dp3531
g73
(dp3532
g93
g94
ssg82
g3526
sg75
(lp3533
S'wsgi.multithread'
p3534
asbag68
(g89
g70
NtRp3535
(dp3536
g73
(dp3537
g100
g101
ssg82
g3526
sg75
(lp3538
S':'
asbag68
(g89
g70
NtRp3539
(dp3540
g73
(dp3541
sg82
g3526
sg75
(lp3542
g68
(g69
g70
NtRp3543
(dp3544
g73
(dp3545
g81
I3
ssg82
g3539
sg75
(lp3546
g2159
asbasbasbag68
(g84
g70
NtRp3547
(dp3548
g73
(dp3549
sg82
g2588
sg75
(lp3550
g68
(g89
g70
NtRp3551
(dp3552
g73
(dp3553
g93
g94
ssg82
g3547
sg75
(lp3554
S'wsgi.run_once'
p3555
asbag68
(g89
g70
NtRp3556
(dp3557
g73
(dp3558
g100
g101
ssg82
g3547
sg75
(lp3559
S':'
asbag68
(g89
g70
NtRp3560
(dp3561
g73
(dp3562
sg82
g3547
sg75
(lp3563
g68
(g69
g70
NtRp3564
(dp3565
g73
(dp3566
g81
I3
ssg82
g3560
sg75
(lp3567
g111
asbasbasbag68
(g84
g70
NtRp3568
(dp3569
g73
(dp3570
sg82
g2588
sg75
(lp3571
g68
(g89
g70
NtRp3572
(dp3573
g73
(dp3574
g93
g94
ssg82
g3568
sg75
(lp3575
S'wsgi.url_scheme'
p3576
asbag68
(g89
g70
NtRp3577
(dp3578
g73
(dp3579
g100
g101
ssg82
g3568
sg75
(lp3580
S':'
asbag68
(g89
g70
NtRp3581
(dp3582
g73
(dp3583
sg82
g3568
sg75
(lp3584
g68
(g69
g70
NtRp3585
(dp3586
g73
(dp3587
g81
I3
ssg82
g3581
sg75
(lp3588
g2202
asbasbasbag68
(g84
g70
NtRp3589
(dp3590
g73
(dp3591
sg82
g2588
sg75
(lp3592
g68
(g89
g70
NtRp3593
(dp3594
g73
(dp3595
g93
g94
ssg82
g3589
sg75
(lp3596
S'wsgi.version'
p3597
asbag68
(g89
g70
NtRp3598
(dp3599
g73
(dp3600
g100
g101
ssg82
g3589
sg75
(lp3601
S':'
asbag68
(g89
g70
NtRp3602
(dp3603
g73
(dp3604
sg82
g3589
sg75
(lp3605
g68
(g69
g70
NtRp3606
(dp3607
g73
(dp3608
g81
I3
ssg82
g3602
sg75
(lp3609
S'1'
asbasbasbasbasbasbasbasbasbasbasbasbasbsS'frames'
p3610
(lp3611
(dp3612
S'file'
p3613
S'/home/www-data/web2py/gluon/restricted.py'
p3614
sS'dump'
p3615
(dp3616
S'code'
p3617
S"'# -*- coding: utf-8 -*- \\n# this file is released...ervice()\\n\\nresponse._vars=response._caller(index)\\n'"
p3618
sS'layer'
p3619
S"'/home/www-data/web2py/applications/rdcdss/controllers/default.py'"
p3620
sS'global compile2'
p3621
S'<function compile2>'
p3622
sS'ccode'
p3623
S'undefined'
p3624
ssS'lnum'
p3625
I180
sS'lines'
p3626
(dp3627
I175
S"    environment['__file__'] = layer"
p3628
sI176
S'    try:'
p3629
sI177
S'        if type(code) == types.CodeType:'
p3630
sI178
S'            ccode = code'
p3631
sI179
S'        else:'
p3632
sI180
S'            ccode = compile2(code,layer)'
p3633
sI181
S'        exec ccode in environment'
p3634
sI182
S'    except HTTP:'
p3635
sI183
S'        raise'
p3636
sI184
S'    except Exception:'
p3637
ssS'call'
p3638
S"(code='# -*- coding: utf-8 -*- \\n# this file is released...ervice()\\n\\nresponse._vars=response._caller(index)\\n', environment={'A': <class 'gluon.html.A'>, 'Auth': <class 'gluon.tools.Auth'>, 'B': <class 'gluon.html.B'>, 'BEAUTIFY': <class 'gluon.html.BEAUTIFY'>, 'BODY': <class 'gluon.html.BODY'>, 'BR': <class 'gluon.html.BR'>, 'CENTER': <class 'gluon.html.CENTER'>, 'CLEANUP': <class 'gluon.validators.CLEANUP'>, 'CODE': <class 'gluon.html.CODE'>, 'CRYPT': <class 'gluon.validators.CRYPT'>, ...}, layer='/home/www-data/web2py/applications/rdcdss/controllers/default.py')"
p3639
sS'func'
p3640
S'restricted'
p3641
sa(dp3642
g3613
S'/home/www-data/web2py/gluon/restricted.py'
p3643
sg3615
(dp3644
S'builtincompile'
p3645
S'<built-in function compile>'
p3646
sS'code'
p3647
S"'# -*- coding: utf-8 -*- \\n# this file is released...ervice()\\n\\nresponse._vars=response._caller(index)\\n'"
p3648
sS'code.rstrip'
p3649
S'<built-in method rstrip of str object>'
p3650
sS').replace'
p3651
g3624
sS'layer'
p3652
S"'/home/www-data/web2py/applications/rdcdss/controllers/default.py'"
p3653
ssg3625
I167
sg3626
(dp3654
I162
S''
sI163
S'def compile2(code,layer):'
p3655
sI164
S'    """'
p3656
sI165
S"    The +'\\n' is necessary else compile fails when code ends in a comment."
p3657
sI166
S'    """'
p3658
sI167
S"    return compile(code.rstrip().replace('\\r\\n','\\n')+'\\n', layer, 'exec')"
p3659
sI168
S''
sI169
S"def restricted(code, environment={}, layer='Unknown'):"
p3660
sI170
S'    """'
p3661
sI171
S'    runs code in environment and returns the output. if an exception occurs'
p3662
ssg3638
S"(code='# -*- coding: utf-8 -*- \\n# this file is released...ervice()\\n\\nresponse._vars=response._caller(index)\\n', layer='/home/www-data/web2py/applications/rdcdss/controllers/default.py')"
p3663
sg3640
S'compile2'
p3664
sasS'pyver'
p3665
S'Python 2.6.6: /usr/bin/python'
p3666
sS'session'
p3667
g68
(g69
g70
NtRp3668
(dp3669
g73
(dp3670
sg75
(lp3671
g68
(g77
g70
NtRp3672
(dp3673
g73
(dp3674
g81
I5
ssg82
Nsg75
(lp3675
g68
(g84
g70
NtRp3676
(dp3677
g73
(dp3678
sg82
g3672
sg75
(lp3679
g68
(g89
g70
NtRp3680
(dp3681
g73
(dp3682
g93
g94
ssg82
g3676
sg75
(lp3683
S'data'
p3684
asbag68
(g89
g70
NtRp3685
(dp3686
g73
(dp3687
g100
g101
ssg82
g3676
sg75
(lp3688
S':'
asbag68
(g89
g70
NtRp3689
(dp3690
g73
(dp3691
sg82
g3676
sg75
(lp3692
g68
(g69
g70
NtRp3693
(dp3694
g73
(dp3695
g81
I5
ssg82
g3689
sg75
(lp3696
g68
(g77
g70
NtRp3697
(dp3698
g73
(dp3699
g81
I4
ssg82
Nsg75
(lp3700
g68
(g84
g70
NtRp3701
(dp3702
g73
(dp3703
sg82
g3697
sg75
(lp3704
g68
(g89
g70
NtRp3705
(dp3706
g73
(dp3707
sg82
g3701
sg75
(lp3708
g68
(g69
g70
NtRp3709
(dp3710
g73
(dp3711
g81
I4
ssg82
g3705
sg75
(lp3712
g68
(g77
g70
NtRp3713
(dp3714
g73
(dp3715
g81
I3
ssg82
Nsg75
(lp3716
g68
(g84
g70
NtRp3717
(dp3718
g73
(dp3719
sg82
g3713
sg75
(lp3720
g68
(g89
g70
NtRp3721
(dp3722
g73
(dp3723
sg82
g3717
sg75
(lp3724
g68
(g69
g70
NtRp3725
(dp3726
g73
(dp3727
g81
I3
ssg82
g3721
sg75
(lp3728
S'Sickle Cell Anemia'
p3729
asbasbasbag68
(g84
g70
NtRp3730
(dp3731
g73
(dp3732
sg82
g3713
sg75
(lp3733
g68
(g89
g70
NtRp3734
(dp3735
g73
(dp3736
sg82
g3730
sg75
(lp3737
g68
(g69
g70
NtRp3738
(dp3739
g73
(dp3740
g81
I3
ssg82
g3734
sg75
(lp3741
S'http://www.madisonsfoundation.org/index.php/component/option,com_mpower/Itemid,49/diseaseID,89/index.html'
p3742
asbasbasbag68
(g84
g70
NtRp3743
(dp3744
g73
(dp3745
sg82
g3713
sg75
(lp3746
g68
(g89
g70
NtRp3747
(dp3748
g73
(dp3749
sg82
g3743
sg75
(lp3750
g68
(g69
g70
NtRp3751
(dp3752
g73
(dp3753
g81
I3
ssg82
g3747
sg75
(lp3754
S'Sickle Cell Anemia Sickle Cell Disease Wednesday, 02 July 2003 Last Updated Wednesday, 04 February 2004 What Sickle cell anemia is an inherited blood disorder in which the oxygen-carrying substance of red blood cells (called hemoglobin) is different from the common form. In normal red blood cells oxygen is carried by hemoglobin A, and these cells are smooth and doughnut-shaped. In those with sickle cell anemia oxygen is carried by hemoglobin S and these cells become stiff, sticky, and sickle-shaped once they deliver oxygen to the tissues of the body. Because of their odd shape the sickled-cells often clump together and get stuck in the blood vessels, or break apart. Since red blood cells are important for delivering oxygen throughout the body, many organs can become starved for oxygen, which may cause episodes of pain, damage and under-development of many organs. Also, since the red blood cells break apart, a low red blood cell count (anemia) usually results. Who Sickle cell anemia affects millions of people throughout the world, including those whose ancestors are from sub-Saharan Africa, Latin American countries such as Cuba, South America and Central America, Saudi Arabia, India, and Mediterranean countries such as Italy and Greece. In the United States it affects about 72,000 people, mostly African American (1 in 500) and Hispanic Americans (1 in 1000 to 1400). Signs and Symptoms : The symptoms of sickle cell anemia vary from person to person and can range from mild to severe. The common problem among all people with sickle cell anemia is the rigid, sickle-shaped red blood cells that clog the blood vessels and prevent the delivery of oxygen to tissues of the body. The most common symptom therefore is pain. Other symptoms may include: jaundice (yellowing of the eyes and skin): due to the build up of Heme (found inside of red blood cells) in the blood from the breaking apart of red blood cells. Hand-Foot syndrome: pain and swelling in the hands and feet due to blo...'
p3755
asbasbasbasbasbasbasbag68
(g84
g70
NtRp3756
(dp3757
g73
(dp3758
sg82
g3697
sg75
(lp3759
g68
(g89
g70
NtRp3760
(dp3761
g73
(dp3762
sg82
g3756
sg75
(lp3763
g68
(g69
g70
NtRp3764
(dp3765
g73
(dp3766
g81
I4
ssg82
g3760
sg75
(lp3767
g68
(g77
g70
NtRp3768
(dp3769
g73
(dp3770
g81
I3
ssg82
Nsg75
(lp3771
g68
(g84
g70
NtRp3772
(dp3773
g73
(dp3774
sg82
g3768
sg75
(lp3775
g68
(g89
g70
NtRp3776
(dp3777
g73
(dp3778
sg82
g3772
sg75
(lp3779
g68
(g69
g70
NtRp3780
(dp3781
g73
(dp3782
g81
I3
ssg82
g3776
sg75
(lp3783
S'Megaloblastic Anemia'
p3784
asbasbasbag68
(g84
g70
NtRp3785
(dp3786
g73
(dp3787
sg82
g3768
sg75
(lp3788
g68
(g89
g70
NtRp3789
(dp3790
g73
(dp3791
sg82
g3785
sg75
(lp3792
g68
(g69
g70
NtRp3793
(dp3794
g73
(dp3795
g81
I3
ssg82
g3789
sg75
(lp3796
S'http://www.madisonsfoundation.org/index.php/component/option,com_mpower/Itemid,49/diseaseID,296/index.html'
p3797
asbasbasbag68
(g84
g70
NtRp3798
(dp3799
g73
(dp3800
sg82
g3768
sg75
(lp3801
g68
(g89
g70
NtRp3802
(dp3803
g73
(dp3804
sg82
g3798
sg75
(lp3805
g68
(g69
g70
NtRp3806
(dp3807
g73
(dp3808
g81
I3
ssg82
g3802
sg75
(lp3809
S'Megaloblastic Anemia Sunday, 31 August 2003 Last Updated Monday, 12 January 2004 What The general definition of anemia is a blood disorder in which the number of red blood cells (RBC) or the amount of hemoglobin, a protein in red blood cells that carries oxygen throughout the body, is below normal. Megaloblastic Anemia is a general term describing anemias characterized by the presence of large, structurally and visually abnormal, immature red blood cells (megaloblasts). Deficiency or defective absorption of folate or vitamin B12 (cobalamin) may cause this type of anemia in 95% of the cases of megaloblastic anemia. However, there are other rare causes of this disease in the remaining 5% of affected individuals, such as Diamond-Blackfan, congenital dyserythropoetic anemias, and other inherited defects. White blood cells (leukocytes) and platelets (the blood cell which helps to stop bleeding) may also be present in low numbers. Who Vitamin B12 deficiency: B12 is not produced in the body so it must be provided in the diet. Therefore, if a person does not have enough oral intake of B12 in foods, he/she will become deficient in this vitamin and can develop megaloblastic anemia. Vitamin B12 is not found in plants and therefore strict vegetarians (vegans) who eat no dairy/ animal products are at risk for developing B12 deficiency. Breast feeding infants of vegan mothers are also at risk for developing megaloblastic anemia because of low levels of vitamin B12 in the breast milk. Folate deficiency: Folate is found in many foods but the foods with the highest folate levels are orange juice, spinach and liver. Overcooking vegetables can result in the loss of folate from those foods. Cereals and breads can have high folate levels. Human milk contains sufficient folate to prevent an infant from developing folate deficiency. It is important to remember that goats milk is one food that contains very little folate or B12, so if an infant or child is given only this type of milk, he/...'
p3810
asbasbasbasbasbasbasbag68
(g84
g70
NtRp3811
(dp3812
g73
(dp3813
sg82
g3697
sg75
(lp3814
g68
(g89
g70
NtRp3815
(dp3816
g73
(dp3817
sg82
g3811
sg75
(lp3818
g68
(g69
g70
NtRp3819
(dp3820
g73
(dp3821
g81
I4
ssg82
g3815
sg75
(lp3822
g68
(g77
g70
NtRp3823
(dp3824
g73
(dp3825
g81
I3
ssg82
Nsg75
(lp3826
g68
(g84
g70
NtRp3827
(dp3828
g73
(dp3829
sg82
g3823
sg75
(lp3830
g68
(g89
g70
NtRp3831
(dp3832
g73
(dp3833
sg82
g3827
sg75
(lp3834
g68
(g69
g70
NtRp3835
(dp3836
g73
(dp3837
g81
I3
ssg82
g3831
sg75
(lp3838
S'Aplastic Anemia'
p3839
asbasbasbag68
(g84
g70
NtRp3840
(dp3841
g73
(dp3842
sg82
g3823
sg75
(lp3843
g68
(g89
g70
NtRp3844
(dp3845
g73
(dp3846
sg82
g3840
sg75
(lp3847
g68
(g69
g70
NtRp3848
(dp3849
g73
(dp3850
g81
I3
ssg82
g3844
sg75
(lp3851
S'http://rarediseases.about.com/od/rarediseasesa/a/aplasticanemia.htm'
p3852
asbasbasbag68
(g84
g70
NtRp3853
(dp3854
g73
(dp3855
sg82
g3823
sg75
(lp3856
g68
(g89
g70
NtRp3857
(dp3858
g73
(dp3859
sg82
g3853
sg75
(lp3860
g68
(g69
g70
NtRp3861
(dp3862
g73
(dp3863
g81
I3
ssg82
g3857
sg75
(lp3864
S'In aplastic anemia (AA), the bone marrow stops making enough red blood cells, white blood cells, and platelets. Aplastic anemia may appear at any age, but is diagnosed more often in children and young adults. The disorder occurs in about 2-6 individuals per million population worldwide. About 20% of individuals develop aplastic anemia as part of an inherited syndrome such as Fanconi anemia, dyskeratosis congenita, or Blackfan Diamond anemia. Most individuals (80%) have acquired aplastic anemia, meaning that it was caused by infections such as hepatitis or Epstein-Barr virus, toxic exposure to radiation and chemicals, or drugs such as chloramphenical or phenylbutazone. Research suggests aplastic anemia may be the result of an autoimmune disorder. Symptoms The symptoms of aplastic anemia come on slowly. The symptoms are related to the low levels of blood cells: Low numbers of red blood cells causes anemia, with symptoms such as headache, dizziness, fatigue, and paleness (pallor) Low numbers of platelets (necessary for blood clotting) causes unusual bleeding from the gums, nose, or bruising under the skin (small spots called petechiae) Low numbers of white blood cells (necessary for fighting infection) causes recurrent infections or lingering illness. Diagnosis The symptoms of aplastic anemia often point the way to diagnosis. The physician will obtain a complete blood cell count (CBC) and the blood will be examined under the microscope (blood smear). The CBC will show the low levels of red cells, white cells, and platelets in the blood. Looking at the cells under the microscope will distinguish aplastic anemia from other blood disorders. In addition to the blood tests, a bone marrow biopsy (sample) will be taken and examined under the microscope. In aplastic anemia it will show few new blood cells being formed. Examining the bone marrow also helps distinguish aplastic anemia from other bone marrow disorders, such as myelodysplastic disorder or leukemia. Staging Classif...'
p3865
asbasbasbasbasbasbasbag68
(g84
g70
NtRp3866
(dp3867
g73
(dp3868
sg82
g3697
sg75
(lp3869
g68
(g89
g70
NtRp3870
(dp3871
g73
(dp3872
sg82
g3866
sg75
(lp3873
g68
(g69
g70
NtRp3874
(dp3875
g73
(dp3876
g81
I4
ssg82
g3870
sg75
(lp3877
g68
(g77
g70
NtRp3878
(dp3879
g73
(dp3880
g81
I3
ssg82
Nsg75
(lp3881
g68
(g84
g70
NtRp3882
(dp3883
g73
(dp3884
sg82
g3878
sg75
(lp3885
g68
(g89
g70
NtRp3886
(dp3887
g73
(dp3888
sg82
g3882
sg75
(lp3889
g68
(g69
g70
NtRp3890
(dp3891
g73
(dp3892
g81
I3
ssg82
g3886
sg75
(lp3893
S'Paroxysmal Nocturnal Hemoglobinuria (PNH)'
p3894
asbasbasbag68
(g84
g70
NtRp3895
(dp3896
g73
(dp3897
sg82
g3878
sg75
(lp3898
g68
(g89
g70
NtRp3899
(dp3900
g73
(dp3901
sg82
g3895
sg75
(lp3902
g68
(g69
g70
NtRp3903
(dp3904
g73
(dp3905
g81
I3
ssg82
g3899
sg75
(lp3906
S'http://www.madisonsfoundation.org/index.php/component/option,com_mpower/Itemid,49/diseaseID,545/index.html'
p3907
asbasbasbag68
(g84
g70
NtRp3908
(dp3909
g73
(dp3910
sg82
g3878
sg75
(lp3911
g68
(g89
g70
NtRp3912
(dp3913
g73
(dp3914
sg82
g3908
sg75
(lp3915
g68
(g69
g70
NtRp3916
(dp3917
g73
(dp3918
g81
I3
ssg82
g3912
sg75
(lp3919
S'Paroxysmal Nocturnal Hemoglobinuria (PNH) Marchiafava-Micheli Syndrome Tuesday, 16 November 2004 Last Updated Tuesday, 16 November 2004 What Paroxysmal nocturnal hemoglobinuria (PNH) is a general term used to describe a rare disorder that can affect many different kinds of blood cells. People with PNH will usually have three major characteristics: destruction of their red blood cells, bone marrow that is unable to make the correct cells (aplastic anemia) and an increased risk of having blood clots in their blood vessels (thrombotic events). Who PNH is a rare disease that can happen to anyone from the age of two to 83, but it tends to occur more in teenagers or young adults. It affects males and females equally and there are no reports of it occurring in families. There is limited evidence to suggest that it may be more common in those people from Southeast Asia or the Far East. The disease is not inherited. Signs and Symptoms There are three major types of symptoms in PHN that are related to the destruction of red blood cells, abnormal clotting in the blood vessels, and the inability of the bone marrow to make the correct cells. 1) Destruction of the red blood cells releases hemoglobin that causes the urine to turn dark (hemoglubinuria). This usually occurs all day long, but is concentrated in the night when someone is sleeping, giving the dark, cola-colored urine when they first urinate in the morning. The hemoglobinuria can either occur daily, in cycles of ten days, or not at all. Because the red blood cells are being destroyed, a person can become anemic and start to look pale or get tired more easily. 2) There are several blood vessels that can get clots in them. In PNH, the clots usually occur in the veins, more specifically in the liver, the abdomen, the skin, or in the brain. The symptoms are usually in relationship to where the clot is. Liver vein clots can cause sudden yellow skin, abdominal pain and a swollen belly. These symptoms are dangerous and you sho...'
p3920
asbasbasbasbasbasbasbag68
(g84
g70
NtRp3921
(dp3922
g73
(dp3923
sg82
g3697
sg75
(lp3924
g68
(g89
g70
NtRp3925
(dp3926
g73
(dp3927
sg82
g3921
sg75
(lp3928
g68
(g69
g70
NtRp3929
(dp3930
g73
(dp3931
g81
I4
ssg82
g3925
sg75
(lp3932
g68
(g77
g70
NtRp3933
(dp3934
g73
(dp3935
g81
I3
ssg82
Nsg75
(lp3936
g68
(g84
g70
NtRp3937
(dp3938
g73
(dp3939
sg82
g3933
sg75
(lp3940
g68
(g89
g70
NtRp3941
(dp3942
g73
(dp3943
sg82
g3937
sg75
(lp3944
g68
(g69
g70
NtRp3945
(dp3946
g73
(dp3947
g81
I3
ssg82
g3941
sg75
(lp3948
S'Blackfan Diamond Anemia'
p3949
asbasbasbag68
(g84
g70
NtRp3950
(dp3951
g73
(dp3952
sg82
g3933
sg75
(lp3953
g68
(g89
g70
NtRp3954
(dp3955
g73
(dp3956
sg82
g3950
sg75
(lp3957
g68
(g69
g70
NtRp3958
(dp3959
g73
(dp3960
g81
I3
ssg82
g3954
sg75
(lp3961
S'http://rarediseases.about.com/cs/blackfandiamond/a/072002.htm'
p3962
asbasbasbag68
(g84
g70
NtRp3963
(dp3964
g73
(dp3965
sg82
g3933
sg75
(lp3966
g68
(g89
g70
NtRp3967
(dp3968
g73
(dp3969
sg82
g3963
sg75
(lp3970
g68
(g69
g70
NtRp3971
(dp3972
g73
(dp3973
g81
I3
ssg82
g3967
sg75
(lp3974
S'In Blackfan Diamond (or Diamond Blackfan) anemia, the body\'s bone marrow produces little or no red blood cells. Blackfan Diamond anemia affects approximately 600 to 700 people worldwide. Its cause is unknown, although a genetic error in a gene called RPS19 on chromosome 19 is associated with about 25% of cases. In about 10% to 20% of cases, there is a family history of the disorder. Symptoms Blackfan Diamond anemia is present at birth but can be difficult to identify. In about one-third of children born with the disorder, there are physical defects such as hand deformities or heart defects, but a clear set of signs hasn\'t been identified. The symptoms may also vary greatly, from very mild to severe and life-threatening. Red blood cells carry oxygen throughout the body, so a child with Blackfan Diamond may have symptoms related to not enough blood oxygen (anemia): pallor (paleness) irregular heartbeat, due to the heart trying to keep oxygen moving throughout the body fatigue, irritability, and fainting. Diagnosis Blackfan Diamond anemia is usually diagnosed within the first two years of life, sometimes even at birth, based on symptoms. For example, a baby might be suspected of having anemia if he or she is always pale and gets short of breath when drinking a bottle or nursing. Parents often suspect there is "something wrong" with their child. The diagnosis of Blackfan Diamond anemia in particular might not be recognized right away, though, because the disorder is rare and not all physicians are familiar with it. A complete blood cell count (CBC) for the baby would show a very low number of red blood cells as well as low hemoglobin. Another blood test would show high adenosine deaminase activity (ADA). A bone marrow sample (biopsy) would show that few new red blood cells were being created. Treatment The first line of treatment for Blackfan Diamond anemia is to give the child steroid medication, usually prednisone. About 70% of children with Blackfan Diamond anemia wi...'
p3975
asbasbasbasbasbasbasbag68
(g84
g70
NtRp3976
(dp3977
g73
(dp3978
sg82
g3697
sg75
(lp3979
g68
(g89
g70
NtRp3980
(dp3981
g73
(dp3982
sg82
g3976
sg75
(lp3983
g68
(g69
g70
NtRp3984
(dp3985
g73
(dp3986
g81
I4
ssg82
g3980
sg75
(lp3987
g68
(g77
g70
NtRp3988
(dp3989
g73
(dp3990
g81
I3
ssg82
Nsg75
(lp3991
g68
(g84
g70
NtRp3992
(dp3993
g73
(dp3994
sg82
g3988
sg75
(lp3995
g68
(g89
g70
NtRp3996
(dp3997
g73
(dp3998
sg82
g3992
sg75
(lp3999
g68
(g69
g70
NtRp4000
(dp4001
g73
(dp4002
g81
I3
ssg82
g3996
sg75
(lp4003
S'Aplastic Anemia'
p4004
asbasbasbag68
(g84
g70
NtRp4005
(dp4006
g73
(dp4007
sg82
g3988
sg75
(lp4008
g68
(g89
g70
NtRp4009
(dp4010
g73
(dp4011
sg82
g4005
sg75
(lp4012
g68
(g69
g70
NtRp4013
(dp4014
g73
(dp4015
g81
I3
ssg82
g4009
sg75
(lp4016
S'http://www.madisonsfoundation.org/index.php/component/option,com_mpower/Itemid,49/diseaseID,549/index.html'
p4017
asbasbasbag68
(g84
g70
NtRp4018
(dp4019
g73
(dp4020
sg82
g3988
sg75
(lp4021
g68
(g89
g70
NtRp4022
(dp4023
g73
(dp4024
sg82
g4018
sg75
(lp4025
g68
(g69
g70
NtRp4026
(dp4027
g73
(dp4028
g81
I3
ssg82
g4022
sg75
(lp4029
S'Aplastic Anemia Tuesday, 16 November 2004 Last Updated Tuesday, 16 November 2004 What Aplastic Anemia (AA) is a rare blood disorder characterized by failure of the bone marrow to produce adequate amounts of red blood cells, white blood cells, and platelets. Decreased amount of red blood cells (RBC) results in anemia and decreased ability of the blood to carry oxygen to the body. A low white blood cell count (WBC) makes the child susceptible to infection. Low levels of platelets cause decreased clot formation and bleeding. AA was first described in 1888. Who AA occurs in less than 10 people per million or approximately 1,000 people per year in United States. AA is more common in Asia, especially in Bangkok, Thailand and Japan. This may be due to increased exposure to toxic chemicals rather than genetic factors. Boys and girls are affected equally. AA can occur in children, but most commonly strikes people during their 20s and 60s. It is not contagious. Signs and Symptoms In contrast to leukemia, symptoms of AA develop gradually. Children develop pale complexion, rapid heart rate, shortness of breath, headache, dizziness, fatigue, possible leg swelling, gum bleeding, easy bruising, blood in the stool and urine, and red rash due to minor bleeding in the skin. In advanced disease, frequent and severe infections occur. Infections are commonly bacterial and fungal, i.e., pneumonia, oral thrush (a yeast infection of the mouth). Bacterial and fungal infections can also occur in the blood and urine of patients with severe AA, therefore, fever in these individuals is taken very seriously. The lymph nodes and liver are not enlarged, in contrast to leukemia. Children with congenital/inherited AA associated with syndromes may have abnormal facial features and skeletal abnormalities. Possible Causes The cause of AA is unknown. In 20% of cases it is thought to be congenital (present at birth) or inherited. It can be associated with syndromes such as Fanconis, Pearson, TAR, Shwachm...'
p4030
asbasbasbasbasbasbasbag68
(g84
g70
NtRp4031
(dp4032
g73
(dp4033
sg82
g3697
sg75
(lp4034
g68
(g89
g70
NtRp4035
(dp4036
g73
(dp4037
sg82
g4031
sg75
(lp4038
g68
(g69
g70
NtRp4039
(dp4040
g73
(dp4041
g81
I4
ssg82
g4035
sg75
(lp4042
g68
(g77
g70
NtRp4043
(dp4044
g73
(dp4045
g81
I3
ssg82
Nsg75
(lp4046
g68
(g84
g70
NtRp4047
(dp4048
g73
(dp4049
sg82
g4043
sg75
(lp4050
g68
(g89
g70
NtRp4051
(dp4052
g73
(dp4053
sg82
g4047
sg75
(lp4054
g68
(g69
g70
NtRp4055
(dp4056
g73
(dp4057
g81
I3
ssg82
g4051
sg75
(lp4058
S'Transient Erythroblastopenia of Childhood (TEC)'
p4059
asbasbasbag68
(g84
g70
NtRp4060
(dp4061
g73
(dp4062
sg82
g4043
sg75
(lp4063
g68
(g89
g70
NtRp4064
(dp4065
g73
(dp4066
sg82
g4060
sg75
(lp4067
g68
(g69
g70
NtRp4068
(dp4069
g73
(dp4070
g81
I3
ssg82
g4064
sg75
(lp4071
S'http://www.madisonsfoundation.org/index.php/component/option,com_mpower/Itemid,49/diseaseID,511/index.html'
p4072
asbasbasbag68
(g84
g70
NtRp4073
(dp4074
g73
(dp4075
sg82
g4043
sg75
(lp4076
g68
(g89
g70
NtRp4077
(dp4078
g73
(dp4079
sg82
g4073
sg75
(lp4080
g68
(g69
g70
NtRp4081
(dp4082
g73
(dp4083
g81
I3
ssg82
g4077
sg75
(lp4084
S'Transient Erythroblastopenia of Childhood (TEC) Monday, 30 August 2004 Last Updated Monday, 30 August 2004 What Transient erythroblastopenia of childhood (TEC) is a rare, acquired form of isolated anemia (low number of red blood cells). It is characterized by a reduction or absence in production of red blood cells by the bone marrow which leads to the gradual progression to a severely anemic state. Who TEC usually occurs in children from 18 to 26 months of age. It has been reported in children as young as six months and as old as ten years. Boys are slightly more affected than girls. Nobody actually knows how common TEC is because children can be affected and show no symptoms. Signs and Symptoms Transient erythroblastopenia of childhood usually develops over the course of several months and children may experience the following:  Pale color  Poor exercise tolerance and easy fatigued  Occasional fainting, difficulty breathing from severe anemia.  No symptoms early in the course.  Rapid heart rate and heart murmur from the turbulent flow of blood across the heart valves. Possible Causes The exact cause of TEC is not known. In many cases, TEC occurs after a viral infection and is thought to be a result of virus-mediated bone marrow suppression. One virus in particular, the human herpes virus 6, has been isolated in children with TEC. Experts are still unsure if the virus itself causes TEC or if the bodys response to the virus causes certain antibodies (proteins that recognize foreign organisms or molecules) to be made. These antibodies are thought to attack the bone marrow and temporarily halt the production of red blood cells. At some point, usually a few months later, the bone marrow starts to make red blood cells again and the anemia resolves. There have been a few reported cases of TEC occurring in the same family, but so far no genetic cause has been confirmed. Diagnosis The diagnosis can usually be made by eliciting the typical history of slow onset and a few blo...'
p4085
asbasbasbasbasbasbasbag68
(g84
g70
NtRp4086
(dp4087
g73
(dp4088
sg82
g3697
sg75
(lp4089
g68
(g89
g70
NtRp4090
(dp4091
g73
(dp4092
sg82
g4086
sg75
(lp4093
g68
(g69
g70
NtRp4094
(dp4095
g73
(dp4096
g81
I4
ssg82
g4090
sg75
(lp4097
g68
(g77
g70
NtRp4098
(dp4099
g73
(dp4100
g81
I3
ssg82
Nsg75
(lp4101
g68
(g84
g70
NtRp4102
(dp4103
g73
(dp4104
sg82
g4098
sg75
(lp4105
g68
(g89
g70
NtRp4106
(dp4107
g73
(dp4108
sg82
g4102
sg75
(lp4109
g68
(g69
g70
NtRp4110
(dp4111
g73
(dp4112
g81
I3
ssg82
g4106
sg75
(lp4113
S'Fanconi Anemia (FA)'
p4114
asbasbasbag68
(g84
g70
NtRp4115
(dp4116
g73
(dp4117
sg82
g4098
sg75
(lp4118
g68
(g89
g70
NtRp4119
(dp4120
g73
(dp4121
sg82
g4115
sg75
(lp4122
g68
(g69
g70
NtRp4123
(dp4124
g73
(dp4125
g81
I3
ssg82
g4119
sg75
(lp4126
S'http://www.madisonsfoundation.org/index.php/component/option,com_mpower/Itemid,49/diseaseID,242/index.html'
p4127
asbasbasbag68
(g84
g70
NtRp4128
(dp4129
g73
(dp4130
sg82
g4098
sg75
(lp4131
g68
(g89
g70
NtRp4132
(dp4133
g73
(dp4134
sg82
g4128
sg75
(lp4135
g68
(g69
g70
NtRp4136
(dp4137
g73
(dp4138
g81
I3
ssg82
g4132
sg75
(lp4139
S'Fanconi Anemia (FA) Sunday, 27 July 2003 Last Updated Monday, 04 December 2006 What Fanconi anemia (FA) is an inherited disorder that leads to progressive bone marrow failure. bone marrow is the part of bone that produces blood cells and cells that function in the immune system. In FA, the bone marrow becomes unable to produce all of these types of cells. Fanconi anemia may also be associated with physical signs including alterations in skin pigment, short stature, and limb length differences. Signs and symptoms can vary with each person. Who Fanconi anemia is a genetic condition which has equal prevalence in both sexes. It affects people of all racial and ethnic backgrounds, with an increased incidence in Ashkenazi Jews and Afrikaners. The median age of diagnosis is 7-8 years, but those having birth defects are diagnosed earlier. Most children begin to show symptoms of bone marrow impairment between 2 and 15 years old but a small number of individuals do not show symptoms until their twenties or thirties. Signs and Symptoms Some children with FA have no observable physical signs at birth while others are born with physical differences that may include: Low birth weight. Small patches of darker skin (caf-au-lait spots). There may also be patches where pigment is absent and the skin looks white. Short stature. Small head or eyes and differing ear shape or position. Learning disabilities or delays or slowness in learning compared to peers. Absent or malformed kidneys. Heart defects. Decreased reproductive organ size in males. Intestinal problems. Limb differences including extra or absent thumbs and lack of or incompletely formed arm bones. Some children also have lower limb differences and spine or rib alterations. While many children are born without most or all of the above physical signs, more than 90% of children with FA start to develop bone marrow failure by their early teens. Symptoms caused by decreased bone marrow function are listed below: Nosebleeds or eas...'
p4140
asbasbasbasbasbasbasbag68
(g84
g70
NtRp4141
(dp4142
g73
(dp4143
sg82
g3697
sg75
(lp4144
g68
(g89
g70
NtRp4145
(dp4146
g73
(dp4147
sg82
g4141
sg75
(lp4148
g68
(g69
g70
NtRp4149
(dp4150
g73
(dp4151
g81
I4
ssg82
g4145
sg75
(lp4152
g68
(g77
g70
NtRp4153
(dp4154
g73
(dp4155
g81
I3
ssg82
Nsg75
(lp4156
g68
(g84
g70
NtRp4157
(dp4158
g73
(dp4159
sg82
g4153
sg75
(lp4160
g68
(g89
g70
NtRp4161
(dp4162
g73
(dp4163
sg82
g4157
sg75
(lp4164
g68
(g69
g70
NtRp4165
(dp4166
g73
(dp4167
g81
I3
ssg82
g4161
sg75
(lp4168
S"Evan's Syndrome"
p4169
asbasbasbag68
(g84
g70
NtRp4170
(dp4171
g73
(dp4172
sg82
g4153
sg75
(lp4173
g68
(g89
g70
NtRp4174
(dp4175
g73
(dp4176
sg82
g4170
sg75
(lp4177
g68
(g69
g70
NtRp4178
(dp4179
g73
(dp4180
g81
I3
ssg82
g4174
sg75
(lp4181
S'http://www.madisonsfoundation.org/index.php/component/option,com_mpower/Itemid,49/diseaseID,81/index.html'
p4182
asbasbasbag68
(g84
g70
NtRp4183
(dp4184
g73
(dp4185
sg82
g4153
sg75
(lp4186
g68
(g89
g70
NtRp4187
(dp4188
g73
(dp4189
sg82
g4183
sg75
(lp4190
g68
(g69
g70
NtRp4191
(dp4192
g73
(dp4193
g81
I3
ssg82
g4187
sg75
(lp4194
S"Evan's Syndrome Wednesday, 02 July 2003 Last Updated Tuesday, 28 October 2003 What Evans Syndrome is a combination of two conditions: autoimmune hemolytic anemia and autoimmune thrombocytopenia purpura. Autoimmune hemolytic anemia is a condition in which there are low levels of iron in the body due to the destruction of the red blood cells that normally carry oxygen. Autoimmune thrombocytopenia is a low level of platelets in the blood due to their destruction in the circulation. platelets are a component of blood that is responsible for creating clots in the body to heal wounds. Who The incidence of Evans syndrome is not precisely known. The syndrome is reported to be a complication affecting 4-10% of those persons with a particular type of thrombocytopenia known as autoimmune thrombocytopenia purpura. The syndrome is more prevalent in children than in adults. Signs and Symptoms The signs and symptoms of Evans syndrome will be a combination of the signs and symptoms of the two underlying conditions. In autoimmune thrombocytopenia purpura the following may be found: Bleeding of skin or mucus lined areas of the body. This may show up as bleeding in the mouth, or purpuric rashes (look almost like bruises), or tiny red dots on the skin called petechiae. Laboratory results will show low levels of platelets In autoimmune hemolytic anemia the following may be found: Fatigue Pale skin color Shortness of breath Rapid heartbeat Dark urine Possible Causes The cause of the signs and symptoms of Evans syndrome are directly related to the low levels of red blood cells (RBC) and platelets in the blood. These low levels are a result of circulating antibodies that bind to the blood cells and destroy them. Antibodies are made under normal conditions against foreign substances in the body and are therefore very useful in warding off infection. In conditions that are referred to as autoimmune the body makes antibodies against itself. In the case of Evans syndrome, it is not currently k..."
p4195
asbasbasbasbasbasbasbag68
(g84
g70
NtRp4196
(dp4197
g73
(dp4198
sg82
g3697
sg75
(lp4199
g68
(g89
g70
NtRp4200
(dp4201
g73
(dp4202
sg82
g4196
sg75
(lp4203
g68
(g69
g70
NtRp4204
(dp4205
g73
(dp4206
g81
I4
ssg82
g4200
sg75
(lp4207
g68
(g77
g70
NtRp4208
(dp4209
g73
(dp4210
g81
I3
ssg82
Nsg75
(lp4211
g68
(g84
g70
NtRp4212
(dp4213
g73
(dp4214
sg82
g4208
sg75
(lp4215
g68
(g89
g70
NtRp4216
(dp4217
g73
(dp4218
sg82
g4212
sg75
(lp4219
g68
(g69
g70
NtRp4220
(dp4221
g73
(dp4222
g81
I3
ssg82
g4216
sg75
(lp4223
S'Hemoglobin C Disease'
p4224
asbasbasbag68
(g84
g70
NtRp4225
(dp4226
g73
(dp4227
sg82
g4208
sg75
(lp4228
g68
(g89
g70
NtRp4229
(dp4230
g73
(dp4231
sg82
g4225
sg75
(lp4232
g68
(g69
g70
NtRp4233
(dp4234
g73
(dp4235
g81
I3
ssg82
g4229
sg75
(lp4236
S'http://www.madisonsfoundation.org/index.php/component/option,com_mpower/Itemid,49/diseaseID,293/index.html'
p4237
asbasbasbag68
(g84
g70
NtRp4238
(dp4239
g73
(dp4240
sg82
g4208
sg75
(lp4241
g68
(g89
g70
NtRp4242
(dp4243
g73
(dp4244
sg82
g4238
sg75
(lp4245
g68
(g69
g70
NtRp4246
(dp4247
g73
(dp4248
g81
I3
ssg82
g4242
sg75
(lp4249
S'Hemoglobin C Disease Hb C Disease, Clinical Hemoglobin C Sunday, 31 August 2003 Last Updated Wednesday, 03 May 2006 What hemoglobin C disease is a blood condition that usually has no symptoms at all but may cause anemia (low number of red blood cells), enlargement of the spleen (splenomegaly), and jaundice (yellowing of the skin or eyes). hemoglobin is a protein in the red blood cell that carries oxygen from the lungs to the body. People with hemoglobin C disease have a type of hemoglobin that differs from the normal type of hemoglobin A. This different type of hemoglobin is called hemoglobin C. Who hemoglobin C disease is an inherited, lifelong condition present from birth and affects both sexes equally. It most commonly affects people of African descent, occurring in about 2 in 10,000 African-Americans. It also occurs less frequently in people of Hispanic, Italian, and Middle Eastern background. Signs and Symptoms The symptoms of hemoglobin C disease are usually not severe or life threatening. Many children never have symptoms or exhibit them only infrequently. However, the condition is chronic, and there may be need for medical attention. During the first year of life, children may develop mild to moderate anemia, or low red blood cell count. This may be present throughout the childs life. A yellowing of the white of the eyes or skin known as jaundice is another hallmark of the condition that may be found early on. As children age, they may develop abdominal pain as well as bone or joint pain. The hemoglobin problem can lead to an enlarged spleen. As an adult, gallstones may develop due to the accumulation of pigment called bilirubin. Less commonly, retinopathy or disease of the light-sensing retina cells in the eye may occur. Possible Causes Red blood cells carry oxygen throughout the body. These cells contain a special protein called hemoglobin that links with oxygen in the lungs and delivers it where it is needed throughout the body. hemoglobin is itself made ...'
p4250
asbasbasbasbasbasbasbag68
(g84
g70
NtRp4251
(dp4252
g73
(dp4253
sg82
g3697
sg75
(lp4254
g68
(g89
g70
NtRp4255
(dp4256
g73
(dp4257
sg82
g4251
sg75
(lp4258
g68
(g69
g70
NtRp4259
(dp4260
g73
(dp4261
g81
I4
ssg82
g4255
sg75
(lp4262
g68
(g77
g70
NtRp4263
(dp4264
g73
(dp4265
g81
I3
ssg82
Nsg75
(lp4266
g68
(g84
g70
NtRp4267
(dp4268
g73
(dp4269
sg82
g4263
sg75
(lp4270
g68
(g89
g70
NtRp4271
(dp4272
g73
(dp4273
sg82
g4267
sg75
(lp4274
g68
(g69
g70
NtRp4275
(dp4276
g73
(dp4277
g81
I3
ssg82
g4271
sg75
(lp4278
S'Autoimmune Lymphoproliferative Syndrome (ALPS)'
p4279
asbasbasbag68
(g84
g70
NtRp4280
(dp4281
g73
(dp4282
sg82
g4263
sg75
(lp4283
g68
(g89
g70
NtRp4284
(dp4285
g73
(dp4286
sg82
g4280
sg75
(lp4287
g68
(g69
g70
NtRp4288
(dp4289
g73
(dp4290
g81
I3
ssg82
g4284
sg75
(lp4291
S'http://www.madisonsfoundation.org/index.php/component/option,com_mpower/Itemid,49/diseaseID,71/index.html'
p4292
asbasbasbag68
(g84
g70
NtRp4293
(dp4294
g73
(dp4295
sg82
g4263
sg75
(lp4296
g68
(g89
g70
NtRp4297
(dp4298
g73
(dp4299
sg82
g4293
sg75
(lp4300
g68
(g69
g70
NtRp4301
(dp4302
g73
(dp4303
g81
I3
ssg82
g4297
sg75
(lp4304
S'Autoimmune Lymphoproliferative Syndrome (ALPS) Canale-Smith Syndrome Wednesday, 25 June 2003 Last Updated Tuesday, 23 November 2004 What Autoimmune Lymphoproliferative Syndrome (ALPS) is a rare disease in which an individuals own immune system cells cause the destruction of platelets, red blood cells, and other cells in the body. First identified in 1990 at the National Institute of Health (NIH), the disease was not named ALPS until 1995. Who ALPS is an inherited genetic disease, meaning that a defective gene has passed from one parent to the child. Occasionally, the gene can be defective in the child alone. Many people with ALPS have a family history of autoimmune problems, but not all do. Any race or ethnicity can be affected. Signs and Symptoms Children who have ALPS are susceptible to autoimmune problems, particularly involving blood cells. As a result, they may get bruising, rashes, nose or gum bleeding, anemia leading to fatigue and pale skin, and an increased susceptibility to infections. These children also often have swollen lymph nodes (glands) in the neck, armpits or groin, and have an enlarged spleen and liver. Occasionally, there can be inflammation in the liver or kidneys as well. Possible Causes ALPS is a disease that usually develops in early childhood but affects both children and adults. It is not contagious, but it may run in a family. ALPS is caused by a broken protein that can no longer do the job your body needs it to do. The broken protein, named Fas, is the one that tells cells when they are normally supposed to die. Since the cells cant be told when to die, they keep on living and accumulating in the lymph nodes, the spleen, and the liver. This accumulation may cause these organs to swell. The malfunctioning immune system cells can also start attacking normal parts of your body. They often attack your red blood cells, leading to anemia, or cells in your kidney and liver. Most people with ALPS have episodes of autoimmune problems that range f...'
p4305
asbasbasbasbasbasbasbag68
(g84
g70
NtRp4306
(dp4307
g73
(dp4308
sg82
g3697
sg75
(lp4309
g68
(g89
g70
NtRp4310
(dp4311
g73
(dp4312
sg82
g4306
sg75
(lp4313
g68
(g69
g70
NtRp4314
(dp4315
g73
(dp4316
g81
I4
ssg82
g4310
sg75
(lp4317
g68
(g77
g70
NtRp4318
(dp4319
g73
(dp4320
g81
I3
ssg82
Nsg75
(lp4321
g68
(g84
g70
NtRp4322
(dp4323
g73
(dp4324
sg82
g4318
sg75
(lp4325
g68
(g89
g70
NtRp4326
(dp4327
g73
(dp4328
sg82
g4322
sg75
(lp4329
g68
(g69
g70
NtRp4330
(dp4331
g73
(dp4332
g81
I3
ssg82
g4326
sg75
(lp4333
S'Acute Lymphoblastic Leukemia (ALL)'
p4334
asbasbasbag68
(g84
g70
NtRp4335
(dp4336
g73
(dp4337
sg82
g4318
sg75
(lp4338
g68
(g89
g70
NtRp4339
(dp4340
g73
(dp4341
sg82
g4335
sg75
(lp4342
g68
(g69
g70
NtRp4343
(dp4344
g73
(dp4345
g81
I3
ssg82
g4339
sg75
(lp4346
S'http://www.madisonsfoundation.org/index.php/component/option,com_mpower/Itemid,49/diseaseID,238/index.html'
p4347
asbasbasbag68
(g84
g70
NtRp4348
(dp4349
g73
(dp4350
sg82
g4318
sg75
(lp4351
g68
(g89
g70
NtRp4352
(dp4353
g73
(dp4354
sg82
g4348
sg75
(lp4355
g68
(g69
g70
NtRp4356
(dp4357
g73
(dp4358
g81
I3
ssg82
g4352
sg75
(lp4359
S'Acute Lymphoblastic Leukemia (ALL) Acute Lymphocytic Leukemia, Acute Childhood Leukemia Sunday, 27 July 2003 Last Updated Thursday, 18 November 2004 What Acute lymphoblastic leukemia (ALL) is a disease of the white blood cells known as lymphocytes. lymphocytes normally help the body fight infection and are found in the blood, bone marrow, and other organs that are a part of the immune system. In ALL, functional lymphocytes are replaced by abnormal leukemic cells that grow quickly and accumulate in the bone marrow. As the number of healthy white blood cells diminishes, the child becomes susceptible to bleeding and infections. Who ALL can occur in children and adults. It is the most common cancer in children, representing 75-80% of the acute leukemias and 23% of all cancer diagnosis in children. Peak incidence in children occurs at the age of 4 years. Childhood ALL occurs slightly more often in boys than in girls, and more often in white children than in black children. Also, there is a higher rate of ALL in more developed countries and in higher socioeconomic groups. Approximately 6 out of 100,000 people have ALL. Signs and Symptoms An individual with ALL may exhibit some or all of the following symptoms: 1. Easy bleeding or bruising. 2. Bleeding gums with brushing or other forms of mild trauma 3. Frequent nosebleeds. 4. Abnormal menstrual periods. 5. Fatigue. 6. Shortness of breath during physical activity or exercise. 7. Pinpoint red spots (petechiae) and black-and-blue marks (bruises) on the skin. 8. Paleness. 9. Frequent infections with fever 10. Bone pain or tenderness in the breastbone area. 11. Joint pain: hip, knee, ankle, foot, shoulder, elbow, wrist, hand 12. Enlarged glands (lymphadenopathy). 13. Unintentional weight loss. 14. Sensation of feeling the heart beat (palpitations with an irregular pattern). Possible Causes The cause of ALL is currently unknown. However, certain factors put individuals at a greater risk for ALL. For example, individuals have a ...'
p4360
asbasbasbasbasbasbasbag68
(g84
g70
NtRp4361
(dp4362
g73
(dp4363
sg82
g3697
sg75
(lp4364
g68
(g89
g70
NtRp4365
(dp4366
g73
(dp4367
sg82
g4361
sg75
(lp4368
g68
(g69
g70
NtRp4369
(dp4370
g73
(dp4371
g81
I4
ssg82
g4365
sg75
(lp4372
g68
(g77
g70
NtRp4373
(dp4374
g73
(dp4375
g81
I3
ssg82
Nsg75
(lp4376
g68
(g84
g70
NtRp4377
(dp4378
g73
(dp4379
sg82
g4373
sg75
(lp4380
g68
(g89
g70
NtRp4381
(dp4382
g73
(dp4383
sg82
g4377
sg75
(lp4384
g68
(g69
g70
NtRp4385
(dp4386
g73
(dp4387
g81
I3
ssg82
g4381
sg75
(lp4388
S'Paroxysmal nocturnal hemoglobinuria'
p4389
asbasbasbag68
(g84
g70
NtRp4390
(dp4391
g73
(dp4392
sg82
g4373
sg75
(lp4393
g68
(g89
g70
NtRp4394
(dp4395
g73
(dp4396
sg82
g4390
sg75
(lp4397
g68
(g69
g70
NtRp4398
(dp4399
g73
(dp4400
g81
I3
ssg82
g4394
sg75
(lp4401
S'http://en.wikipedia.org/wiki/Paroxysmal%20nocturnal%20hemoglobinuria'
p4402
asbasbasbag68
(g84
g70
NtRp4403
(dp4404
g73
(dp4405
sg82
g4373
sg75
(lp4406
g68
(g89
g70
NtRp4407
(dp4408
g73
(dp4409
sg82
g4403
sg75
(lp4410
g68
(g69
g70
NtRp4411
(dp4412
g73
(dp4413
g81
I3
ssg82
g4407
sg75
(lp4414
S'Paroxysmal nocturnal hemoglobinuria (PNH), sometimes referred to as Marchiafava-Micheli syndrome, is a rare, acquired, potentially life-threatening disease of the blood characterised by complement-induced intravascular hemolytic anemia (anemia due to destruction of red blood cells in the bloodstream), red urine (due to the appearance of hemoglobin in the urine) and thrombosis. PNH is the only hemolytic anemia caused by an acquired (rather than inherited) intrinsic defect in the cell membrane (deficiency of glycophosphatidylinositol leading to absence of protective proteins on the membrane). It may develop on its own ("primary PNH") or in the context of other bone marrow disorders such as aplastic anemia ("secondary PNH"). Only a minority have the telltale red urine in the morning. Treatment is usually supportive (blood transfusion for anemia, anticoagulation for thrombosis), although the monoclonal antibody eculizumab (Soliris) is being used to treat some cases. ==Signs and symptoms== Most people with "primary PNH" have red urine at some point in their disease course. Many of them continue to have low-grade breakdown of red blood cells, leading to anemia. Typical symptoms of anemia are tiredness, shortness of breath, and palpitations. On laboratory examination of the urine, breakdown products of red blood cells (hemoglobin and hemosiderin) may be identified. A small proportion of patients report abdominal pain, dysphagia (difficulty swallowing) and odynophagia (pain during swallowing), as well as erectile dysfunction in men - this occurs mainly when the breakdown of red blood cells is rapid. Forty percent of patients develop thrombosis (a blood clot) at some point in their illness. This is the main cause of severe complications and death in PNH. These may develop in common sites (deep vein thrombosis of the leg veins and resultant pulmonary embolism when these clots break off and enter the lungs), but, in PNH, blood clots may also form in more unusual sites: the hep...'
p4415
asbasbasbasbasbasbasbag68
(g84
g70
NtRp4416
(dp4417
g73
(dp4418
sg82
g3697
sg75
(lp4419
g68
(g89
g70
NtRp4420
(dp4421
g73
(dp4422
sg82
g4416
sg75
(lp4423
g68
(g69
g70
NtRp4424
(dp4425
g73
(dp4426
g81
I4
ssg82
g4420
sg75
(lp4427
g68
(g77
g70
NtRp4428
(dp4429
g73
(dp4430
g81
I3
ssg82
Nsg75
(lp4431
g68
(g84
g70
NtRp4432
(dp4433
g73
(dp4434
sg82
g4428
sg75
(lp4435
g68
(g89
g70
NtRp4436
(dp4437
g73
(dp4438
sg82
g4432
sg75
(lp4439
g68
(g69
g70
NtRp4440
(dp4441
g73
(dp4442
g81
I3
ssg82
g4436
sg75
(lp4443
S'Fanconi anaemia'
p4444
asbasbasbag68
(g84
g70
NtRp4445
(dp4446
g73
(dp4447
sg82
g4428
sg75
(lp4448
g68
(g89
g70
NtRp4449
(dp4450
g73
(dp4451
sg82
g4445
sg75
(lp4452
g68
(g69
g70
NtRp4453
(dp4454
g73
(dp4455
g81
I3
ssg82
g4449
sg75
(lp4456
S'http://www.socialstyrelsen.se/rarediseases/fanconianaemia'
p4457
asbasbasbag68
(g84
g70
NtRp4458
(dp4459
g73
(dp4460
sg82
g4428
sg75
(lp4461
g68
(g89
g70
NtRp4462
(dp4463
g73
(dp4464
sg82
g4458
sg75
(lp4465
g68
(g69
g70
NtRp4466
(dp4467
g73
(dp4468
g81
I3
ssg82
g4462
sg75
(lp4469
S'Print This is part of Rare diseases. Diagnosis: Fanconi anaemiaSynonyms: -- Innehll The disease Occurrence Cause Heredity Symptoms Diagnosis Treatment/interventions Practical advice National and regional resources in Sweden Resource personnel Courses, exchanges of experience, recreation Organizations for the disabled/patient associations Courses, exchanges of experience for personnel Research and development (R&D) Information material Literature Database references Document information Date of publication: 2009-03-30 Version: 1.0 The disease Fanconi anaemia is an inherited disorder. Though primarily considered a blood disease, it may affect all systems and organs of the body. The condition is named after Swiss paediatrician Guido Fanconi, who published the first case description in 1927. Haematological (blood) abnormalities in Fanconi anaemia include low counts of platelets (thrombocytes), red blood cells and white blood cells. Children with the condition are often born with skeletal anomalies, for example thumb and hip malformations or missing radius (one of the forearm bones), often in association with kidney, intestine and/or heart defects. Fanconi anaemia is also associated with an increased risk of bone marrow failure (aplastic anaemia). Fanconia anaemia is associated with an increased predisposition to malignancies. Of the several types of cancer which may occur, pre-leukaemic conditions known as myelodysplastic syndromes (MDS) are most common. MDS can progress to blood cancer (acute myeloid leukaemia, AML). There is also a high risk of developing malignant solid tumours, primarily in the liver and head and neck region. Large-scale patient studies show that Fanconi anaemia is a genetic disease, meaning that it is caused by a gene mutation. Fanconi anaemia is currently subdivided into 13 groups (complementation groups), depending on which gene is mutated. The most prevalent complementation group is known as FANCA. Occurrence The incidence of Fanconi anaemia is ...'
p4470
asbasbasbasbasbasbasbag68
(g84
g70
NtRp4471
(dp4472
g73
(dp4473
sg82
g3697
sg75
(lp4474
g68
(g89
g70
NtRp4475
(dp4476
g73
(dp4477
sg82
g4471
sg75
(lp4478
g68
(g69
g70
NtRp4479
(dp4480
g73
(dp4481
g81
I4
ssg82
g4475
sg75
(lp4482
g68
(g77
g70
NtRp4483
(dp4484
g73
(dp4485
g81
I3
ssg82
Nsg75
(lp4486
g68
(g84
g70
NtRp4487
(dp4488
g73
(dp4489
sg82
g4483
sg75
(lp4490
g68
(g89
g70
NtRp4491
(dp4492
g73
(dp4493
sg82
g4487
sg75
(lp4494
g68
(g69
g70
NtRp4495
(dp4496
g73
(dp4497
g81
I3
ssg82
g4491
sg75
(lp4498
S'Sickle Cell Anemia'
p4499
asbasbasbag68
(g84
g70
NtRp4500
(dp4501
g73
(dp4502
sg82
g4483
sg75
(lp4503
g68
(g89
g70
NtRp4504
(dp4505
g73
(dp4506
sg82
g4500
sg75
(lp4507
g68
(g69
g70
NtRp4508
(dp4509
g73
(dp4510
g81
I3
ssg82
g4504
sg75
(lp4511
S'http://rarediseases.about.com/od/rarediseasess/a/sicklecell.htm'
p4512
asbasbasbag68
(g84
g70
NtRp4513
(dp4514
g73
(dp4515
sg82
g4483
sg75
(lp4516
g68
(g89
g70
NtRp4517
(dp4518
g73
(dp4519
sg82
g4513
sg75
(lp4520
g68
(g69
g70
NtRp4521
(dp4522
g73
(dp4523
g81
I3
ssg82
g4517
sg75
(lp4524
S"Sickle cell anemia is an inherited blood disorder. Its main symptoms are long-term (chronic) anemia and episodes of pain. In the disorder, hemoglobin molecules in the red blood cells, which carry oxygen throughout the body, are defective. These defective molecules cause some of the red blood cells to change and form a sickle shape. These abnormally-shaped blood cells are the source of the anemia and pain. Sickle cell anemia occurs worldwide Sickle cell anemia is common among people whose ancestors come from sub-Saharan Africa, Spanish speaking regions of the world (South America, Cuba, and Central America), Saudi Arabia, India, and Mediterranean countries such as Turkey, Sicily, Greece, and Italy. Once thought to be a rare disease, research now shows that in the United States, sickle cell anemia occurs in about 1 in every 500 African-American children born and in 1 in every 900 Hispanic American children born. Passing on the gene to children Approximately 2 million Americans carry the defective gene for sickle cell anemia but do not themselves have the disease. However, if two people with the defective gene marry, there is a one in four chance that any child they have would have sickle cell anemia. Diagnosis Most states in the U.S. perform a simple blood test on all babies born to detect sickle cell anemia. If the test shows the abnormal hemoglobin is present, a second blood test is done to confirm the diagnosis. Symptoms Pain: The sickle-shaped red blood cells are sticky and have trouble passing through small blood vessels in the body. The cells get stuck, clump together, and block the flow of blood. Blocking off the blood causes pain. This is called a sickle cell crisis. Anemia: The sickle-shaped red blood cells die quickly. There are then not enough red blood cells to carry oxygen throughout the body. The result is fatigue, paleness, and shortness of breath. Delayed growth: Anemia slows the rate of growth because the body's cells don't get the oxygen they need to..."
p4525
asbasbasbasbasbasbasbag68
(g84
g70
NtRp4526
(dp4527
g73
(dp4528
sg82
g3697
sg75
(lp4529
g68
(g89
g70
NtRp4530
(dp4531
g73
(dp4532
sg82
g4526
sg75
(lp4533
g68
(g69
g70
NtRp4534
(dp4535
g73
(dp4536
g81
I4
ssg82
g4530
sg75
(lp4537
g68
(g77
g70
NtRp4538
(dp4539
g73
(dp4540
g81
I3
ssg82
Nsg75
(lp4541
g68
(g84
g70
NtRp4542
(dp4543
g73
(dp4544
sg82
g4538
sg75
(lp4545
g68
(g89
g70
NtRp4546
(dp4547
g73
(dp4548
sg82
g4542
sg75
(lp4549
g68
(g69
g70
NtRp4550
(dp4551
g73
(dp4552
g81
I3
ssg82
g4546
sg75
(lp4553
S'Autoimmune Hemolytic Anemia'
p4554
asbasbasbag68
(g84
g70
NtRp4555
(dp4556
g73
(dp4557
sg82
g4538
sg75
(lp4558
g68
(g89
g70
NtRp4559
(dp4560
g73
(dp4561
sg82
g4555
sg75
(lp4562
g68
(g69
g70
NtRp4563
(dp4564
g73
(dp4565
g81
I3
ssg82
g4559
sg75
(lp4566
S'http://www.madisonsfoundation.org/index.php/component/option,com_mpower/Itemid,49/diseaseID,309/index.html'
p4567
asbasbasbag68
(g84
g70
NtRp4568
(dp4569
g73
(dp4570
sg82
g4538
sg75
(lp4571
g68
(g89
g70
NtRp4572
(dp4573
g73
(dp4574
sg82
g4568
sg75
(lp4575
g68
(g69
g70
NtRp4576
(dp4577
g73
(dp4578
g81
I3
ssg82
g4572
sg75
(lp4579
S'Autoimmune Hemolytic Anemia Sunday, 31 August 2003 Last Updated Tuesday, 23 November 2004 What Autoimmune hemolytic anemia is a condition caused by the immune system which affects the bodys blood. In this condition, there are low levels of iron in the body due to the destruction of the red blood cells (RBC) that normally carry oxygen to the bodys tissues. Who Approximately half of all cases of autoimmune hemolytic anemia have unknown causes. In children 2-12 years of age, the disease is much more likely to be acute (short lived, i.e. 3-6 months). The disorder is preceded by a cold or flu in many cases, and this vial infection is thought to trigger the disorder. In infants, older children and adults, autoimmune hemolytic anemia is often a chronic condition, lasting months to years. Signs and Symptoms In children with autoimmune hemolytic anemia any of the following signs and symptoms may be found: Fatigue Pale skin color Yellow skin color (jaundice) Shortness of breath Rapid heartbeat Dark urine The following laboratory study results may be found: A positive Coombs test. This is a test for antibodies against RBCs. Increased levels of bilirubin levels. bilirubin is the by-product of the destruction of old RBCs. With increased RBC destruction, there will be increased levels of bilirubin. The increased bilirubin is the cause of the yellowish skin color referred to as jaundice, and the dark urine, which is due to bilirubin breakdown products in the urine. Elevated levels of reticulocytes. Reticulocytes are the precursors to RBCs. The levels are increased because the body is trying to rapidly replace the destroyed cells. Low red blood cell count Low hemoglobin levels These signs and symptoms usually have a relatively sudden onset, appearing over a few days. Possible Causes In approximately half of all autoimmune hemolytic anemia cases, the condition is classified as idiopathic, meaning the cause is unknown. Alternatively, it may be caused by medications or other underlyin...'
p4580
asbasbasbasbasbasbasbag68
(g84
g70
NtRp4581
(dp4582
g73
(dp4583
sg82
g3697
sg75
(lp4584
g68
(g89
g70
NtRp4585
(dp4586
g73
(dp4587
sg82
g4581
sg75
(lp4588
g68
(g69
g70
NtRp4589
(dp4590
g73
(dp4591
g81
I4
ssg82
g4585
sg75
(lp4592
g68
(g77
g70
NtRp4593
(dp4594
g73
(dp4595
g81
I3
ssg82
Nsg75
(lp4596
g68
(g84
g70
NtRp4597
(dp4598
g73
(dp4599
sg82
g4593
sg75
(lp4600
g68
(g89
g70
NtRp4601
(dp4602
g73
(dp4603
sg82
g4597
sg75
(lp4604
g68
(g69
g70
NtRp4605
(dp4606
g73
(dp4607
g81
I3
ssg82
g4601
sg75
(lp4608
S"Waldenstrom's Macroglobulinemia (WM)"
p4609
asbasbasbag68
(g84
g70
NtRp4610
(dp4611
g73
(dp4612
sg82
g4593
sg75
(lp4613
g68
(g89
g70
NtRp4614
(dp4615
g73
(dp4616
sg82
g4610
sg75
(lp4617
g68
(g69
g70
NtRp4618
(dp4619
g73
(dp4620
g81
I3
ssg82
g4614
sg75
(lp4621
S'http://www.madisonsfoundation.org/index.php/component/option,com_mpower/Itemid,49/diseaseID,304/index.html'
p4622
asbasbasbag68
(g84
g70
NtRp4623
(dp4624
g73
(dp4625
sg82
g4593
sg75
(lp4626
g68
(g89
g70
NtRp4627
(dp4628
g73
(dp4629
sg82
g4623
sg75
(lp4630
g68
(g69
g70
NtRp4631
(dp4632
g73
(dp4633
g81
I3
ssg82
g4627
sg75
(lp4634
S"Waldenstrom's Macroglobulinemia (WM) Sunday, 31 August 2003 Last Updated Monday, 04 December 2006 What Waldenstroms macroglobulinemia (WM) is a rare form of cancer that affects plasma cells, which come from a type of white blood cell called B cells. These plasma cells multiply out of control and fill the bone marrow, lymph nodes, and spleen. This causes an overproduction of antibodies, specifically an antibody called IgM. Increased IgM in the blood causes the blood to thicken, which can cause symptoms of dizziness, headaches, visual problems, and the tendency to bleed and bruise easily. Who WM is a rare condition, accounting only for 2% of all blood cancers. WM is very rare in children. In adults, it occurs in 5 out of 100,000 people over 50 years old and the average age at diagnosis is 60 yrs-old. It is more prevalent in males than females, and there is an increased incidence in Caucasians versus African Americans. Signs and Symptoms Some or all of the following may be seen in people with Waldenstroms macroglobulinemia: - Fatigue, weight loss, anorexia - Tendency to bleed and bruise easily (due to the lack of platelets) - Anemia (low red blood cell levels) - Enlarged spleen, liver, and lymph nodes - Headaches and dizziness - Visual problems, such as blurry or decreased vision - Numbness, tingling, or pain in the arms and/or legs - Mental status changes and lethargy Possible Causes WM is caused by the overproduction of a specific type of protein in the body known as immunoglobin type M (IgM). IgM is a protein that normally serves a protective role against infection as part of the immune system. It is produced by a blood cell known as plasma cells which are formed in the spleen, lymph nodes, and bone marrow. In WM, plasma cells multiply out of control. As these plasma cells start increasing, the bodys immune system begins overproducing antibodies as it would during an infection. Since there is no infection, these antibodies (IgM type) accumulate in the blood. This ca..."
p4635
asbasbasbasbasbasbasbag68
(g84
g70
NtRp4636
(dp4637
g73
(dp4638
sg82
g3697
sg75
(lp4639
g68
(g89
g70
NtRp4640
(dp4641
g73
(dp4642
sg82
g4636
sg75
(lp4643
g68
(g69
g70
NtRp4644
(dp4645
g73
(dp4646
g81
I4
ssg82
g4640
sg75
(lp4647
g68
(g77
g70
NtRp4648
(dp4649
g73
(dp4650
g81
I3
ssg82
Nsg75
(lp4651
g68
(g84
g70
NtRp4652
(dp4653
g73
(dp4654
sg82
g4648
sg75
(lp4655
g68
(g89
g70
NtRp4656
(dp4657
g73
(dp4658
sg82
g4652
sg75
(lp4659
g68
(g69
g70
NtRp4660
(dp4661
g73
(dp4662
g81
I3
ssg82
g4656
sg75
(lp4663
S'Myelodysplastic Syndrome'
p4664
asbasbasbag68
(g84
g70
NtRp4665
(dp4666
g73
(dp4667
sg82
g4648
sg75
(lp4668
g68
(g89
g70
NtRp4669
(dp4670
g73
(dp4671
sg82
g4665
sg75
(lp4672
g68
(g69
g70
NtRp4673
(dp4674
g73
(dp4675
g81
I3
ssg82
g4669
sg75
(lp4676
S'http://rarediseases.about.com/od/rarediseases1/a/myelodysplastic.htm'
p4677
asbasbasbag68
(g84
g70
NtRp4678
(dp4679
g73
(dp4680
sg82
g4648
sg75
(lp4681
g68
(g89
g70
NtRp4682
(dp4683
g73
(dp4684
sg82
g4678
sg75
(lp4685
g68
(g69
g70
NtRp4686
(dp4687
g73
(dp4688
g81
I3
ssg82
g4682
sg75
(lp4689
S"There are several subtypes of myelodysplastic syndromes (MDS), but they are all disorders in which the cells in the bone marrow don't function normally and not enough normal blood cells are produced. MDS usually occurs in older people, typically starting after age 50. Myelodysplastic syndrome is rarely inherited. For many people, it develops without any known cause. In other people, MDS may develop after being exposed to chemotherapy or radiation therapy. Exposures to industrial chemicals such as benzene are also linked to the development of MDS. Symptoms The symptoms of myelodysplastic syndrome are related to the lack of normal blood cells. Lack of red blood cells causes anemia (leading to fatigue and shortness of breath) Lack of white blood cells leaves the body open to infection Lack of platelet cells makes it difficult for the blood to clot (leading to unusual bruising or bleeding) Different people are affected in different ways by myelodysplastic syndrome, and its symptoms can range from mild to very severe. Some people may only have long-term (chronic) anemia. Diagnosis The symptoms a person is having, such as fatigue and shortness of breath, may suggest a diagnosis of myelodysplastic syndrome. A complete blood count and blood smear are done to look at the numbers and types of blood cells in a blood sample. In MDS, the numbers of red cells, white cells, and platelets may be lower than normal. If the blood cell counts are abnormal, a bone marrow sample (biopsy) may be taken and examined under the microscope for abnormal immature white blood cells called leukemic blast cells. Not all individuals with myelodysplastic syndrome will have this type of cell in the bone marrow. Special testing called cytogenetics will look at the genetic material (chromosomes) in the bone marrow cells. Certain types of abnormal chromosomes are present in myelodysplastic syndrome. For example, pieces of chromosome 5 or 7 may be missing, or there may be three copies of chromosome 8 inst..."
p4690
asbasbasbasbasbasbasbag68
(g84
g70
NtRp4691
(dp4692
g73
(dp4693
sg82
g3697
sg75
(lp4694
g68
(g89
g70
NtRp4695
(dp4696
g73
(dp4697
sg82
g4691
sg75
(lp4698
g68
(g69
g70
NtRp4699
(dp4700
g73
(dp4701
g81
I4
ssg82
g4695
sg75
(lp4702
g68
(g77
g70
NtRp4703
(dp4704
g73
(dp4705
g81
I3
ssg82
Nsg75
(lp4706
g68
(g84
g70
NtRp4707
(dp4708
g73
(dp4709
sg82
g4703
sg75
(lp4710
g68
(g89
g70
NtRp4711
(dp4712
g73
(dp4713
sg82
g4707
sg75
(lp4714
g68
(g69
g70
NtRp4715
(dp4716
g73
(dp4717
g81
I3
ssg82
g4711
sg75
(lp4718
S'Idiopathic Thrombocytopenic Purpura'
p4719
asbasbasbag68
(g84
g70
NtRp4720
(dp4721
g73
(dp4722
sg82
g4703
sg75
(lp4723
g68
(g89
g70
NtRp4724
(dp4725
g73
(dp4726
sg82
g4720
sg75
(lp4727
g68
(g69
g70
NtRp4728
(dp4729
g73
(dp4730
g81
I3
ssg82
g4724
sg75
(lp4731
S'http://www.madisonsfoundation.org/index.php/component/option,com_mpower/Itemid,49/diseaseID,532/index.html'
p4732
asbasbasbag68
(g84
g70
NtRp4733
(dp4734
g73
(dp4735
sg82
g4703
sg75
(lp4736
g68
(g89
g70
NtRp4737
(dp4738
g73
(dp4739
sg82
g4733
sg75
(lp4740
g68
(g69
g70
NtRp4741
(dp4742
g73
(dp4743
g81
I3
ssg82
g4737
sg75
(lp4744
S'Idiopathic Thrombocytopenic Purpura Monday, 18 October 2004 Last Updated Monday, 29 November 2004 What Idiopathic Thrombocytopenic Purpura (ITP) is the development of purpura, which are purplish areas on the skin where superficial bleeding has occurred, due to low platelet levels (thrombocytopenia). It is an autoimmune process, where the bodys immune system attacks and destroys platelets necessary for blood clotting, resulting in bleeding and easy bruising. The cause of ITP is unknown or idiopathic. Who ITP occurs in one of 20,000 children born per year. Girls are affected two to three times more frequently than boys. It most commonly affects children 2-4 years old. In children less than 10 years, ITP usually lasts less than 6 months and is not associated with other underlying illnesses. Adolescent females may develop a more chronic form of ITP, where recovery is prolonged. Signs and Symptoms Acute ITP develops abruptly in an otherwise healthy child. Symptoms include gum/nose bleeding, easy bruising, purpura and petechiae (tiny red spots on the skin usually on the lower legs or inside the mouth resembling a rash). Fever and fatigue are uncommon and the child otherwise feels well. If platelet counts are very low, bleeding may occur in the stool and/or urine. The most worrisome location for bleeding is in the brain. If this occurs, the child may appear sleepy and confused or complain of a severe headache. Bleeding in the brain is very dangerous and needs immediate medical attention. Unlike children with hemophilia, ITP patients are not at risk for deep joint/muscle bleeding. Enlargement of the spleen, liver, and lymph nodes are also unusual in ITP and raise the concern for leukemia. Chronic ITP presents more gradually. Female adolescents with ITP may present with menorrhagia (very heavy menstrual periods). Possible Causes ITP is not hereditary, contagious or preventable. It occurs more commonly in late winter and spring. Typically, children who develop ITP have a hist...'
p4745
asbasbasbasbasbasbasbag68
(g84
g70
NtRp4746
(dp4747
g73
(dp4748
sg82
g3697
sg75
(lp4749
g68
(g89
g70
NtRp4750
(dp4751
g73
(dp4752
sg82
g4746
sg75
(lp4753
g68
(g69
g70
NtRp4754
(dp4755
g73
(dp4756
g81
I4
ssg82
g4750
sg75
(lp4757
g68
(g77
g70
NtRp4758
(dp4759
g73
(dp4760
g81
I3
ssg82
Nsg75
(lp4761
g68
(g84
g70
NtRp4762
(dp4763
g73
(dp4764
sg82
g4758
sg75
(lp4765
g68
(g89
g70
NtRp4766
(dp4767
g73
(dp4768
sg82
g4762
sg75
(lp4769
g68
(g69
g70
NtRp4770
(dp4771
g73
(dp4772
g81
I3
ssg82
g4766
sg75
(lp4773
S'Shwachman-Diamond Syndrome (SDS)'
p4774
asbasbasbag68
(g84
g70
NtRp4775
(dp4776
g73
(dp4777
sg82
g4758
sg75
(lp4778
g68
(g89
g70
NtRp4779
(dp4780
g73
(dp4781
sg82
g4775
sg75
(lp4782
g68
(g69
g70
NtRp4783
(dp4784
g73
(dp4785
g81
I3
ssg82
g4779
sg75
(lp4786
S'http://www.madisonsfoundation.org/index.php/component/option,com_mpower/Itemid,49/diseaseID,231/index.html'
p4787
asbasbasbag68
(g84
g70
NtRp4788
(dp4789
g73
(dp4790
sg82
g4758
sg75
(lp4791
g68
(g89
g70
NtRp4792
(dp4793
g73
(dp4794
sg82
g4788
sg75
(lp4795
g68
(g69
g70
NtRp4796
(dp4797
g73
(dp4798
g81
I3
ssg82
g4792
sg75
(lp4799
S'Shwachman-Diamond Syndrome (SDS) Shwachman Syndrome, Swachman-Bodian-Diamond Syndrome Sunday, 27 July 2003 Last Updated Thursday, 14 September 2006 What Shwachman-Diamond Syndrome (SDS) is an inherited disorder that impairs pancreatic and bone marrow function and results in decreased height. SDS may also cause other effects including skeletal changes. Effects on the pancreas reduce intestinal nutrient absorption, but this malabsorption is largely reversible with treatment. Impairment of bone marrow (which produces all types of blood cells) most commonly causes decreased numbers of neutrophils, a type of white blood cell that fights infection. However, leukemia and aplastic anemia (in which the bone marrow is unable to generate sufficient quantities of all types of blood cells) also develop in some patients. The course of SDS varies significantly, and every case is different. Who Children usually develop symptoms in their first year of life. Many are affected by four months of age. The incidence is unknown but estimated to be 1 in 50,000 births. The disorder is present in people of all racial and ethnic backgrounds. Males reportedly develop the disorder slightly more often than females (1.7:1), but an actual disparity is doubtful since the suspected mode of inheritance (described next) leads to equal incidence in both sexes. SDS is a genetically inherited disorder. A child receives two copies of every gene--one from each parent. For a child to be affected by SDS, that child must inherit two broken copies of the gene associated with SDS. One broken copy must come from the mother and the other from the father. Even though both parents have broken gene copies, they probably are not affected by SDS because they each have a second normal copy of the gene. Thus, it is unlikely that the parents could have known that they might have a child with SDS. Additionally, parents have no control over whether they give their child a normal or broken copy of a gene. In this scenario i...'
p4800
asbasbasbasbasbasbasbasbasbasbasbag68
(g84
g70
NtRp4801
(dp4802
g73
(dp4803
sg82
g3672
sg75
(lp4804
g68
(g89
g70
NtRp4805
(dp4806
g73
(dp4807
g93
g94
ssg82
g4801
sg75
(lp4808
S'hashstring'
p4809
asbag68
(g89
g70
NtRp4810
(dp4811
g73
(dp4812
g100
g101
ssg82
g4801
sg75
(lp4813
S':'
asbag68
(g89
g70
NtRp4814
(dp4815
g73
(dp4816
sg82
g4801
sg75
(lp4817
g68
(g69
g70
NtRp4818
(dp4819
g73
(dp4820
g81
I5
ssg82
g4814
sg75
(lp4821
S'7301f5cf6f26afffe0086e9fca9f2f1b'
p4822
asbasbasbag68
(g84
g70
NtRp4823
(dp4824
g73
(dp4825
sg82
g3672
sg75
(lp4826
g68
(g89
g70
NtRp4827
(dp4828
g73
(dp4829
g93
g94
ssg82
g4823
sg75
(lp4830
S'query'
p4831
asbag68
(g89
g70
NtRp4832
(dp4833
g73
(dp4834
g100
g101
ssg82
g4823
sg75
(lp4835
S':'
asbag68
(g89
g70
NtRp4836
(dp4837
g73
(dp4838
sg82
g4823
sg75
(lp4839
g68
(g69
g70
NtRp4840
(dp4841
g73
(dp4842
g81
I5
ssg82
g4836
sg75
(lp4843
S'anemia, low red blood cells count, infection'
p4844
asbasbasbasbasbsS'etype'
p4845
S"<type 'exceptions.SyntaxError'>"
p4846
sS'date'
p4847
S'Thu Jun 30 16:39:36 2011'
p4848
sS'response'
p4849
g68
(g69
g70
NtRp4850
(dp4851
g73
(dp4852
sg75
(lp4853
g68
(g77
g70
NtRp4854
(dp4855
g73
(dp4856
g81
I5
ssg82
Nsg75
(lp4857
g68
(g84
g70
NtRp4858
(dp4859
g73
(dp4860
sg82
g4854
sg75
(lp4861
g68
(g89
g70
NtRp4862
(dp4863
g73
(dp4864
g93
g94
ssg82
g4858
sg75
(lp4865
g166
asbag68
(g89
g70
NtRp4866
(dp4867
g73
(dp4868
g100
g101
ssg82
g4858
sg75
(lp4869
S':'
asbag68
(g89
g70
NtRp4870
(dp4871
g73
(dp4872
sg82
g4858
sg75
(lp4873
g68
(g69
g70
NtRp4874
(dp4875
g73
(dp4876
g81
I5
ssg82
g4870
sg75
(lp4877
S'<cStringIO.StringO object at 0x2b9bdbf21378>'
p4878
asbasbasbag68
(g84
g70
NtRp4879
(dp4880
g73
(dp4881
sg82
g4854
sg75
(lp4882
g68
(g89
g70
NtRp4883
(dp4884
g73
(dp4885
g93
g94
ssg82
g4879
sg75
(lp4886
g232
asbag68
(g89
g70
NtRp4887
(dp4888
g73
(dp4889
g100
g101
ssg82
g4879
sg75
(lp4890
S':'
asbag68
(g89
g70
NtRp4891
(dp4892
g73
(dp4893
sg82
g4879
sg75
(lp4894
g68
(g69
g70
NtRp4895
(dp4896
g73
(dp4897
g81
I5
ssg82
g4891
sg75
(lp4898
g68
(g77
g70
NtRp4899
(dp4900
g73
(dp4901
g81
I4
ssg82
Nsg75
(lp4902
g68
(g84
g70
NtRp4903
(dp4904
g73
(dp4905
sg82
g4899
sg75
(lp4906
g68
(g89
g70
NtRp4907
(dp4908
g73
(dp4909
g93
g94
ssg82
g4903
sg75
(lp4910
S'session_id_rdcdss'
p4911
asbag68
(g89
g70
NtRp4912
(dp4913
g73
(dp4914
g100
g101
ssg82
g4903
sg75
(lp4915
S':'
asbag68
(g89
g70
NtRp4916
(dp4917
g73
(dp4918
sg82
g4903
sg75
(lp4919
g68
(g69
g70
NtRp4920
(dp4921
g73
(dp4922
g81
I4
ssg82
g4916
sg75
(lp4923
g68
(g77
g70
NtRp4924
(dp4925
g73
(dp4926
g81
I3
ssg82
Nsg75
(lp4927
g68
(g84
g70
NtRp4928
(dp4929
g73
(dp4930
sg82
g4924
sg75
(lp4931
g68
(g89
g70
NtRp4932
(dp4933
g73
(dp4934
g93
g94
ssg82
g4928
sg75
(lp4935
g282
asbag68
(g89
g70
NtRp4936
(dp4937
g73
(dp4938
g100
g101
ssg82
g4928
sg75
(lp4939
S':'
asbag68
(g89
g70
NtRp4940
(dp4941
g73
(dp4942
sg82
g4928
sg75
(lp4943
g68
(g69
g70
NtRp4944
(dp4945
g73
(dp4946
g81
I3
ssg82
g4940
sg75
(lp4947
S''
asbasbasbag68
(g84
g70
NtRp4948
(dp4949
g73
(dp4950
sg82
g4924
sg75
(lp4951
g68
(g89
g70
NtRp4952
(dp4953
g73
(dp4954
g93
g94
ssg82
g4948
sg75
(lp4955
g303
asbag68
(g89
g70
NtRp4956
(dp4957
g73
(dp4958
g100
g101
ssg82
g4948
sg75
(lp4959
S':'
asbag68
(g89
g70
NtRp4960
(dp4961
g73
(dp4962
sg82
g4948
sg75
(lp4963
g68
(g69
g70
NtRp4964
(dp4965
g73
(dp4966
g81
I3
ssg82
g4960
sg75
(lp4967
S''
asbasbasbag68
(g84
g70
NtRp4968
(dp4969
g73
(dp4970
sg82
g4924
sg75
(lp4971
g68
(g89
g70
NtRp4972
(dp4973
g73
(dp4974
g93
g94
ssg82
g4968
sg75
(lp4975
g324
asbag68
(g89
g70
NtRp4976
(dp4977
g73
(dp4978
g100
g101
ssg82
g4968
sg75
(lp4979
S':'
asbag68
(g89
g70
NtRp4980
(dp4981
g73
(dp4982
sg82
g4968
sg75
(lp4983
g68
(g69
g70
NtRp4984
(dp4985
g73
(dp4986
g81
I3
ssg82
g4980
sg75
(lp4987
S''
asbasbasbag68
(g84
g70
NtRp4988
(dp4989
g73
(dp4990
sg82
g4924
sg75
(lp4991
g68
(g89
g70
NtRp4992
(dp4993
g73
(dp4994
g93
g94
ssg82
g4988
sg75
(lp4995
g345
asbag68
(g89
g70
NtRp4996
(dp4997
g73
(dp4998
g100
g101
ssg82
g4988
sg75
(lp4999
S':'
asbag68
(g89
g70
NtRp5000
(dp5001
g73
(dp5002
sg82
g4988
sg75
(lp5003
g68
(g69
g70
NtRp5004
(dp5005
g73
(dp5006
g81
I3
ssg82
g5000
sg75
(lp5007
S''
asbasbasbag68
(g84
g70
NtRp5008
(dp5009
g73
(dp5010
sg82
g4924
sg75
(lp5011
g68
(g89
g70
NtRp5012
(dp5013
g73
(dp5014
g93
g94
ssg82
g5008
sg75
(lp5015
g366
asbag68
(g89
g70
NtRp5016
(dp5017
g73
(dp5018
g100
g101
ssg82
g5008
sg75
(lp5019
S':'
asbag68
(g89
g70
NtRp5020
(dp5021
g73
(dp5022
sg82
g5008
sg75
(lp5023
g68
(g69
g70
NtRp5024
(dp5025
g73
(dp5026
g81
I3
ssg82
g5020
sg75
(lp5027
S''
asbasbasbag68
(g84
g70
NtRp5028
(dp5029
g73
(dp5030
sg82
g4924
sg75
(lp5031
g68
(g89
g70
NtRp5032
(dp5033
g73
(dp5034
g93
g94
ssg82
g5028
sg75
(lp5035
g387
asbag68
(g89
g70
NtRp5036
(dp5037
g73
(dp5038
g100
g101
ssg82
g5028
sg75
(lp5039
S':'
asbag68
(g89
g70
NtRp5040
(dp5041
g73
(dp5042
sg82
g5028
sg75
(lp5043
g68
(g69
g70
NtRp5044
(dp5045
g73
(dp5046
g81
I3
ssg82
g5040
sg75
(lp5047
S'/'
asbasbasbag68
(g84
g70
NtRp5048
(dp5049
g73
(dp5050
sg82
g4924
sg75
(lp5051
g68
(g89
g70
NtRp5052
(dp5053
g73
(dp5054
g93
g94
ssg82
g5048
sg75
(lp5055
g408
asbag68
(g89
g70
NtRp5056
(dp5057
g73
(dp5058
g100
g101
ssg82
g5048
sg75
(lp5059
S':'
asbag68
(g89
g70
NtRp5060
(dp5061
g73
(dp5062
sg82
g5048
sg75
(lp5063
g68
(g69
g70
NtRp5064
(dp5065
g73
(dp5066
g81
I3
ssg82
g5060
sg75
(lp5067
S''
asbasbasbag68
(g84
g70
NtRp5068
(dp5069
g73
(dp5070
sg82
g4924
sg75
(lp5071
g68
(g89
g70
NtRp5072
(dp5073
g73
(dp5074
g93
g94
ssg82
g5068
sg75
(lp5075
g429
asbag68
(g89
g70
NtRp5076
(dp5077
g73
(dp5078
g100
g101
ssg82
g5068
sg75
(lp5079
S':'
asbag68
(g89
g70
NtRp5080
(dp5081
g73
(dp5082
sg82
g5068
sg75
(lp5083
g68
(g69
g70
NtRp5084
(dp5085
g73
(dp5086
g81
I3
ssg82
g5080
sg75
(lp5087
S''
asbasbasbasbasbasbasbasbasbasbasbag68
(g84
g70
NtRp5088
(dp5089
g73
(dp5090
sg82
g4854
sg75
(lp5091
g68
(g89
g70
NtRp5092
(dp5093
g73
(dp5094
g93
g94
ssg82
g5088
sg75
(lp5095
S'files'
p5096
asbag68
(g89
g70
NtRp5097
(dp5098
g73
(dp5099
g100
g101
ssg82
g5088
sg75
(lp5100
S':'
asbag68
(g89
g70
NtRp5101
(dp5102
g73
(dp5103
sg82
g5088
sg75
(lp5104
g68
(g69
g70
NtRp5105
(dp5106
g73
(dp5107
g81
I5
ssg82
g5101
sg75
(lp5108
g68
(g77
g70
NtRp5109
(dp5110
g73
(dp5111
g81
I4
ssg82
Nsg75
(lp5112
sbasbasbasbag68
(g84
g70
NtRp5113
(dp5114
g73
(dp5115
sg82
g4854
sg75
(lp5116
g68
(g89
g70
NtRp5117
(dp5118
g73
(dp5119
g93
g94
ssg82
g5113
sg75
(lp5120
S'flash'
p5121
asbag68
(g89
g70
NtRp5122
(dp5123
g73
(dp5124
g100
g101
ssg82
g5113
sg75
(lp5125
S':'
asbag68
(g89
g70
NtRp5126
(dp5127
g73
(dp5128
sg82
g5113
sg75
(lp5129
g68
(g69
g70
NtRp5130
(dp5131
g73
(dp5132
g81
I5
ssg82
g5126
sg75
(lp5133
S''
asbasbasbag68
(g84
g70
NtRp5134
(dp5135
g73
(dp5136
sg82
g4854
sg75
(lp5137
g68
(g89
g70
NtRp5138
(dp5139
g73
(dp5140
g93
g94
ssg82
g5134
sg75
(lp5141
S'headers'
p5142
asbag68
(g89
g70
NtRp5143
(dp5144
g73
(dp5145
g100
g101
ssg82
g5134
sg75
(lp5146
S':'
asbag68
(g89
g70
NtRp5147
(dp5148
g73
(dp5149
sg82
g5134
sg75
(lp5150
g68
(g69
g70
NtRp5151
(dp5152
g73
(dp5153
g81
I5
ssg82
g5147
sg75
(lp5154
g68
(g77
g70
NtRp5155
(dp5156
g73
(dp5157
g81
I4
ssg82
Nsg75
(lp5158
g68
(g84
g70
NtRp5159
(dp5160
g73
(dp5161
sg82
g5155
sg75
(lp5162
g68
(g89
g70
NtRp5163
(dp5164
g73
(dp5165
g93
g94
ssg82
g5159
sg75
(lp5166
S'Cache-Control'
p5167
asbag68
(g89
g70
NtRp5168
(dp5169
g73
(dp5170
g100
g101
ssg82
g5159
sg75
(lp5171
S':'
asbag68
(g89
g70
NtRp5172
(dp5173
g73
(dp5174
sg82
g5159
sg75
(lp5175
g68
(g69
g70
NtRp5176
(dp5177
g73
(dp5178
g81
I4
ssg82
g5172
sg75
(lp5179
S'no-store, no-cache, must-revalidate, post-check=0, pre-check=0'
p5180
asbasbasbag68
(g84
g70
NtRp5181
(dp5182
g73
(dp5183
sg82
g5155
sg75
(lp5184
g68
(g89
g70
NtRp5185
(dp5186
g73
(dp5187
g93
g94
ssg82
g5181
sg75
(lp5188
S'Content-Type'
p5189
asbag68
(g89
g70
NtRp5190
(dp5191
g73
(dp5192
g100
g101
ssg82
g5181
sg75
(lp5193
S':'
asbag68
(g89
g70
NtRp5194
(dp5195
g73
(dp5196
sg82
g5181
sg75
(lp5197
g68
(g69
g70
NtRp5198
(dp5199
g73
(dp5200
g81
I4
ssg82
g5194
sg75
(lp5201
S'application/xml'
p5202
asbasbasbag68
(g84
g70
NtRp5203
(dp5204
g73
(dp5205
sg82
g5155
sg75
(lp5206
g68
(g89
g70
NtRp5207
(dp5208
g73
(dp5209
g93
g94
ssg82
g5203
sg75
(lp5210
S'Expires'
p5211
asbag68
(g89
g70
NtRp5212
(dp5213
g73
(dp5214
g100
g101
ssg82
g5203
sg75
(lp5215
S':'
asbag68
(g89
g70
NtRp5216
(dp5217
g73
(dp5218
sg82
g5203
sg75
(lp5219
g68
(g69
g70
NtRp5220
(dp5221
g73
(dp5222
g81
I4
ssg82
g5216
sg75
(lp5223
S'Thu, 30 Jun 2011 12:39:36 GMT'
p5224
asbasbasbag68
(g84
g70
NtRp5225
(dp5226
g73
(dp5227
sg82
g5155
sg75
(lp5228
g68
(g89
g70
NtRp5229
(dp5230
g73
(dp5231
g93
g94
ssg82
g5225
sg75
(lp5232
S'Pragma'
p5233
asbag68
(g89
g70
NtRp5234
(dp5235
g73
(dp5236
g100
g101
ssg82
g5225
sg75
(lp5237
S':'
asbag68
(g89
g70
NtRp5238
(dp5239
g73
(dp5240
sg82
g5225
sg75
(lp5241
g68
(g69
g70
NtRp5242
(dp5243
g73
(dp5244
g81
I4
ssg82
g5238
sg75
(lp5245
S'no-cache'
p5246
asbasbasbasbasbasbasbag68
(g84
g70
NtRp5247
(dp5248
g73
(dp5249
sg82
g4854
sg75
(lp5250
g68
(g89
g70
NtRp5251
(dp5252
g73
(dp5253
g93
g94
ssg82
g5247
sg75
(lp5254
S'menu'
p5255
asbag68
(g89
g70
NtRp5256
(dp5257
g73
(dp5258
g100
g101
ssg82
g5247
sg75
(lp5259
S':'
asbag68
(g89
g70
NtRp5260
(dp5261
g73
(dp5262
sg82
g5247
sg75
(lp5263
g68
(g69
g70
NtRp5264
(dp5265
g73
(dp5266
g81
I5
ssg82
g5260
sg75
(lp5267
g68
(g77
g70
NtRp5268
(dp5269
g73
(dp5270
g81
I4
ssg82
Nsg75
(lp5271
g68
(g84
g70
NtRp5272
(dp5273
g73
(dp5274
sg82
g5268
sg75
(lp5275
g68
(g89
g70
NtRp5276
(dp5277
g73
(dp5278
sg82
g5272
sg75
(lp5279
g68
(g69
g70
NtRp5280
(dp5281
g73
(dp5282
g81
I4
ssg82
g5276
sg75
(lp5283
g68
(g77
g70
NtRp5284
(dp5285
g73
(dp5286
g81
I3
ssg82
Nsg75
(lp5287
g68
(g84
g70
NtRp5288
(dp5289
g73
(dp5290
sg82
g5284
sg75
(lp5291
g68
(g89
g70
NtRp5292
(dp5293
g73
(dp5294
sg82
g5288
sg75
(lp5295
g68
(g69
g70
NtRp5296
(dp5297
g73
(dp5298
g81
I3
ssg82
g5292
sg75
(lp5299
cgluon.languages
lazyT_unpickle
p5300
(S's\x04\x00\x00\x00Home'
tRp5301
asbasbasbag68
(g84
g70
NtRp5302
(dp5303
g73
(dp5304
sg82
g5284
sg75
(lp5305
g68
(g89
g70
NtRp5306
(dp5307
g73
(dp5308
sg82
g5302
sg75
(lp5309
g68
(g69
g70
NtRp5310
(dp5311
g73
(dp5312
g81
I3
ssg82
g5306
sg75
(lp5313
g111
asbasbasbag68
(g84
g70
NtRp5314
(dp5315
g73
(dp5316
sg82
g5284
sg75
(lp5317
g68
(g89
g70
NtRp5318
(dp5319
g73
(dp5320
sg82
g5314
sg75
(lp5321
g68
(g69
g70
NtRp5322
(dp5323
g73
(dp5324
g81
I3
ssg82
g5318
sg75
(lp5325
S'/rdcdss/default/index'
p5326
asbasbasbag68
(g84
g70
NtRp5327
(dp5328
g73
(dp5329
sg82
g5284
sg75
(lp5330
g68
(g89
g70
NtRp5331
(dp5332
g73
(dp5333
sg82
g5327
sg75
(lp5334
g68
(g69
g70
NtRp5335
(dp5336
g73
(dp5337
g81
I3
ssg82
g5331
sg75
(lp5338
g68
(g77
g70
NtRp5339
(dp5340
g73
(dp5341
g81
I2
ssg82
Nsg75
(lp5342
sbasbasbasbasbasbasbasbag68
(g84
g70
NtRp5343
(dp5344
g73
(dp5345
sg82
g5268
sg75
(lp5346
g68
(g89
g70
NtRp5347
(dp5348
g73
(dp5349
sg82
g5343
sg75
(lp5350
g68
(g69
g70
NtRp5351
(dp5352
g73
(dp5353
g81
I4
ssg82
g5347
sg75
(lp5354
g68
(g77
g70
NtRp5355
(dp5356
g73
(dp5357
g81
I3
ssg82
Nsg75
(lp5358
g68
(g84
g70
NtRp5359
(dp5360
g73
(dp5361
sg82
g5355
sg75
(lp5362
g68
(g89
g70
NtRp5363
(dp5364
g73
(dp5365
sg82
g5359
sg75
(lp5366
g68
(g69
g70
NtRp5367
(dp5368
g73
(dp5369
g81
I3
ssg82
g5363
sg75
(lp5370
g5300
(S's\x08\x00\x00\x00This App'
tRp5371
asbasbasbag68
(g84
g70
NtRp5372
(dp5373
g73
(dp5374
sg82
g5355
sg75
(lp5375
g68
(g89
g70
NtRp5376
(dp5377
g73
(dp5378
sg82
g5372
sg75
(lp5379
g68
(g69
g70
NtRp5380
(dp5381
g73
(dp5382
g81
I3
ssg82
g5376
sg75
(lp5383
g111
asbasbasbag68
(g84
g70
NtRp5384
(dp5385
g73
(dp5386
sg82
g5355
sg75
(lp5387
g68
(g89
g70
NtRp5388
(dp5389
g73
(dp5390
sg82
g5384
sg75
(lp5391
g68
(g69
g70
NtRp5392
(dp5393
g73
(dp5394
g81
I3
ssg82
g5388
sg75
(lp5395
S'/admin/default/design/rdcdss'
p5396
asbasbasbag68
(g84
g70
NtRp5397
(dp5398
g73
(dp5399
sg82
g5355
sg75
(lp5400
g68
(g89
g70
NtRp5401
(dp5402
g73
(dp5403
sg82
g5397
sg75
(lp5404
g68
(g69
g70
NtRp5405
(dp5406
g73
(dp5407
g81
I3
ssg82
g5401
sg75
(lp5408
g68
(g77
g70
NtRp5409
(dp5410
g73
(dp5411
g81
I2
ssg82
Nsg75
(lp5412
g68
(g84
g70
NtRp5413
(dp5414
g73
(dp5415
sg82
g5409
sg75
(lp5416
g68
(g89
g70
NtRp5417
(dp5418
g73
(dp5419
sg82
g5413
sg75
(lp5420
g68
(g69
g70
NtRp5421
(dp5422
g73
(dp5423
g81
I2
ssg82
g5417
sg75
(lp5424
g68
(g77
g70
NtRp5425
(dp5426
g73
(dp5427
g81
I1
ssg82
Nsg75
(lp5428
g68
(g84
g70
NtRp5429
(dp5430
g73
(dp5431
sg82
g5425
sg75
(lp5432
g68
(g89
g70
NtRp5433
(dp5434
g73
(dp5435
sg82
g5429
sg75
(lp5436
g68
(g69
g70
NtRp5437
(dp5438
g73
(dp5439
g81
I1
ssg82
g5433
sg75
(lp5440
g5300
(S's\n\x00\x00\x00Controller'
tRp5441
asbasbasbag68
(g84
g70
NtRp5442
(dp5443
g73
(dp5444
sg82
g5425
sg75
(lp5445
g68
(g89
g70
NtRp5446
(dp5447
g73
(dp5448
sg82
g5442
sg75
(lp5449
g68
(g69
g70
NtRp5450
(dp5451
g73
(dp5452
g81
I1
ssg82
g5446
sg75
(lp5453
I00
asbasbasbag68
(g84
g70
NtRp5454
(dp5455
g73
(dp5456
sg82
g5425
sg75
(lp5457
g68
(g89
g70
NtRp5458
(dp5459
g73
(dp5460
sg82
g5454
sg75
(lp5461
g68
(g69
g70
NtRp5462
(dp5463
g73
(dp5464
g81
I1
ssg82
g5458
sg75
(lp5465
S'/admin/default/edit/rdcdss/controllers/default.py'
p5466
asbasbasbasbasbasbasbag68
(g84
g70
NtRp5467
(dp5468
g73
(dp5469
sg82
g5409
sg75
(lp5470
g68
(g89
g70
NtRp5471
(dp5472
g73
(dp5473
sg82
g5467
sg75
(lp5474
g68
(g69
g70
NtRp5475
(dp5476
g73
(dp5477
g81
I2
ssg82
g5471
sg75
(lp5478
g68
(g77
g70
NtRp5479
(dp5480
g73
(dp5481
g81
I1
ssg82
Nsg75
(lp5482
g68
(g84
g70
NtRp5483
(dp5484
g73
(dp5485
sg82
g5479
sg75
(lp5486
g68
(g89
g70
NtRp5487
(dp5488
g73
(dp5489
sg82
g5483
sg75
(lp5490
g68
(g69
g70
NtRp5491
(dp5492
g73
(dp5493
g81
I1
ssg82
g5487
sg75
(lp5494
g5300
(S's\x04\x00\x00\x00View'
tRp5495
asbasbasbag68
(g84
g70
NtRp5496
(dp5497
g73
(dp5498
sg82
g5479
sg75
(lp5499
g68
(g89
g70
NtRp5500
(dp5501
g73
(dp5502
sg82
g5496
sg75
(lp5503
g68
(g69
g70
NtRp5504
(dp5505
g73
(dp5506
g81
I1
ssg82
g5500
sg75
(lp5507
I00
asbasbasbag68
(g84
g70
NtRp5508
(dp5509
g73
(dp5510
sg82
g5479
sg75
(lp5511
g68
(g89
g70
NtRp5512
(dp5513
g73
(dp5514
sg82
g5508
sg75
(lp5515
g68
(g69
g70
NtRp5516
(dp5517
g73
(dp5518
g81
I1
ssg82
g5512
sg75
(lp5519
S'/admin/default/edit/rdcdss/views/default/index.xml'
p5520
asbasbasbasbasbasbasbag68
(g84
g70
NtRp5521
(dp5522
g73
(dp5523
sg82
g5409
sg75
(lp5524
g68
(g89
g70
NtRp5525
(dp5526
g73
(dp5527
sg82
g5521
sg75
(lp5528
g68
(g69
g70
NtRp5529
(dp5530
g73
(dp5531
g81
I2
ssg82
g5525
sg75
(lp5532
g68
(g77
g70
NtRp5533
(dp5534
g73
(dp5535
g81
I1
ssg82
Nsg75
(lp5536
g68
(g84
g70
NtRp5537
(dp5538
g73
(dp5539
sg82
g5533
sg75
(lp5540
g68
(g89
g70
NtRp5541
(dp5542
g73
(dp5543
sg82
g5537
sg75
(lp5544
g68
(g69
g70
NtRp5545
(dp5546
g73
(dp5547
g81
I1
ssg82
g5541
sg75
(lp5548
g5300
(S's\x06\x00\x00\x00Layout'
tRp5549
asbasbasbag68
(g84
g70
NtRp5550
(dp5551
g73
(dp5552
sg82
g5533
sg75
(lp5553
g68
(g89
g70
NtRp5554
(dp5555
g73
(dp5556
sg82
g5550
sg75
(lp5557
g68
(g69
g70
NtRp5558
(dp5559
g73
(dp5560
g81
I1
ssg82
g5554
sg75
(lp5561
I00
asbasbasbag68
(g84
g70
NtRp5562
(dp5563
g73
(dp5564
sg82
g5533
sg75
(lp5565
g68
(g89
g70
NtRp5566
(dp5567
g73
(dp5568
sg82
g5562
sg75
(lp5569
g68
(g69
g70
NtRp5570
(dp5571
g73
(dp5572
g81
I1
ssg82
g5566
sg75
(lp5573
S'/admin/default/edit/rdcdss/views/layout.html'
p5574
asbasbasbasbasbasbasbag68
(g84
g70
NtRp5575
(dp5576
g73
(dp5577
sg82
g5409
sg75
(lp5578
g68
(g89
g70
NtRp5579
(dp5580
g73
(dp5581
sg82
g5575
sg75
(lp5582
g68
(g69
g70
NtRp5583
(dp5584
g73
(dp5585
g81
I2
ssg82
g5579
sg75
(lp5586
g68
(g77
g70
NtRp5587
(dp5588
g73
(dp5589
g81
I1
ssg82
Nsg75
(lp5590
g68
(g84
g70
NtRp5591
(dp5592
g73
(dp5593
sg82
g5587
sg75
(lp5594
g68
(g89
g70
NtRp5595
(dp5596
g73
(dp5597
sg82
g5591
sg75
(lp5598
g68
(g69
g70
NtRp5599
(dp5600
g73
(dp5601
g81
I1
ssg82
g5595
sg75
(lp5602
g5300
(S's\n\x00\x00\x00Stylesheet'
tRp5603
asbasbasbag68
(g84
g70
NtRp5604
(dp5605
g73
(dp5606
sg82
g5587
sg75
(lp5607
g68
(g89
g70
NtRp5608
(dp5609
g73
(dp5610
sg82
g5604
sg75
(lp5611
g68
(g69
g70
NtRp5612
(dp5613
g73
(dp5614
g81
I1
ssg82
g5608
sg75
(lp5615
I00
asbasbasbag68
(g84
g70
NtRp5616
(dp5617
g73
(dp5618
sg82
g5587
sg75
(lp5619
g68
(g89
g70
NtRp5620
(dp5621
g73
(dp5622
sg82
g5616
sg75
(lp5623
g68
(g69
g70
NtRp5624
(dp5625
g73
(dp5626
g81
I1
ssg82
g5620
sg75
(lp5627
S'/admin/default/edit/rdcdss/static/base.css'
p5628
asbasbasbasbasbasbasbag68
(g84
g70
NtRp5629
(dp5630
g73
(dp5631
sg82
g5409
sg75
(lp5632
g68
(g89
g70
NtRp5633
(dp5634
g73
(dp5635
sg82
g5629
sg75
(lp5636
g68
(g69
g70
NtRp5637
(dp5638
g73
(dp5639
g81
I2
ssg82
g5633
sg75
(lp5640
g68
(g77
g70
NtRp5641
(dp5642
g73
(dp5643
g81
I1
ssg82
Nsg75
(lp5644
g68
(g84
g70
NtRp5645
(dp5646
g73
(dp5647
sg82
g5641
sg75
(lp5648
g68
(g89
g70
NtRp5649
(dp5650
g73
(dp5651
sg82
g5645
sg75
(lp5652
g68
(g69
g70
NtRp5653
(dp5654
g73
(dp5655
g81
I1
ssg82
g5649
sg75
(lp5656
g5300
(S's\x08\x00\x00\x00DB Model'
tRp5657
asbasbasbag68
(g84
g70
NtRp5658
(dp5659
g73
(dp5660
sg82
g5641
sg75
(lp5661
g68
(g89
g70
NtRp5662
(dp5663
g73
(dp5664
sg82
g5658
sg75
(lp5665
g68
(g69
g70
NtRp5666
(dp5667
g73
(dp5668
g81
I1
ssg82
g5662
sg75
(lp5669
I00
asbasbasbag68
(g84
g70
NtRp5670
(dp5671
g73
(dp5672
sg82
g5641
sg75
(lp5673
g68
(g89
g70
NtRp5674
(dp5675
g73
(dp5676
sg82
g5670
sg75
(lp5677
g68
(g69
g70
NtRp5678
(dp5679
g73
(dp5680
g81
I1
ssg82
g5674
sg75
(lp5681
S'/admin/default/edit/rdcdss/models/db.py'
p5682
asbasbasbasbasbasbasbag68
(g84
g70
NtRp5683
(dp5684
g73
(dp5685
sg82
g5409
sg75
(lp5686
g68
(g89
g70
NtRp5687
(dp5688
g73
(dp5689
sg82
g5683
sg75
(lp5690
g68
(g69
g70
NtRp5691
(dp5692
g73
(dp5693
g81
I2
ssg82
g5687
sg75
(lp5694
g68
(g77
g70
NtRp5695
(dp5696
g73
(dp5697
g81
I1
ssg82
Nsg75
(lp5698
g68
(g84
g70
NtRp5699
(dp5700
g73
(dp5701
sg82
g5695
sg75
(lp5702
g68
(g89
g70
NtRp5703
(dp5704
g73
(dp5705
sg82
g5699
sg75
(lp5706
g68
(g69
g70
NtRp5707
(dp5708
g73
(dp5709
g81
I1
ssg82
g5703
sg75
(lp5710
g5300
(S's\n\x00\x00\x00Menu Model'
tRp5711
asbasbasbag68
(g84
g70
NtRp5712
(dp5713
g73
(dp5714
sg82
g5695
sg75
(lp5715
g68
(g89
g70
NtRp5716
(dp5717
g73
(dp5718
sg82
g5712
sg75
(lp5719
g68
(g69
g70
NtRp5720
(dp5721
g73
(dp5722
g81
I1
ssg82
g5716
sg75
(lp5723
I00
asbasbasbag68
(g84
g70
NtRp5724
(dp5725
g73
(dp5726
sg82
g5695
sg75
(lp5727
g68
(g89
g70
NtRp5728
(dp5729
g73
(dp5730
sg82
g5724
sg75
(lp5731
g68
(g69
g70
NtRp5732
(dp5733
g73
(dp5734
g81
I1
ssg82
g5728
sg75
(lp5735
S'/admin/default/edit/rdcdss/models/menu.py'
p5736
asbasbasbasbasbasbasbag68
(g84
g70
NtRp5737
(dp5738
g73
(dp5739
sg82
g5409
sg75
(lp5740
g68
(g89
g70
NtRp5741
(dp5742
g73
(dp5743
sg82
g5737
sg75
(lp5744
g68
(g69
g70
NtRp5745
(dp5746
g73
(dp5747
g81
I2
ssg82
g5741
sg75
(lp5748
g68
(g77
g70
NtRp5749
(dp5750
g73
(dp5751
g81
I1
ssg82
Nsg75
(lp5752
g68
(g84
g70
NtRp5753
(dp5754
g73
(dp5755
sg82
g5749
sg75
(lp5756
g68
(g89
g70
NtRp5757
(dp5758
g73
(dp5759
sg82
g5753
sg75
(lp5760
g68
(g69
g70
NtRp5761
(dp5762
g73
(dp5763
g81
I1
ssg82
g5757
sg75
(lp5764
g5300
(S's\x08\x00\x00\x00Database'
tRp5765
asbasbasbag68
(g84
g70
NtRp5766
(dp5767
g73
(dp5768
sg82
g5749
sg75
(lp5769
g68
(g89
g70
NtRp5770
(dp5771
g73
(dp5772
sg82
g5766
sg75
(lp5773
g68
(g69
g70
NtRp5774
(dp5775
g73
(dp5776
g81
I1
ssg82
g5770
sg75
(lp5777
I00
asbasbasbag68
(g84
g70
NtRp5778
(dp5779
g73
(dp5780
sg82
g5749
sg75
(lp5781
g68
(g89
g70
NtRp5782
(dp5783
g73
(dp5784
sg82
g5778
sg75
(lp5785
g68
(g69
g70
NtRp5786
(dp5787
g73
(dp5788
g81
I1
ssg82
g5782
sg75
(lp5789
S'/rdcdss/appadmin/index'
p5790
asbasbasbasbasbasbasbag68
(g84
g70
NtRp5791
(dp5792
g73
(dp5793
sg82
g5409
sg75
(lp5794
g68
(g89
g70
NtRp5795
(dp5796
g73
(dp5797
sg82
g5791
sg75
(lp5798
g68
(g69
g70
NtRp5799
(dp5800
g73
(dp5801
g81
I2
ssg82
g5795
sg75
(lp5802
g68
(g77
g70
NtRp5803
(dp5804
g73
(dp5805
g81
I1
ssg82
Nsg75
(lp5806
g68
(g84
g70
NtRp5807
(dp5808
g73
(dp5809
sg82
g5803
sg75
(lp5810
g68
(g89
g70
NtRp5811
(dp5812
g73
(dp5813
sg82
g5807
sg75
(lp5814
g68
(g69
g70
NtRp5815
(dp5816
g73
(dp5817
g81
I1
ssg82
g5811
sg75
(lp5818
g5300
(S's\x06\x00\x00\x00Errors'
tRp5819
asbasbasbag68
(g84
g70
NtRp5820
(dp5821
g73
(dp5822
sg82
g5803
sg75
(lp5823
g68
(g89
g70
NtRp5824
(dp5825
g73
(dp5826
sg82
g5820
sg75
(lp5827
g68
(g69
g70
NtRp5828
(dp5829
g73
(dp5830
g81
I1
ssg82
g5824
sg75
(lp5831
I00
asbasbasbag68
(g84
g70
NtRp5832
(dp5833
g73
(dp5834
sg82
g5803
sg75
(lp5835
g68
(g89
g70
NtRp5836
(dp5837
g73
(dp5838
sg82
g5832
sg75
(lp5839
g68
(g69
g70
NtRp5840
(dp5841
g73
(dp5842
g81
I1
ssg82
g5836
sg75
(lp5843
S'/admin/default/errors/rdcdss'
p5844
asbasbasbasbasbasbasbag68
(g84
g70
NtRp5845
(dp5846
g73
(dp5847
sg82
g5409
sg75
(lp5848
g68
(g89
g70
NtRp5849
(dp5850
g73
(dp5851
sg82
g5845
sg75
(lp5852
g68
(g69
g70
NtRp5853
(dp5854
g73
(dp5855
g81
I2
ssg82
g5849
sg75
(lp5856
g68
(g77
g70
NtRp5857
(dp5858
g73
(dp5859
g81
I1
ssg82
Nsg75
(lp5860
g68
(g84
g70
NtRp5861
(dp5862
g73
(dp5863
sg82
g5857
sg75
(lp5864
g68
(g89
g70
NtRp5865
(dp5866
g73
(dp5867
sg82
g5861
sg75
(lp5868
g68
(g69
g70
NtRp5869
(dp5870
g73
(dp5871
g81
I1
ssg82
g5865
sg75
(lp5872
g5300
(S's\x05\x00\x00\x00About'
tRp5873
asbasbasbag68
(g84
g70
NtRp5874
(dp5875
g73
(dp5876
sg82
g5857
sg75
(lp5877
g68
(g89
g70
NtRp5878
(dp5879
g73
(dp5880
sg82
g5874
sg75
(lp5881
g68
(g69
g70
NtRp5882
(dp5883
g73
(dp5884
g81
I1
ssg82
g5878
sg75
(lp5885
I00
asbasbasbag68
(g84
g70
NtRp5886
(dp5887
g73
(dp5888
sg82
g5857
sg75
(lp5889
g68
(g89
g70
NtRp5890
(dp5891
g73
(dp5892
sg82
g5886
sg75
(lp5893
g68
(g69
g70
NtRp5894
(dp5895
g73
(dp5896
g81
I1
ssg82
g5890
sg75
(lp5897
S'/admin/default/about/rdcdss'
p5898
asbasbasbasbasbasbasbasbasbasbasbasbasbasbasbag68
(g84
g70
NtRp5899
(dp5900
g73
(dp5901
sg82
g5268
sg75
(lp5902
g68
(g89
g70
NtRp5903
(dp5904
g73
(dp5905
sg82
g5899
sg75
(lp5906
g68
(g69
g70
NtRp5907
(dp5908
g73
(dp5909
g81
I4
ssg82
g5903
sg75
(lp5910
g68
(g77
g70
NtRp5911
(dp5912
g73
(dp5913
g81
I3
ssg82
Nsg75
(lp5914
g68
(g84
g70
NtRp5915
(dp5916
g73
(dp5917
sg82
g5911
sg75
(lp5918
g68
(g89
g70
NtRp5919
(dp5920
g73
(dp5921
sg82
g5915
sg75
(lp5922
g68
(g69
g70
NtRp5923
(dp5924
g73
(dp5925
g81
I3
ssg82
g5919
sg75
(lp5926
g5300
(S's\t\x00\x00\x00Resources'
tRp5927
asbasbasbag68
(g84
g70
NtRp5928
(dp5929
g73
(dp5930
sg82
g5911
sg75
(lp5931
g68
(g89
g70
NtRp5932
(dp5933
g73
(dp5934
sg82
g5928
sg75
(lp5935
g68
(g69
g70
NtRp5936
(dp5937
g73
(dp5938
g81
I3
ssg82
g5932
sg75
(lp5939
g111
asbasbasbag68
(g84
g70
NtRp5940
(dp5941
g73
(dp5942
sg82
g5911
sg75
(lp5943
g68
(g89
g70
NtRp5944
(dp5945
g73
(dp5946
sg82
g5940
sg75
(lp5947
g68
(g69
g70
NtRp5948
(dp5949
g73
(dp5950
g81
I3
ssg82
g5944
sg75
(lp5951
S'None'
p5952
asbasbasbag68
(g84
g70
NtRp5953
(dp5954
g73
(dp5955
sg82
g5911
sg75
(lp5956
g68
(g89
g70
NtRp5957
(dp5958
g73
(dp5959
sg82
g5953
sg75
(lp5960
g68
(g69
g70
NtRp5961
(dp5962
g73
(dp5963
g81
I3
ssg82
g5957
sg75
(lp5964
g68
(g77
g70
NtRp5965
(dp5966
g73
(dp5967
g81
I2
ssg82
Nsg75
(lp5968
g68
(g84
g70
NtRp5969
(dp5970
g73
(dp5971
sg82
g5965
sg75
(lp5972
g68
(g89
g70
NtRp5973
(dp5974
g73
(dp5975
sg82
g5969
sg75
(lp5976
g68
(g69
g70
NtRp5977
(dp5978
g73
(dp5979
g81
I2
ssg82
g5973
sg75
(lp5980
g68
(g77
g70
NtRp5981
(dp5982
g73
(dp5983
g81
I1
ssg82
Nsg75
(lp5984
g68
(g84
g70
NtRp5985
(dp5986
g73
(dp5987
sg82
g5981
sg75
(lp5988
g68
(g89
g70
NtRp5989
(dp5990
g73
(dp5991
sg82
g5985
sg75
(lp5992
g68
(g69
g70
NtRp5993
(dp5994
g73
(dp5995
g81
I1
ssg82
g5989
sg75
(lp5996
g5300
(S's\r\x00\x00\x00Documentation'
tRp5997
asbasbasbag68
(g84
g70
NtRp5998
(dp5999
g73
(dp6000
sg82
g5981
sg75
(lp6001
g68
(g89
g70
NtRp6002
(dp6003
g73
(dp6004
sg82
g5998
sg75
(lp6005
g68
(g69
g70
NtRp6006
(dp6007
g73
(dp6008
g81
I1
ssg82
g6002
sg75
(lp6009
I00
asbasbasbag68
(g84
g70
NtRp6010
(dp6011
g73
(dp6012
sg82
g5981
sg75
(lp6013
g68
(g89
g70
NtRp6014
(dp6015
g73
(dp6016
sg82
g6010
sg75
(lp6017
g68
(g69
g70
NtRp6018
(dp6019
g73
(dp6020
g81
I1
ssg82
g6014
sg75
(lp6021
S'http://www.web2py.com/book'
p6022
asbasbasbag68
(g84
g70
NtRp6023
(dp6024
g73
(dp6025
sg82
g5981
sg75
(lp6026
g68
(g89
g70
NtRp6027
(dp6028
g73
(dp6029
sg82
g6023
sg75
(lp6030
g68
(g69
g70
NtRp6031
(dp6032
g73
(dp6033
g81
I1
ssg82
g6027
sg75
(lp6034
(lp6035
(g5300
(S's\x07\x00\x00\x00Preface'
tRp6036
I00
S'http://www.web2py.com/book/default/chapter/00'
tp6037
a(g5300
(S's\x0c\x00\x00\x00Introduction'
tRp6038
I00
S'http://www.web2py.com/book/default/chapter/01'
tp6039
a(g5300
(S's\x06\x00\x00\x00Python'
tRp6040
I00
S'http://www.web2py.com/book/default/chapter/02'
tp6041
a(g5300
(S's\x08\x00\x00\x00Overview'
tRp6042
I00
S'http://www.web2py.com/book/default/chapter/03'
tp6043
a(g5300
(S's\x08\x00\x00\x00The Core'
tRp6044
I00
S'http://www.web2py.com/book/default/chapter/04'
tp6045
a(g5300
(S's\t\x00\x00\x00The Views'
tRp6046
I00
S'http://www.web2py.com/book/default/chapter/05'
tp6047
a(g5300
(S's\x08\x00\x00\x00Database'
tRp6048
I00
S'http://www.web2py.com/book/default/chapter/06'
tp6049
a(g5300
(S's\x14\x00\x00\x00Forms and Validators'
tRp6050
I00
S'http://www.web2py.com/book/default/chapter/07'
tp6051
a(g5300
(S's\x0e\x00\x00\x00Access Control'
tRp6052
I00
S'http://www.web2py.com/book/default/chapter/08'
tp6053
a(g5300
(S's\x08\x00\x00\x00Services'
tRp6054
I00
S'http://www.web2py.com/book/default/chapter/09'
tp6055
a(g5300
(S's\x0c\x00\x00\x00Ajax Recipes'
tRp6056
I00
S'http://www.web2py.com/book/default/chapter/10'
tp6057
a(g5300
(S's\x12\x00\x00\x00Deployment Recipes'
tRp6058
I00
S'http://www.web2py.com/book/default/chapter/11'
tp6059
a(g5300
(S's\r\x00\x00\x00Other Recipes'
tRp6060
I00
S'http://www.web2py.com/book/default/chapter/12'
tp6061
a(g5300
(S's\r\x00\x00\x00Buy this book'
tRp6062
I00
S'http://stores.lulu.com/web2py'
tp6063
aasbasbasbasbasbasbasbag68
(g84
g70
NtRp6064
(dp6065
g73
(dp6066
sg82
g5965
sg75
(lp6067
g68
(g89
g70
NtRp6068
(dp6069
g73
(dp6070
sg82
g6064
sg75
(lp6071
g68
(g69
g70
NtRp6072
(dp6073
g73
(dp6074
g81
I2
ssg82
g6068
sg75
(lp6075
g68
(g77
g70
NtRp6076
(dp6077
g73
(dp6078
g81
I1
ssg82
Nsg75
(lp6079
g68
(g84
g70
NtRp6080
(dp6081
g73
(dp6082
sg82
g6076
sg75
(lp6083
g68
(g89
g70
NtRp6084
(dp6085
g73
(dp6086
sg82
g6080
sg75
(lp6087
g68
(g69
g70
NtRp6088
(dp6089
g73
(dp6090
g81
I1
ssg82
g6084
sg75
(lp6091
g5300
(S's\t\x00\x00\x00Community'
tRp6092
asbasbasbag68
(g84
g70
NtRp6093
(dp6094
g73
(dp6095
sg82
g6076
sg75
(lp6096
g68
(g89
g70
NtRp6097
(dp6098
g73
(dp6099
sg82
g6093
sg75
(lp6100
g68
(g69
g70
NtRp6101
(dp6102
g73
(dp6103
g81
I1
ssg82
g6097
sg75
(lp6104
I00
asbasbasbag68
(g84
g70
NtRp6105
(dp6106
g73
(dp6107
sg82
g6076
sg75
(lp6108
g68
(g89
g70
NtRp6109
(dp6110
g73
(dp6111
sg82
g6105
sg75
(lp6112
g68
(g69
g70
NtRp6113
(dp6114
g73
(dp6115
g81
I1
ssg82
g6109
sg75
(lp6116
Nasbasbasbag68
(g84
g70
NtRp6117
(dp6118
g73
(dp6119
sg82
g6076
sg75
(lp6120
g68
(g89
g70
NtRp6121
(dp6122
g73
(dp6123
sg82
g6117
sg75
(lp6124
g68
(g69
g70
NtRp6125
(dp6126
g73
(dp6127
g81
I1
ssg82
g6121
sg75
(lp6128
(lp6129
(g5300
(S's\x06\x00\x00\x00Groups'
tRp6130
I00
S'http://www.web2py.com/examples/default/usergroups'
tp6131
a(g5300
(S's\x07\x00\x00\x00Twitter'
tRp6132
I00
S'http://twitter.com/web2py'
tp6133
a(g5300
(S's\t\x00\x00\x00Live chat'
tRp6134
I00
S'http://mibbit.com/?channel=%23web2py&server=irc.mibbit.net'
tp6135
a(g5300
(S's\n\x00\x00\x00User Voice'
tRp6136
I00
S'http://web2py.uservoice.com/'
tp6137
aasbasbasbasbasbasbasbag68
(g84
g70
NtRp6138
(dp6139
g73
(dp6140
sg82
g5965
sg75
(lp6141
g68
(g89
g70
NtRp6142
(dp6143
g73
(dp6144
sg82
g6138
sg75
(lp6145
g68
(g69
g70
NtRp6146
(dp6147
g73
(dp6148
g81
I2
ssg82
g6142
sg75
(lp6149
g68
(g77
g70
NtRp6150
(dp6151
g73
(dp6152
g81
I1
ssg82
Nsg75
(lp6153
g68
(g84
g70
NtRp6154
(dp6155
g73
(dp6156
sg82
g6150
sg75
(lp6157
g68
(g89
g70
NtRp6158
(dp6159
g73
(dp6160
sg82
g6154
sg75
(lp6161
g68
(g69
g70
NtRp6162
(dp6163
g73
(dp6164
g81
I1
ssg82
g6158
sg75
(lp6165
g5300
(S's\x06\x00\x00\x00Web2py'
tRp6166
asbasbasbag68
(g84
g70
NtRp6167
(dp6168
g73
(dp6169
sg82
g6150
sg75
(lp6170
g68
(g89
g70
NtRp6171
(dp6172
g73
(dp6173
sg82
g6167
sg75
(lp6174
g68
(g69
g70
NtRp6175
(dp6176
g73
(dp6177
g81
I1
ssg82
g6171
sg75
(lp6178
I00
asbasbasbag68
(g84
g70
NtRp6179
(dp6180
g73
(dp6181
sg82
g6150
sg75
(lp6182
g68
(g89
g70
NtRp6183
(dp6184
g73
(dp6185
sg82
g6179
sg75
(lp6186
g68
(g69
g70
NtRp6187
(dp6188
g73
(dp6189
g81
I1
ssg82
g6183
sg75
(lp6190
S'http://www.web2py.com'
p6191
asbasbasbag68
(g84
g70
NtRp6192
(dp6193
g73
(dp6194
sg82
g6150
sg75
(lp6195
g68
(g89
g70
NtRp6196
(dp6197
g73
(dp6198
sg82
g6192
sg75
(lp6199
g68
(g69
g70
NtRp6200
(dp6201
g73
(dp6202
g81
I1
ssg82
g6196
sg75
(lp6203
(lp6204
(g5300
(S's\x08\x00\x00\x00Download'
tRp6205
I00
S'http://www.web2py.com/examples/default/download'
tp6206
a(g5300
(S's\x07\x00\x00\x00Support'
tRp6207
I00
S'http://www.web2py.com/examples/default/support'
tp6208
a(g5300
(S's\x0e\x00\x00\x00Quick Examples'
tRp6209
I00
S'http://web2py.com/examples/default/examples'
tp6210
a(g5300
(S's\x03\x00\x00\x00FAQ'
tRp6211
I00
S'http://web2py.com/AlterEgo'
tp6212
a(g5300
(S's\x11\x00\x00\x00Free Applications'
tRp6213
I00
S'http://web2py.com/appliances'
tp6214
a(g5300
(S's\x07\x00\x00\x00Plugins'
tRp6215
I00
S'http://web2py.com/plugins'
tp6216
a(g5300
(S's\x07\x00\x00\x00Recipes'
tRp6217
I00
S'http://web2pyslices.com/'
tp6218
a(g5300
(S's\x04\x00\x00\x00Demo'
tRp6219
I00
S'http://web2py.com/demo_admin'
tp6220
a(g5300
(S's\x08\x00\x00\x00Semantic'
tRp6221
I00
S'http://web2py.com/semantic'
tp6222
a(g5300
(S's\x07\x00\x00\x00Layouts'
tRp6223
I00
S'http://web2py.com/layouts'
tp6224
a(g5300
(S's\x06\x00\x00\x00Videos'
tRp6225
I00
S'http://www.web2py.com/examples/default/videos/'
tp6226
aasbasbasbasbasbasbasbasbasbasbasbasbasbasbasbasbasbasbasbag68
(g84
g70
NtRp6227
(dp6228
g73
(dp6229
sg82
g4854
sg75
(lp6230
g68
(g89
g70
NtRp6231
(dp6232
g73
(dp6233
g93
g94
ssg82
g6227
sg75
(lp6234
S'meta'
p6235
asbag68
(g89
g70
NtRp6236
(dp6237
g73
(dp6238
g100
g101
ssg82
g6227
sg75
(lp6239
S':'
asbag68
(g89
g70
NtRp6240
(dp6241
g73
(dp6242
sg82
g6227
sg75
(lp6243
g68
(g69
g70
NtRp6244
(dp6245
g73
(dp6246
g81
I5
ssg82
g6240
sg75
(lp6247
g68
(g77
g70
NtRp6248
(dp6249
g73
(dp6250
g81
I4
ssg82
Nsg75
(lp6251
g68
(g84
g70
NtRp6252
(dp6253
g73
(dp6254
sg82
g6248
sg75
(lp6255
g68
(g89
g70
NtRp6256
(dp6257
g73
(dp6258
g93
g94
ssg82
g6252
sg75
(lp6259
S'author'
p6260
asbag68
(g89
g70
NtRp6261
(dp6262
g73
(dp6263
g100
g101
ssg82
g6252
sg75
(lp6264
S':'
asbag68
(g89
g70
NtRp6265
(dp6266
g73
(dp6267
sg82
g6252
sg75
(lp6268
g68
(g69
g70
NtRp6269
(dp6270
g73
(dp6271
g81
I4
ssg82
g6265
sg75
(lp6272
S'you'
p6273
asbasbasbag68
(g84
g70
NtRp6274
(dp6275
g73
(dp6276
sg82
g6248
sg75
(lp6277
g68
(g89
g70
NtRp6278
(dp6279
g73
(dp6280
g93
g94
ssg82
g6274
sg75
(lp6281
S'copyright'
p6282
asbag68
(g89
g70
NtRp6283
(dp6284
g73
(dp6285
g100
g101
ssg82
g6274
sg75
(lp6286
S':'
asbag68
(g89
g70
NtRp6287
(dp6288
g73
(dp6289
sg82
g6274
sg75
(lp6290
g68
(g69
g70
NtRp6291
(dp6292
g73
(dp6293
g81
I4
ssg82
g6287
sg75
(lp6294
S'Copyright 2007-2010'
p6295
asbasbasbag68
(g84
g70
NtRp6296
(dp6297
g73
(dp6298
sg82
g6248
sg75
(lp6299
g68
(g89
g70
NtRp6300
(dp6301
g73
(dp6302
g93
g94
ssg82
g6296
sg75
(lp6303
S'description'
p6304
asbag68
(g89
g70
NtRp6305
(dp6306
g73
(dp6307
g100
g101
ssg82
g6296
sg75
(lp6308
S':'
asbag68
(g89
g70
NtRp6309
(dp6310
g73
(dp6311
sg82
g6296
sg75
(lp6312
g68
(g69
g70
NtRp6313
(dp6314
g73
(dp6315
g81
I4
ssg82
g6309
sg75
(lp6316
S'Free and open source full-stack enterprise framework for agile development of fast, scalable, secure and portable database-driven web-based applications. Written and programmable in Python'
p6317
asbasbasbag68
(g84
g70
NtRp6318
(dp6319
g73
(dp6320
sg82
g6248
sg75
(lp6321
g68
(g89
g70
NtRp6322
(dp6323
g73
(dp6324
g93
g94
ssg82
g6318
sg75
(lp6325
S'generator'
p6326
asbag68
(g89
g70
NtRp6327
(dp6328
g73
(dp6329
g100
g101
ssg82
g6318
sg75
(lp6330
S':'
asbag68
(g89
g70
NtRp6331
(dp6332
g73
(dp6333
sg82
g6318
sg75
(lp6334
g68
(g69
g70
NtRp6335
(dp6336
g73
(dp6337
g81
I4
ssg82
g6331
sg75
(lp6338
S'Web2py Enterprise Framework'
p6339
asbasbasbag68
(g84
g70
NtRp6340
(dp6341
g73
(dp6342
sg82
g6248
sg75
(lp6343
g68
(g89
g70
NtRp6344
(dp6345
g73
(dp6346
g93
g94
ssg82
g6340
sg75
(lp6347
S'keywords'
p6348
asbag68
(g89
g70
NtRp6349
(dp6350
g73
(dp6351
g100
g101
ssg82
g6340
sg75
(lp6352
S':'
asbag68
(g89
g70
NtRp6353
(dp6354
g73
(dp6355
sg82
g6340
sg75
(lp6356
g68
(g69
g70
NtRp6357
(dp6358
g73
(dp6359
g81
I4
ssg82
g6353
sg75
(lp6360
S'web2py, python, framework'
p6361
asbasbasbasbasbasbasbag68
(g84
g70
NtRp6362
(dp6363
g73
(dp6364
sg82
g4854
sg75
(lp6365
g68
(g89
g70
NtRp6366
(dp6367
g73
(dp6368
g93
g94
ssg82
g6362
sg75
(lp6369
S'postprocessing'
p6370
asbag68
(g89
g70
NtRp6371
(dp6372
g73
(dp6373
g100
g101
ssg82
g6362
sg75
(lp6374
S':'
asbag68
(g89
g70
NtRp6375
(dp6376
g73
(dp6377
sg82
g6362
sg75
(lp6378
g68
(g69
g70
NtRp6379
(dp6380
g73
(dp6381
g81
I5
ssg82
g6375
sg75
(lp6382
g68
(g77
g70
NtRp6383
(dp6384
g73
(dp6385
g81
I4
ssg82
Nsg75
(lp6386
sbasbasbasbag68
(g84
g70
NtRp6387
(dp6388
g73
(dp6389
sg82
g4854
sg75
(lp6390
g68
(g89
g70
NtRp6391
(dp6392
g73
(dp6393
g93
g94
ssg82
g6387
sg75
(lp6394
S'session_file'
p6395
asbag68
(g89
g70
NtRp6396
(dp6397
g73
(dp6398
g100
g101
ssg82
g6387
sg75
(lp6399
S':'
asbag68
(g89
g70
NtRp6400
(dp6401
g73
(dp6402
sg82
g6387
sg75
(lp6403
g68
(g69
g70
NtRp6404
(dp6405
g73
(dp6406
g81
I5
ssg82
g6400
sg75
(lp6407
S"<open file '/home/www-data/web2py/applications/rdcdss/sessions/89.123.2.193-4e1de357-5b7c-4409-92bc-12a58f0742b6', mode 'rb+' at 0x2b9bd974e540>"
p6408
asbasbasbag68
(g84
g70
NtRp6409
(dp6410
g73
(dp6411
sg82
g4854
sg75
(lp6412
g68
(g89
g70
NtRp6413
(dp6414
g73
(dp6415
g93
g94
ssg82
g6409
sg75
(lp6416
S'session_filename'
p6417
asbag68
(g89
g70
NtRp6418
(dp6419
g73
(dp6420
g100
g101
ssg82
g6409
sg75
(lp6421
S':'
asbag68
(g89
g70
NtRp6422
(dp6423
g73
(dp6424
sg82
g6409
sg75
(lp6425
g68
(g69
g70
NtRp6426
(dp6427
g73
(dp6428
g81
I5
ssg82
g6422
sg75
(lp6429
S'/home/www-data/web2py/applications/rdcdss/sessions/89.123.2.193-4e1de357-5b7c-4409-92bc-12a58f0742b6'
p6430
asbasbasbag68
(g84
g70
NtRp6431
(dp6432
g73
(dp6433
sg82
g4854
sg75
(lp6434
g68
(g89
g70
NtRp6435
(dp6436
g73
(dp6437
g93
g94
ssg82
g6431
sg75
(lp6438
S'session_id'
p6439
asbag68
(g89
g70
NtRp6440
(dp6441
g73
(dp6442
g100
g101
ssg82
g6431
sg75
(lp6443
S':'
asbag68
(g89
g70
NtRp6444
(dp6445
g73
(dp6446
sg82
g6431
sg75
(lp6447
g68
(g69
g70
NtRp6448
(dp6449
g73
(dp6450
g81
I5
ssg82
g6444
sg75
(lp6451
S'89.123.2.193-4e1de357-5b7c-4409-92bc-12a58f0742b6'
p6452
asbasbasbag68
(g84
g70
NtRp6453
(dp6454
g73
(dp6455
sg82
g4854
sg75
(lp6456
g68
(g89
g70
NtRp6457
(dp6458
g73
(dp6459
g93
g94
ssg82
g6453
sg75
(lp6460
S'session_id_name'
p6461
asbag68
(g89
g70
NtRp6462
(dp6463
g73
(dp6464
g100
g101
ssg82
g6453
sg75
(lp6465
S':'
asbag68
(g89
g70
NtRp6466
(dp6467
g73
(dp6468
sg82
g6453
sg75
(lp6469
g68
(g69
g70
NtRp6470
(dp6471
g73
(dp6472
g81
I5
ssg82
g6466
sg75
(lp6473
g4911
asbasbasbag68
(g84
g70
NtRp6474
(dp6475
g73
(dp6476
sg82
g4854
sg75
(lp6477
g68
(g89
g70
NtRp6478
(dp6479
g73
(dp6480
g93
g94
ssg82
g6474
sg75
(lp6481
S'session_locked'
p6482
asbag68
(g89
g70
NtRp6483
(dp6484
g73
(dp6485
g100
g101
ssg82
g6474
sg75
(lp6486
S':'
asbag68
(g89
g70
NtRp6487
(dp6488
g73
(dp6489
sg82
g6474
sg75
(lp6490
g68
(g69
g70
NtRp6491
(dp6492
g73
(dp6493
g81
I5
ssg82
g6487
sg75
(lp6494
g2159
asbasbasbag68
(g84
g70
NtRp6495
(dp6496
g73
(dp6497
sg82
g4854
sg75
(lp6498
g68
(g89
g70
NtRp6499
(dp6500
g73
(dp6501
g93
g94
ssg82
g6495
sg75
(lp6502
S'session_new'
p6503
asbag68
(g89
g70
NtRp6504
(dp6505
g73
(dp6506
g100
g101
ssg82
g6495
sg75
(lp6507
S':'
asbag68
(g89
g70
NtRp6508
(dp6509
g73
(dp6510
sg82
g6495
sg75
(lp6511
g68
(g69
g70
NtRp6512
(dp6513
g73
(dp6514
g81
I5
ssg82
g6508
sg75
(lp6515
g111
asbasbasbag68
(g84
g70
NtRp6516
(dp6517
g73
(dp6518
sg82
g4854
sg75
(lp6519
g68
(g89
g70
NtRp6520
(dp6521
g73
(dp6522
g93
g94
ssg82
g6516
sg75
(lp6523
S'status'
p6524
asbag68
(g89
g70
NtRp6525
(dp6526
g73
(dp6527
g100
g101
ssg82
g6516
sg75
(lp6528
S':'
asbag68
(g89
g70
NtRp6529
(dp6530
g73
(dp6531
sg82
g6516
sg75
(lp6532
g68
(g69
g70
NtRp6533
(dp6534
g73
(dp6535
g81
I5
ssg82
g6529
sg75
(lp6536
S'200'
p6537
asbasbasbag68
(g84
g70
NtRp6538
(dp6539
g73
(dp6540
sg82
g4854
sg75
(lp6541
g68
(g89
g70
NtRp6542
(dp6543
g73
(dp6544
g93
g94
ssg82
g6538
sg75
(lp6545
S'subtitle'
p6546
asbag68
(g89
g70
NtRp6547
(dp6548
g73
(dp6549
g100
g101
ssg82
g6538
sg75
(lp6550
S':'
asbag68
(g89
g70
NtRp6551
(dp6552
g73
(dp6553
sg82
g6538
sg75
(lp6554
g68
(g69
g70
NtRp6555
(dp6556
g73
(dp6557
g81
I5
ssg82
g6551
sg75
(lp6558
g5300
(S's\r\x00\x00\x00customize me!'
tRp6559
asbasbasbag68
(g84
g70
NtRp6560
(dp6561
g73
(dp6562
sg82
g4854
sg75
(lp6563
g68
(g89
g70
NtRp6564
(dp6565
g73
(dp6566
g93
g94
ssg82
g6560
sg75
(lp6567
S'title'
p6568
asbag68
(g89
g70
NtRp6569
(dp6570
g73
(dp6571
g100
g101
ssg82
g6560
sg75
(lp6572
S':'
asbag68
(g89
g70
NtRp6573
(dp6574
g73
(dp6575
sg82
g6560
sg75
(lp6576
g68
(g69
g70
NtRp6577
(dp6578
g73
(dp6579
g81
I5
ssg82
g6573
sg75
(lp6580
g133
asbasbasbag68
(g84
g70
NtRp6581
(dp6582
g73
(dp6583
sg82
g4854
sg75
(lp6584
g68
(g89
g70
NtRp6585
(dp6586
g73
(dp6587
g93
g94
ssg82
g6581
sg75
(lp6588
g2483
asbag68
(g89
g70
NtRp6589
(dp6590
g73
(dp6591
g100
g101
ssg82
g6581
sg75
(lp6592
S':'
asbag68
(g89
g70
NtRp6593
(dp6594
g73
(dp6595
sg82
g6581
sg75
(lp6596
g68
(g69
g70
NtRp6597
(dp6598
g73
(dp6599
g81
I5
ssg82
g6593
sg75
(lp6600
g2496
asbasbasbag68
(g84
g70
NtRp6601
(dp6602
g73
(dp6603
sg82
g4854
sg75
(lp6604
g68
(g89
g70
NtRp6605
(dp6606
g73
(dp6607
g93
g94
ssg82
g6601
sg75
(lp6608
S'view'
p6609
asbag68
(g89
g70
NtRp6610
(dp6611
g73
(dp6612
g100
g101
ssg82
g6601
sg75
(lp6613
S':'
asbag68
(g89
g70
NtRp6614
(dp6615
g73
(dp6616
sg82
g6601
sg75
(lp6617
g68
(g69
g70
NtRp6618
(dp6619
g73
(dp6620
g81
I5
ssg82
g6614
sg75
(lp6621
S'default/index.xml'
p6622
asbasbasbasbasbsS'locals'
p6623
(dp6624
g3
S"'/home/www-data/web2py/applications/rdcdss/controllers/default.py'"
p6625
sg5
S"'# -*- coding: utf-8 -*- \\n# this file is released...ervice()\\n\\nresponse._vars=response._caller(index)\\n'"
p6626
sssS'traceback'
p6627
S'Traceback (most recent call last):\n  File "/home/www-data/web2py/gluon/restricted.py", line 180, in restricted\n    ccode = compile2(code,layer)\n  File "/home/www-data/web2py/gluon/restricted.py", line 167, in compile2\n    return compile(code.rstrip().replace(\'\\r\\n\',\'\\n\')+\'\\n\', layer, \'exec\')\n  File "/home/www-data/web2py/applications/rdcdss/controllers/default.py", line 55\n    session.data("id_"+i)={"title":row.f_title,"url":row.f_url,"snippet":row.f_snippet}\nSyntaxError: can\'t assign to function call\n'
p6628
s.