(dp1
S'output'
p2
S''
sS'layer'
p3
S'/home/www-data/web2py/applications/rdcdss/controllers/default.py'
p4
sS'code'
p5
S'# -*- coding: utf-8 -*- \n# this file is released under public domain and you can use without limitations\n\n#########################################################################\n## This is a samples controller\n## - index is the default action of any application\n## - user is required for authentication and authorization\n## - download is for downloading files uploaded in the db (does streaming)\n## - call exposes all registered services (none by default)\n#########################################################################\nimport os\nimport time\nimport hashlib\nimport cPickle\n\ndef index():\n    """\n    Test powerTable\n    """\n    RUNQUERYPATH = "../master/code/runQuery/"\n    session.data = {}\n    session.query = ""\n    logfile = open(\'logs/\'+str(response.session_id),\'a\')\n    logfile.write("SESSION: "+str(response.session_id)+"\\n")\n    logfile.write("TIME: "+time.strftime("%X %x %z")+"\\n")\n    db.t_resdis.truncate()\n    query = ""\n    collection = ""\n    diseases = ""\n    timer = ""\n    table = ""\n    distable = ""\n    if request.vars.q:\n        t0 = time.clock()\n        query = request.vars.q\n        checked = request.vars.c\n        os.system(\'pwd\')\n        if checked == "on":\n            hashstring = hashlib.md5(request.vars.q+"index_raregenet"+str(time.time())).hexdigest()\n            collection = "CHECKED"\n            os.system(\'sh \'+RUNQUERYPATH+\'runQueryDiseases.sh "\'+request.vars.q+\'" index_raregenet \'+hashstring)\n            diseases = "CHECKED"\n        else:\n            hashstring = hashlib.md5(request.vars.q+"index_rare"+str(time.time())).hexdigest()\n            collection = ""\n            os.system(\'sh \'+RUNQUERYPATH+\'runQueryDiseases.sh "\'+request.vars.q+\'" index_rare \'+hashstring)\n            diseases = "CHECKED"\n        db.t_resdis.truncate()\n        db.t_resdis.import_from_csv_file(open(os.getcwd()+\'/results/\'+hashstring+\'.dis\',\'r\'))\n        session.data["response"]={"query":query,"raregenet":checked, "session_id":response.session_id, "results":[]}\n        rows = []\n        for row in db().select(db.t_resdis.ALL):\n            session.data["response"]["results"].append({"rank":row.f_rank,"disease":row.f_disease,"score":row.f_freq,"docs":row.f_docnos})\n            rows.append(row)\n        session.hashstring = hashstring\n        session.query = query\n       \n        timer = time.clock() - t0\n        logfile.write("QUERY: "+query+"\\n")\n        logfile.write("GENETIC CHECKED: "+str(checked)+"\\n")\n        logfile.write("RESULT FILE: "+hashstring+"\\n")\n        logfile.write("SECONDS: "+str(timer)+"\\n")\n        logfile.close()\n        distable = createDiseaseTable(db.t_resdis)\n        #distable = SQLTABLE(db().select(db.t_resdis.f_rank,db.t_resdis.f_disease,db.t_resdis.f_freq,db.t_resdis.f_docnos),headers=\'labels\',truncate=80)\n        timer = str(timer)[:5] + " seconds"\n        print timer\n        session.data["response"]["timer"]=timer\n\n    return locals()\n    \ndef createResultTable(data):\n    class Virtual(object):\n        @virtualsettings(label=T(\'Source\'))\n        def sourcelink(self):\n            return A(self.t_result.f_source,_href=self.t_result.f_url,_target=\'_blank\')\n    \n    table = plugins.powerTable\n    table.datasource = data\n            \n    table.dtfeatures[\'sScrollY\'] = \'100%\'\n    table.virtualfields = Virtual()\n    table.dtfeatures[\'bSort\'] = False\n    table.dtfeatures[\'aaSortingFixed\'] = [[2,\'asc\']]\n    table.dtfeatures[\'iDisplayLength\'] = 20\n    table.dtfeatures[\'bPaginate\'] =  False\n    \n    table.truncate = 60 \n    table.headers = \'labels\'\n    table.keycolumn = \'t_result.id\'\n    table.showkeycolumn = False\n    table.extra = dict(\n                       details={\'detailscolumns\':\'t_result.f_title,t_result.f_url,t_result.f_snippet\',\'detailscallback\':URL(\'display_details.load\')}\n                       )\n    table.columns = [\'t_result.f_rank\',\n                     \'t_result.f_title\',\n                     \'virtual.sourcelink\',\n                     #\'t_result.f_source\',\n                     #\'t_result.f_docno\',\n                     #\'t_result.f_score\',\n                    ]\n    table.hiddencolumns = [\'t_result.f_source\',\'t_result.f_url\']\n    table.dtfeatures[\'bInfo\'] =  False\n    table.dtfeatures[\'bFilter\'] =  False\n    table.dtfeatures[\'bAutoWidth\'] =  False\n    table.dtfeatures[\'aoColumns\'] = [\n            { \'sWidth\': \'0%\' },\n            { \'sWidth\': \'5.5%\' },\n            { \'sWidth\': \'5.5%\' },\n            { \'sWidth\': \'55.5%\' },\n            { \'sWidth\': \'33.5%\' }\n        ]\n    return table.create()\n\ndef createDiseaseTable(data):\n    distable = plugins.powerTable\n    distable.datasource = data\n    \n    distable.dtfeatures[\'sScrollY\'] = \'100%\'\n    distable.dtfeatures[\'bSort\'] = False\n    distable.dtfeatures[\'aaSortingFixed\'] = [[2,\'asc\']]\n    distable.dtfeatures[\'iDisplayLength\'] = 20\n    distable.dtfeatures[\'bPaginate\'] =  False\n    distable.dtfeatures[\'bInfo\'] =  False\n    distable.dtfeatures[\'bFilter\'] =  False\n    \n    distable.truncate = 60 \n    distable.headers = \'labels\'\n    distable.keycolumn = \'t_resdis.id\'\n    distable.showkeycolumn = False\n    \n    distable.columns = [\'t_resdis.f_rank\',\n                     \'t_resdis.f_disease\',\n                     \'t_resdis.f_freq\',\n                     \'t_resdis.f_docnos\',\n                     ]\n                     \n    return distable.create()\n\ndef filterOnString(fs):\n        fs = fs.lower()\n        query = (db.t_result.f_title.lower().contains(fs) | db.t_result.f_snippet.lower().contains(fs) | db.t_result.f_source.lower().contains(fs) ) \n        return db(query).select()\n \ndef display_details():\n    """\n    return a custom object to be inserted in detail for table\n    """\n    key = None\n    cols = None\n    for k in request.vars.keys():\n        if k[:3] == \'dt_\':\n            key = request.vars[k]\n        elif k[:6] == \'dtcols\':\n            cols = request.vars[k]\n\n    value = int(key.split(\'.\')[2])\n    rows = cPickle.load(response.session_file)[\'data\']\n    row = rows[value-1]\n\n    logfile = open(\'logs/\'+str(response.session_id),\'a\')\n    logfile.write("OPENED DETAILS FOR RANK: "+str(value)+"\\n")\n    logfile.close()\n    \n    details = DIV(B("Title: "))\n    details.append(P(str(row[0])))\n    details.append(B("URL: "))\n    details.append(P(A(str(row[1]),_href=str(row[1]),_target=\'_blank\')))\n    details.append(B("Text: "))\n    details.append(P(str(row[2])))\n    return details\n\ndef feedback():\n    if request.vars.comment:\n        feedbackfile = open("logs/messages","a")\n        feedbackfile.write("SESSION: "+str(response.session_id)+"\\n")\n        feedbackfile.write("TIME: "+time.strftime("%X %x %z")+"\\n")\n        if session.query:\n            feedbackfile.write("QUERY: "+str(session.query)+"\\n")\n        if session.hashstring:\n            feedbackfile.write("RESULT FILE: "+str(session.hashstring)+"\\n")\n        else:\n            feedbackfile.write("RESULT FILE: "+"no recent queries"+"\\n")\n        if response.session_id:\n            feedbackfile.write("LOG FILE: "+str(response.session_id)+"\\n")\n        feedbackfile.write("COMMENT: \'"+str(request.vars.comment)+"\'\\n")\n        feedbackfile.close()\n        message="Feedback received. Thank you!"\n        return message\n    return ""\n\ndef filterResults():\n    fword = str(request.vars.values()[0])\n    data = filterOnString(fword)\n    table = createResultTable(data)\n    return str(table) + "<script>addFilterBox(\'"+str(fword)+"\');$(\'input#fword\').focus().val($(\'input#fword\').val());</script>"\n\ndef user():\n    """\n    exposes:\n    http://..../[app]/default/user/login \n    http://..../[app]/default/user/logout\n    http://..../[app]/default/user/register\n    http://..../[app]/default/user/profile\n    http://..../[app]/default/user/retrieve_password\n    http://..../[app]/default/user/change_password\n    use @auth.requires_login()\n        @auth.requires_membership(\'group name\')\n        @auth.requires_permission(\'read\',\'table name\',record_id)\n    to decorate functions that need access control\n    """\n    return dict(form=auth())\n\n\ndef download():\n    """\n    allows downloading of uploaded files\n    http://..../[app]/default/download/[filename]\n    """\n    return response.download(request,db)\n\n\ndef call():\n    """\n    exposes services. for example:\n    http://..../[app]/default/call/jsonrpc\n    decorate with @services.jsonrpc the functions to expose\n    supports xml, json, xmlrpc, jsonrpc, amfrpc, rss, csv\n    """\n    session.forget()\n    return service()\n\nresponse._vars=response._caller(index)\n'
p6
sS'snapshot'
p7
(dp8
S'exception'
p9
(dp10
S'__getslice__'
p11
S"<method-wrapper '__getslice__' of exceptions.IOError object>"
p12
sS'__str__'
p13
S"<method-wrapper '__str__' of exceptions.IOError object>"
p14
sS'__reduce__'
p15
S'<built-in method __reduce__ of exceptions.IOError object>'
p16
sS'__dict__'
p17
S'{}'
p18
sS'__sizeof__'
p19
S'<built-in method __sizeof__ of exceptions.IOError object>'
p20
sS'__init__'
p21
S"<method-wrapper '__init__' of exceptions.IOError object>"
p22
sS'__setattr__'
p23
S"<method-wrapper '__setattr__' of exceptions.IOError object>"
p24
sS'__reduce_ex__'
p25
S'<built-in method __reduce_ex__ of exceptions.IOError object>'
p26
sS'__new__'
p27
S'<built-in method __new__ of type object>'
p28
sS'errno'
p29
S'2'
sS'__format__'
p30
S'<built-in method __format__ of exceptions.IOError object>'
p31
sS'__class__'
p32
S"<type 'exceptions.IOError'>"
p33
sS'filename'
p34
S"'/home/www-data/web2py/results/3a1b92aede7779aa81007fa3ecebbd27.dis'"
p35
sS'__doc__'
p36
S"'I/O operation failed.'"
p37
sS'__getitem__'
p38
S"<method-wrapper '__getitem__' of exceptions.IOError object>"
p39
sS'__setstate__'
p40
S'<built-in method __setstate__ of exceptions.IOError object>'
p41
sS'__getattribute__'
p42
S"<method-wrapper '__getattribute__' of exceptions.IOError object>"
p43
sS'args'
p44
S"(2, 'No such file or directory')"
p45
sS'__subclasshook__'
p46
S'<built-in method __subclasshook__ of type object>'
p47
sS'__unicode__'
p48
S'<built-in method __unicode__ of exceptions.IOError object>'
p49
sS'strerror'
p50
S"'No such file or directory'"
p51
sS'__delattr__'
p52
S"<method-wrapper '__delattr__' of exceptions.IOError object>"
p53
sS'__repr__'
p54
S"<method-wrapper '__repr__' of exceptions.IOError object>"
p55
sS'__hash__'
p56
S"<method-wrapper '__hash__' of exceptions.IOError object>"
p57
ssS'evalue'
p58
S"[Errno 2] No such file or directory: '/home/www-data/web2py/results/3a1b92aede7779aa81007fa3ecebbd27.dis'"
p59
sS'request'
p60
ccopy_reg
_reconstructor
p61
(cgluon.html
BEAUTIFY
p62
c__builtin__
object
p63
NtRp64
(dp65
S'attributes'
p66
(dp67
sS'components'
p68
(lp69
g61
(cgluon.html
TABLE
p70
g63
NtRp71
(dp72
g66
(dp73
S'level'
p74
I5
ssS'parent'
p75
Nsg68
(lp76
g61
(cgluon.html
TR
p77
g63
NtRp78
(dp79
g66
(dp80
sg75
g71
sg68
(lp81
g61
(cgluon.html
TD
p82
g63
NtRp83
(dp84
g66
(dp85
S'_style'
p86
S'font-weight:bold;'
p87
ssg75
g78
sg68
(lp88
S'ajax'
p89
asbag61
(g82
g63
NtRp90
(dp91
g66
(dp92
S'_valign'
p93
S'top'
p94
ssg75
g78
sg68
(lp95
S':'
asbag61
(g82
g63
NtRp96
(dp97
g66
(dp98
sg75
g78
sg68
(lp99
g61
(g62
g63
NtRp100
(dp101
g66
(dp102
g74
I5
ssg75
g96
sg68
(lp103
S'False'
p104
asbasbasbag61
(g77
g63
NtRp105
(dp106
g66
(dp107
sg75
g71
sg68
(lp108
g61
(g82
g63
NtRp109
(dp110
g66
(dp111
g86
g87
ssg75
g105
sg68
(lp112
S'application'
p113
asbag61
(g82
g63
NtRp114
(dp115
g66
(dp116
g93
g94
ssg75
g105
sg68
(lp117
S':'
asbag61
(g82
g63
NtRp118
(dp119
g66
(dp120
sg75
g105
sg68
(lp121
g61
(g62
g63
NtRp122
(dp123
g66
(dp124
g74
I5
ssg75
g118
sg68
(lp125
S'rdcdss'
p126
asbasbasbag61
(g77
g63
NtRp127
(dp128
g66
(dp129
sg75
g71
sg68
(lp130
g61
(g82
g63
NtRp131
(dp132
g66
(dp133
g86
g87
ssg75
g127
sg68
(lp134
g44
asbag61
(g82
g63
NtRp135
(dp136
g66
(dp137
g93
g94
ssg75
g127
sg68
(lp138
S':'
asbag61
(g82
g63
NtRp139
(dp140
g66
(dp141
sg75
g127
sg68
(lp142
g61
(g62
g63
NtRp143
(dp144
g66
(dp145
g74
I5
ssg75
g139
sg68
(lp146
g61
(g70
g63
NtRp147
(dp148
g66
(dp149
g74
I4
ssg75
Nsg68
(lp150
sbasbasbasbag61
(g77
g63
NtRp151
(dp152
g66
(dp153
sg75
g71
sg68
(lp154
g61
(g82
g63
NtRp155
(dp156
g66
(dp157
g86
g87
ssg75
g151
sg68
(lp158
S'body'
p159
asbag61
(g82
g63
NtRp160
(dp161
g66
(dp162
g93
g94
ssg75
g151
sg68
(lp163
S':'
asbag61
(g82
g63
NtRp164
(dp165
g66
(dp166
sg75
g151
sg68
(lp167
g61
(g62
g63
NtRp168
(dp169
g66
(dp170
g74
I5
ssg75
g164
sg68
(lp171
S'<cStringIO.StringO object at 0x2b50c0189d50>'
p172
asbasbasbag61
(g77
g63
NtRp173
(dp174
g66
(dp175
sg75
g71
sg68
(lp176
g61
(g82
g63
NtRp177
(dp178
g66
(dp179
g86
g87
ssg75
g173
sg68
(lp180
S'client'
p181
asbag61
(g82
g63
NtRp182
(dp183
g66
(dp184
g93
g94
ssg75
g173
sg68
(lp185
S':'
asbag61
(g82
g63
NtRp186
(dp187
g66
(dp188
sg75
g173
sg68
(lp189
g61
(g62
g63
NtRp190
(dp191
g66
(dp192
g74
I5
ssg75
g186
sg68
(lp193
S'89.123.39.111'
p194
asbasbasbag61
(g77
g63
NtRp195
(dp196
g66
(dp197
sg75
g71
sg68
(lp198
g61
(g82
g63
NtRp199
(dp200
g66
(dp201
g86
g87
ssg75
g195
sg68
(lp202
S'controller'
p203
asbag61
(g82
g63
NtRp204
(dp205
g66
(dp206
g93
g94
ssg75
g195
sg68
(lp207
S':'
asbag61
(g82
g63
NtRp208
(dp209
g66
(dp210
sg75
g195
sg68
(lp211
g61
(g62
g63
NtRp212
(dp213
g66
(dp214
g74
I5
ssg75
g208
sg68
(lp215
S'default'
p216
asbasbasbag61
(g77
g63
NtRp217
(dp218
g66
(dp219
sg75
g71
sg68
(lp220
g61
(g82
g63
NtRp221
(dp222
g66
(dp223
g86
g87
ssg75
g217
sg68
(lp224
S'cookies'
p225
asbag61
(g82
g63
NtRp226
(dp227
g66
(dp228
g93
g94
ssg75
g217
sg68
(lp229
S':'
asbag61
(g82
g63
NtRp230
(dp231
g66
(dp232
sg75
g217
sg68
(lp233
g61
(g62
g63
NtRp234
(dp235
g66
(dp236
g74
I5
ssg75
g230
sg68
(lp237
g61
(g70
g63
NtRp238
(dp239
g66
(dp240
g74
I4
ssg75
Nsg68
(lp241
g61
(g77
g63
NtRp242
(dp243
g66
(dp244
sg75
g238
sg68
(lp245
g61
(g82
g63
NtRp246
(dp247
g66
(dp248
g86
g87
ssg75
g242
sg68
(lp249
S'session_id_admin'
p250
asbag61
(g82
g63
NtRp251
(dp252
g66
(dp253
g93
g94
ssg75
g242
sg68
(lp254
S':'
asbag61
(g82
g63
NtRp255
(dp256
g66
(dp257
sg75
g242
sg68
(lp258
g61
(g62
g63
NtRp259
(dp260
g66
(dp261
g74
I4
ssg75
g255
sg68
(lp262
g61
(g70
g63
NtRp263
(dp264
g66
(dp265
g74
I3
ssg75
Nsg68
(lp266
g61
(g77
g63
NtRp267
(dp268
g66
(dp269
sg75
g263
sg68
(lp270
g61
(g82
g63
NtRp271
(dp272
g66
(dp273
g86
g87
ssg75
g267
sg68
(lp274
S'comment'
p275
asbag61
(g82
g63
NtRp276
(dp277
g66
(dp278
g93
g94
ssg75
g267
sg68
(lp279
S':'
asbag61
(g82
g63
NtRp280
(dp281
g66
(dp282
sg75
g267
sg68
(lp283
g61
(g62
g63
NtRp284
(dp285
g66
(dp286
g74
I3
ssg75
g280
sg68
(lp287
S''
asbasbasbag61
(g77
g63
NtRp288
(dp289
g66
(dp290
sg75
g263
sg68
(lp291
g61
(g82
g63
NtRp292
(dp293
g66
(dp294
g86
g87
ssg75
g288
sg68
(lp295
S'domain'
p296
asbag61
(g82
g63
NtRp297
(dp298
g66
(dp299
g93
g94
ssg75
g288
sg68
(lp300
S':'
asbag61
(g82
g63
NtRp301
(dp302
g66
(dp303
sg75
g288
sg68
(lp304
g61
(g62
g63
NtRp305
(dp306
g66
(dp307
g74
I3
ssg75
g301
sg68
(lp308
S''
asbasbasbag61
(g77
g63
NtRp309
(dp310
g66
(dp311
sg75
g263
sg68
(lp312
g61
(g82
g63
NtRp313
(dp314
g66
(dp315
g86
g87
ssg75
g309
sg68
(lp316
S'expires'
p317
asbag61
(g82
g63
NtRp318
(dp319
g66
(dp320
g93
g94
ssg75
g309
sg68
(lp321
S':'
asbag61
(g82
g63
NtRp322
(dp323
g66
(dp324
sg75
g309
sg68
(lp325
g61
(g62
g63
NtRp326
(dp327
g66
(dp328
g74
I3
ssg75
g322
sg68
(lp329
S''
asbasbasbag61
(g77
g63
NtRp330
(dp331
g66
(dp332
sg75
g263
sg68
(lp333
g61
(g82
g63
NtRp334
(dp335
g66
(dp336
g86
g87
ssg75
g330
sg68
(lp337
S'httponly'
p338
asbag61
(g82
g63
NtRp339
(dp340
g66
(dp341
g93
g94
ssg75
g330
sg68
(lp342
S':'
asbag61
(g82
g63
NtRp343
(dp344
g66
(dp345
sg75
g330
sg68
(lp346
g61
(g62
g63
NtRp347
(dp348
g66
(dp349
g74
I3
ssg75
g343
sg68
(lp350
S''
asbasbasbag61
(g77
g63
NtRp351
(dp352
g66
(dp353
sg75
g263
sg68
(lp354
g61
(g82
g63
NtRp355
(dp356
g66
(dp357
g86
g87
ssg75
g351
sg68
(lp358
S'max-age'
p359
asbag61
(g82
g63
NtRp360
(dp361
g66
(dp362
g93
g94
ssg75
g351
sg68
(lp363
S':'
asbag61
(g82
g63
NtRp364
(dp365
g66
(dp366
sg75
g351
sg68
(lp367
g61
(g62
g63
NtRp368
(dp369
g66
(dp370
g74
I3
ssg75
g364
sg68
(lp371
S''
asbasbasbag61
(g77
g63
NtRp372
(dp373
g66
(dp374
sg75
g263
sg68
(lp375
g61
(g82
g63
NtRp376
(dp377
g66
(dp378
g86
g87
ssg75
g372
sg68
(lp379
S'path'
p380
asbag61
(g82
g63
NtRp381
(dp382
g66
(dp383
g93
g94
ssg75
g372
sg68
(lp384
S':'
asbag61
(g82
g63
NtRp385
(dp386
g66
(dp387
sg75
g372
sg68
(lp388
g61
(g62
g63
NtRp389
(dp390
g66
(dp391
g74
I3
ssg75
g385
sg68
(lp392
S''
asbasbasbag61
(g77
g63
NtRp393
(dp394
g66
(dp395
sg75
g263
sg68
(lp396
g61
(g82
g63
NtRp397
(dp398
g66
(dp399
g86
g87
ssg75
g393
sg68
(lp400
S'secure'
p401
asbag61
(g82
g63
NtRp402
(dp403
g66
(dp404
g93
g94
ssg75
g393
sg68
(lp405
S':'
asbag61
(g82
g63
NtRp406
(dp407
g66
(dp408
sg75
g393
sg68
(lp409
g61
(g62
g63
NtRp410
(dp411
g66
(dp412
g74
I3
ssg75
g406
sg68
(lp413
S''
asbasbasbag61
(g77
g63
NtRp414
(dp415
g66
(dp416
sg75
g263
sg68
(lp417
g61
(g82
g63
NtRp418
(dp419
g66
(dp420
g86
g87
ssg75
g414
sg68
(lp421
S'version'
p422
asbag61
(g82
g63
NtRp423
(dp424
g66
(dp425
g93
g94
ssg75
g414
sg68
(lp426
S':'
asbag61
(g82
g63
NtRp427
(dp428
g66
(dp429
sg75
g414
sg68
(lp430
g61
(g62
g63
NtRp431
(dp432
g66
(dp433
g74
I3
ssg75
g427
sg68
(lp434
S''
asbasbasbasbasbasbasbag61
(g77
g63
NtRp435
(dp436
g66
(dp437
sg75
g238
sg68
(lp438
g61
(g82
g63
NtRp439
(dp440
g66
(dp441
g86
g87
ssg75
g435
sg68
(lp442
S'session_id_raredisss_devel'
p443
asbag61
(g82
g63
NtRp444
(dp445
g66
(dp446
g93
g94
ssg75
g435
sg68
(lp447
S':'
asbag61
(g82
g63
NtRp448
(dp449
g66
(dp450
sg75
g435
sg68
(lp451
g61
(g62
g63
NtRp452
(dp453
g66
(dp454
g74
I4
ssg75
g448
sg68
(lp455
g61
(g70
g63
NtRp456
(dp457
g66
(dp458
g74
I3
ssg75
Nsg68
(lp459
g61
(g77
g63
NtRp460
(dp461
g66
(dp462
sg75
g456
sg68
(lp463
g61
(g82
g63
NtRp464
(dp465
g66
(dp466
g86
g87
ssg75
g460
sg68
(lp467
g275
asbag61
(g82
g63
NtRp468
(dp469
g66
(dp470
g93
g94
ssg75
g460
sg68
(lp471
S':'
asbag61
(g82
g63
NtRp472
(dp473
g66
(dp474
sg75
g460
sg68
(lp475
g61
(g62
g63
NtRp476
(dp477
g66
(dp478
g74
I3
ssg75
g472
sg68
(lp479
S''
asbasbasbag61
(g77
g63
NtRp480
(dp481
g66
(dp482
sg75
g456
sg68
(lp483
g61
(g82
g63
NtRp484
(dp485
g66
(dp486
g86
g87
ssg75
g480
sg68
(lp487
g296
asbag61
(g82
g63
NtRp488
(dp489
g66
(dp490
g93
g94
ssg75
g480
sg68
(lp491
S':'
asbag61
(g82
g63
NtRp492
(dp493
g66
(dp494
sg75
g480
sg68
(lp495
g61
(g62
g63
NtRp496
(dp497
g66
(dp498
g74
I3
ssg75
g492
sg68
(lp499
S''
asbasbasbag61
(g77
g63
NtRp500
(dp501
g66
(dp502
sg75
g456
sg68
(lp503
g61
(g82
g63
NtRp504
(dp505
g66
(dp506
g86
g87
ssg75
g500
sg68
(lp507
g317
asbag61
(g82
g63
NtRp508
(dp509
g66
(dp510
g93
g94
ssg75
g500
sg68
(lp511
S':'
asbag61
(g82
g63
NtRp512
(dp513
g66
(dp514
sg75
g500
sg68
(lp515
g61
(g62
g63
NtRp516
(dp517
g66
(dp518
g74
I3
ssg75
g512
sg68
(lp519
S''
asbasbasbag61
(g77
g63
NtRp520
(dp521
g66
(dp522
sg75
g456
sg68
(lp523
g61
(g82
g63
NtRp524
(dp525
g66
(dp526
g86
g87
ssg75
g520
sg68
(lp527
g338
asbag61
(g82
g63
NtRp528
(dp529
g66
(dp530
g93
g94
ssg75
g520
sg68
(lp531
S':'
asbag61
(g82
g63
NtRp532
(dp533
g66
(dp534
sg75
g520
sg68
(lp535
g61
(g62
g63
NtRp536
(dp537
g66
(dp538
g74
I3
ssg75
g532
sg68
(lp539
S''
asbasbasbag61
(g77
g63
NtRp540
(dp541
g66
(dp542
sg75
g456
sg68
(lp543
g61
(g82
g63
NtRp544
(dp545
g66
(dp546
g86
g87
ssg75
g540
sg68
(lp547
g359
asbag61
(g82
g63
NtRp548
(dp549
g66
(dp550
g93
g94
ssg75
g540
sg68
(lp551
S':'
asbag61
(g82
g63
NtRp552
(dp553
g66
(dp554
sg75
g540
sg68
(lp555
g61
(g62
g63
NtRp556
(dp557
g66
(dp558
g74
I3
ssg75
g552
sg68
(lp559
S''
asbasbasbag61
(g77
g63
NtRp560
(dp561
g66
(dp562
sg75
g456
sg68
(lp563
g61
(g82
g63
NtRp564
(dp565
g66
(dp566
g86
g87
ssg75
g560
sg68
(lp567
g380
asbag61
(g82
g63
NtRp568
(dp569
g66
(dp570
g93
g94
ssg75
g560
sg68
(lp571
S':'
asbag61
(g82
g63
NtRp572
(dp573
g66
(dp574
sg75
g560
sg68
(lp575
g61
(g62
g63
NtRp576
(dp577
g66
(dp578
g74
I3
ssg75
g572
sg68
(lp579
S''
asbasbasbag61
(g77
g63
NtRp580
(dp581
g66
(dp582
sg75
g456
sg68
(lp583
g61
(g82
g63
NtRp584
(dp585
g66
(dp586
g86
g87
ssg75
g580
sg68
(lp587
g401
asbag61
(g82
g63
NtRp588
(dp589
g66
(dp590
g93
g94
ssg75
g580
sg68
(lp591
S':'
asbag61
(g82
g63
NtRp592
(dp593
g66
(dp594
sg75
g580
sg68
(lp595
g61
(g62
g63
NtRp596
(dp597
g66
(dp598
g74
I3
ssg75
g592
sg68
(lp599
S''
asbasbasbag61
(g77
g63
NtRp600
(dp601
g66
(dp602
sg75
g456
sg68
(lp603
g61
(g82
g63
NtRp604
(dp605
g66
(dp606
g86
g87
ssg75
g600
sg68
(lp607
g422
asbag61
(g82
g63
NtRp608
(dp609
g66
(dp610
g93
g94
ssg75
g600
sg68
(lp611
S':'
asbag61
(g82
g63
NtRp612
(dp613
g66
(dp614
sg75
g600
sg68
(lp615
g61
(g62
g63
NtRp616
(dp617
g66
(dp618
g74
I3
ssg75
g612
sg68
(lp619
S''
asbasbasbasbasbasbasbag61
(g77
g63
NtRp620
(dp621
g66
(dp622
sg75
g238
sg68
(lp623
g61
(g82
g63
NtRp624
(dp625
g66
(dp626
g86
g87
ssg75
g620
sg68
(lp627
S'session_id_raredisss_stable'
p628
asbag61
(g82
g63
NtRp629
(dp630
g66
(dp631
g93
g94
ssg75
g620
sg68
(lp632
S':'
asbag61
(g82
g63
NtRp633
(dp634
g66
(dp635
sg75
g620
sg68
(lp636
g61
(g62
g63
NtRp637
(dp638
g66
(dp639
g74
I4
ssg75
g633
sg68
(lp640
g61
(g70
g63
NtRp641
(dp642
g66
(dp643
g74
I3
ssg75
Nsg68
(lp644
g61
(g77
g63
NtRp645
(dp646
g66
(dp647
sg75
g641
sg68
(lp648
g61
(g82
g63
NtRp649
(dp650
g66
(dp651
g86
g87
ssg75
g645
sg68
(lp652
g275
asbag61
(g82
g63
NtRp653
(dp654
g66
(dp655
g93
g94
ssg75
g645
sg68
(lp656
S':'
asbag61
(g82
g63
NtRp657
(dp658
g66
(dp659
sg75
g645
sg68
(lp660
g61
(g62
g63
NtRp661
(dp662
g66
(dp663
g74
I3
ssg75
g657
sg68
(lp664
S''
asbasbasbag61
(g77
g63
NtRp665
(dp666
g66
(dp667
sg75
g641
sg68
(lp668
g61
(g82
g63
NtRp669
(dp670
g66
(dp671
g86
g87
ssg75
g665
sg68
(lp672
g296
asbag61
(g82
g63
NtRp673
(dp674
g66
(dp675
g93
g94
ssg75
g665
sg68
(lp676
S':'
asbag61
(g82
g63
NtRp677
(dp678
g66
(dp679
sg75
g665
sg68
(lp680
g61
(g62
g63
NtRp681
(dp682
g66
(dp683
g74
I3
ssg75
g677
sg68
(lp684
S''
asbasbasbag61
(g77
g63
NtRp685
(dp686
g66
(dp687
sg75
g641
sg68
(lp688
g61
(g82
g63
NtRp689
(dp690
g66
(dp691
g86
g87
ssg75
g685
sg68
(lp692
g317
asbag61
(g82
g63
NtRp693
(dp694
g66
(dp695
g93
g94
ssg75
g685
sg68
(lp696
S':'
asbag61
(g82
g63
NtRp697
(dp698
g66
(dp699
sg75
g685
sg68
(lp700
g61
(g62
g63
NtRp701
(dp702
g66
(dp703
g74
I3
ssg75
g697
sg68
(lp704
S''
asbasbasbag61
(g77
g63
NtRp705
(dp706
g66
(dp707
sg75
g641
sg68
(lp708
g61
(g82
g63
NtRp709
(dp710
g66
(dp711
g86
g87
ssg75
g705
sg68
(lp712
g338
asbag61
(g82
g63
NtRp713
(dp714
g66
(dp715
g93
g94
ssg75
g705
sg68
(lp716
S':'
asbag61
(g82
g63
NtRp717
(dp718
g66
(dp719
sg75
g705
sg68
(lp720
g61
(g62
g63
NtRp721
(dp722
g66
(dp723
g74
I3
ssg75
g717
sg68
(lp724
S''
asbasbasbag61
(g77
g63
NtRp725
(dp726
g66
(dp727
sg75
g641
sg68
(lp728
g61
(g82
g63
NtRp729
(dp730
g66
(dp731
g86
g87
ssg75
g725
sg68
(lp732
g359
asbag61
(g82
g63
NtRp733
(dp734
g66
(dp735
g93
g94
ssg75
g725
sg68
(lp736
S':'
asbag61
(g82
g63
NtRp737
(dp738
g66
(dp739
sg75
g725
sg68
(lp740
g61
(g62
g63
NtRp741
(dp742
g66
(dp743
g74
I3
ssg75
g737
sg68
(lp744
S''
asbasbasbag61
(g77
g63
NtRp745
(dp746
g66
(dp747
sg75
g641
sg68
(lp748
g61
(g82
g63
NtRp749
(dp750
g66
(dp751
g86
g87
ssg75
g745
sg68
(lp752
g380
asbag61
(g82
g63
NtRp753
(dp754
g66
(dp755
g93
g94
ssg75
g745
sg68
(lp756
S':'
asbag61
(g82
g63
NtRp757
(dp758
g66
(dp759
sg75
g745
sg68
(lp760
g61
(g62
g63
NtRp761
(dp762
g66
(dp763
g74
I3
ssg75
g757
sg68
(lp764
S''
asbasbasbag61
(g77
g63
NtRp765
(dp766
g66
(dp767
sg75
g641
sg68
(lp768
g61
(g82
g63
NtRp769
(dp770
g66
(dp771
g86
g87
ssg75
g765
sg68
(lp772
g401
asbag61
(g82
g63
NtRp773
(dp774
g66
(dp775
g93
g94
ssg75
g765
sg68
(lp776
S':'
asbag61
(g82
g63
NtRp777
(dp778
g66
(dp779
sg75
g765
sg68
(lp780
g61
(g62
g63
NtRp781
(dp782
g66
(dp783
g74
I3
ssg75
g777
sg68
(lp784
S''
asbasbasbag61
(g77
g63
NtRp785
(dp786
g66
(dp787
sg75
g641
sg68
(lp788
g61
(g82
g63
NtRp789
(dp790
g66
(dp791
g86
g87
ssg75
g785
sg68
(lp792
g422
asbag61
(g82
g63
NtRp793
(dp794
g66
(dp795
g93
g94
ssg75
g785
sg68
(lp796
S':'
asbag61
(g82
g63
NtRp797
(dp798
g66
(dp799
sg75
g785
sg68
(lp800
g61
(g62
g63
NtRp801
(dp802
g66
(dp803
g74
I3
ssg75
g797
sg68
(lp804
S''
asbasbasbasbasbasbasbag61
(g77
g63
NtRp805
(dp806
g66
(dp807
sg75
g238
sg68
(lp808
g61
(g82
g63
NtRp809
(dp810
g66
(dp811
g86
g87
ssg75
g805
sg68
(lp812
S'session_id_rdcdss'
p813
asbag61
(g82
g63
NtRp814
(dp815
g66
(dp816
g93
g94
ssg75
g805
sg68
(lp817
S':'
asbag61
(g82
g63
NtRp818
(dp819
g66
(dp820
sg75
g805
sg68
(lp821
g61
(g62
g63
NtRp822
(dp823
g66
(dp824
g74
I4
ssg75
g818
sg68
(lp825
g61
(g70
g63
NtRp826
(dp827
g66
(dp828
g74
I3
ssg75
Nsg68
(lp829
g61
(g77
g63
NtRp830
(dp831
g66
(dp832
sg75
g826
sg68
(lp833
g61
(g82
g63
NtRp834
(dp835
g66
(dp836
g86
g87
ssg75
g830
sg68
(lp837
g275
asbag61
(g82
g63
NtRp838
(dp839
g66
(dp840
g93
g94
ssg75
g830
sg68
(lp841
S':'
asbag61
(g82
g63
NtRp842
(dp843
g66
(dp844
sg75
g830
sg68
(lp845
g61
(g62
g63
NtRp846
(dp847
g66
(dp848
g74
I3
ssg75
g842
sg68
(lp849
S''
asbasbasbag61
(g77
g63
NtRp850
(dp851
g66
(dp852
sg75
g826
sg68
(lp853
g61
(g82
g63
NtRp854
(dp855
g66
(dp856
g86
g87
ssg75
g850
sg68
(lp857
g296
asbag61
(g82
g63
NtRp858
(dp859
g66
(dp860
g93
g94
ssg75
g850
sg68
(lp861
S':'
asbag61
(g82
g63
NtRp862
(dp863
g66
(dp864
sg75
g850
sg68
(lp865
g61
(g62
g63
NtRp866
(dp867
g66
(dp868
g74
I3
ssg75
g862
sg68
(lp869
S''
asbasbasbag61
(g77
g63
NtRp870
(dp871
g66
(dp872
sg75
g826
sg68
(lp873
g61
(g82
g63
NtRp874
(dp875
g66
(dp876
g86
g87
ssg75
g870
sg68
(lp877
g317
asbag61
(g82
g63
NtRp878
(dp879
g66
(dp880
g93
g94
ssg75
g870
sg68
(lp881
S':'
asbag61
(g82
g63
NtRp882
(dp883
g66
(dp884
sg75
g870
sg68
(lp885
g61
(g62
g63
NtRp886
(dp887
g66
(dp888
g74
I3
ssg75
g882
sg68
(lp889
S''
asbasbasbag61
(g77
g63
NtRp890
(dp891
g66
(dp892
sg75
g826
sg68
(lp893
g61
(g82
g63
NtRp894
(dp895
g66
(dp896
g86
g87
ssg75
g890
sg68
(lp897
g338
asbag61
(g82
g63
NtRp898
(dp899
g66
(dp900
g93
g94
ssg75
g890
sg68
(lp901
S':'
asbag61
(g82
g63
NtRp902
(dp903
g66
(dp904
sg75
g890
sg68
(lp905
g61
(g62
g63
NtRp906
(dp907
g66
(dp908
g74
I3
ssg75
g902
sg68
(lp909
S''
asbasbasbag61
(g77
g63
NtRp910
(dp911
g66
(dp912
sg75
g826
sg68
(lp913
g61
(g82
g63
NtRp914
(dp915
g66
(dp916
g86
g87
ssg75
g910
sg68
(lp917
g359
asbag61
(g82
g63
NtRp918
(dp919
g66
(dp920
g93
g94
ssg75
g910
sg68
(lp921
S':'
asbag61
(g82
g63
NtRp922
(dp923
g66
(dp924
sg75
g910
sg68
(lp925
g61
(g62
g63
NtRp926
(dp927
g66
(dp928
g74
I3
ssg75
g922
sg68
(lp929
S''
asbasbasbag61
(g77
g63
NtRp930
(dp931
g66
(dp932
sg75
g826
sg68
(lp933
g61
(g82
g63
NtRp934
(dp935
g66
(dp936
g86
g87
ssg75
g930
sg68
(lp937
g380
asbag61
(g82
g63
NtRp938
(dp939
g66
(dp940
g93
g94
ssg75
g930
sg68
(lp941
S':'
asbag61
(g82
g63
NtRp942
(dp943
g66
(dp944
sg75
g930
sg68
(lp945
g61
(g62
g63
NtRp946
(dp947
g66
(dp948
g74
I3
ssg75
g942
sg68
(lp949
S''
asbasbasbag61
(g77
g63
NtRp950
(dp951
g66
(dp952
sg75
g826
sg68
(lp953
g61
(g82
g63
NtRp954
(dp955
g66
(dp956
g86
g87
ssg75
g950
sg68
(lp957
g401
asbag61
(g82
g63
NtRp958
(dp959
g66
(dp960
g93
g94
ssg75
g950
sg68
(lp961
S':'
asbag61
(g82
g63
NtRp962
(dp963
g66
(dp964
sg75
g950
sg68
(lp965
g61
(g62
g63
NtRp966
(dp967
g66
(dp968
g74
I3
ssg75
g962
sg68
(lp969
S''
asbasbasbag61
(g77
g63
NtRp970
(dp971
g66
(dp972
sg75
g826
sg68
(lp973
g61
(g82
g63
NtRp974
(dp975
g66
(dp976
g86
g87
ssg75
g970
sg68
(lp977
g422
asbag61
(g82
g63
NtRp978
(dp979
g66
(dp980
g93
g94
ssg75
g970
sg68
(lp981
S':'
asbag61
(g82
g63
NtRp982
(dp983
g66
(dp984
sg75
g970
sg68
(lp985
g61
(g62
g63
NtRp986
(dp987
g66
(dp988
g74
I3
ssg75
g982
sg68
(lp989
S''
asbasbasbasbasbasbasbasbasbasbasbag61
(g77
g63
NtRp990
(dp991
g66
(dp992
sg75
g71
sg68
(lp993
g61
(g82
g63
NtRp994
(dp995
g66
(dp996
g86
g87
ssg75
g990
sg68
(lp997
S'env'
p998
asbag61
(g82
g63
NtRp999
(dp1000
g66
(dp1001
g93
g94
ssg75
g990
sg68
(lp1002
S':'
asbag61
(g82
g63
NtRp1003
(dp1004
g66
(dp1005
sg75
g990
sg68
(lp1006
g61
(g62
g63
NtRp1007
(dp1008
g66
(dp1009
g74
I5
ssg75
g1003
sg68
(lp1010
g61
(g70
g63
NtRp1011
(dp1012
g66
(dp1013
g74
I4
ssg75
Nsg68
(lp1014
g61
(g77
g63
NtRp1015
(dp1016
g66
(dp1017
sg75
g1011
sg68
(lp1018
g61
(g82
g63
NtRp1019
(dp1020
g66
(dp1021
g86
g87
ssg75
g1015
sg68
(lp1022
S'app_folders'
p1023
asbag61
(g82
g63
NtRp1024
(dp1025
g66
(dp1026
g93
g94
ssg75
g1015
sg68
(lp1027
S':'
asbag61
(g82
g63
NtRp1028
(dp1029
g66
(dp1030
sg75
g1015
sg68
(lp1031
g61
(g62
g63
NtRp1032
(dp1033
g66
(dp1034
g74
I4
ssg75
g1028
sg68
(lp1035
S"set(['/home/www-data/web2py/applications/RareDisSS_Stable/', '/home/www-data/web2py/applications/rdcdss/', '/home/www-data/web2py/applications/RareDisSS_Devel/', '/home/www-data/web2py/applications/examples/', '/home/www-data/web2py/applications/admin/'])"
p1036
asbasbasbag61
(g77
g63
NtRp1037
(dp1038
g66
(dp1039
sg75
g1011
sg68
(lp1040
g61
(g82
g63
NtRp1041
(dp1042
g66
(dp1043
g86
g87
ssg75
g1037
sg68
(lp1044
S'applications_parent'
p1045
asbag61
(g82
g63
NtRp1046
(dp1047
g66
(dp1048
g93
g94
ssg75
g1037
sg68
(lp1049
S':'
asbag61
(g82
g63
NtRp1050
(dp1051
g66
(dp1052
sg75
g1037
sg68
(lp1053
g61
(g62
g63
NtRp1054
(dp1055
g66
(dp1056
g74
I4
ssg75
g1050
sg68
(lp1057
S'/home/www-data/web2py'
p1058
asbasbasbag61
(g77
g63
NtRp1059
(dp1060
g66
(dp1061
sg75
g1011
sg68
(lp1062
g61
(g82
g63
NtRp1063
(dp1064
g66
(dp1065
g86
g87
ssg75
g1059
sg68
(lp1066
S'db_sessions'
p1067
asbag61
(g82
g63
NtRp1068
(dp1069
g66
(dp1070
g93
g94
ssg75
g1059
sg68
(lp1071
S':'
asbag61
(g82
g63
NtRp1072
(dp1073
g66
(dp1074
sg75
g1059
sg68
(lp1075
g61
(g62
g63
NtRp1076
(dp1077
g66
(dp1078
g74
I4
ssg75
g1072
sg68
(lp1079
S'set([])'
p1080
asbasbasbag61
(g77
g63
NtRp1081
(dp1082
g66
(dp1083
sg75
g1011
sg68
(lp1084
g61
(g82
g63
NtRp1085
(dp1086
g66
(dp1087
g86
g87
ssg75
g1081
sg68
(lp1088
S'debugging'
p1089
asbag61
(g82
g63
NtRp1090
(dp1091
g66
(dp1092
g93
g94
ssg75
g1081
sg68
(lp1093
S':'
asbag61
(g82
g63
NtRp1094
(dp1095
g66
(dp1096
sg75
g1081
sg68
(lp1097
g61
(g62
g63
NtRp1098
(dp1099
g66
(dp1100
g74
I4
ssg75
g1094
sg68
(lp1101
g104
asbasbasbag61
(g77
g63
NtRp1102
(dp1103
g66
(dp1104
sg75
g1011
sg68
(lp1105
g61
(g82
g63
NtRp1106
(dp1107
g66
(dp1108
g86
g87
ssg75
g1102
sg68
(lp1109
S'document_root'
p1110
asbag61
(g82
g63
NtRp1111
(dp1112
g66
(dp1113
g93
g94
ssg75
g1102
sg68
(lp1114
S':'
asbag61
(g82
g63
NtRp1115
(dp1116
g66
(dp1117
sg75
g1102
sg68
(lp1118
g61
(g62
g63
NtRp1119
(dp1120
g66
(dp1121
g74
I4
ssg75
g1115
sg68
(lp1122
S'/etc/apache2/htdocs'
p1123
asbasbasbag61
(g77
g63
NtRp1124
(dp1125
g66
(dp1126
sg75
g1011
sg68
(lp1127
g61
(g82
g63
NtRp1128
(dp1129
g66
(dp1130
g86
g87
ssg75
g1124
sg68
(lp1131
S'gateway_interface'
p1132
asbag61
(g82
g63
NtRp1133
(dp1134
g66
(dp1135
g93
g94
ssg75
g1124
sg68
(lp1136
S':'
asbag61
(g82
g63
NtRp1137
(dp1138
g66
(dp1139
sg75
g1124
sg68
(lp1140
g61
(g62
g63
NtRp1141
(dp1142
g66
(dp1143
g74
I4
ssg75
g1137
sg68
(lp1144
S'CGI/1.1'
p1145
asbasbasbag61
(g77
g63
NtRp1146
(dp1147
g66
(dp1148
sg75
g1011
sg68
(lp1149
g61
(g82
g63
NtRp1150
(dp1151
g66
(dp1152
g86
g87
ssg75
g1146
sg68
(lp1153
S'gluon_parent'
p1154
asbag61
(g82
g63
NtRp1155
(dp1156
g66
(dp1157
g93
g94
ssg75
g1146
sg68
(lp1158
S':'
asbag61
(g82
g63
NtRp1159
(dp1160
g66
(dp1161
sg75
g1146
sg68
(lp1162
g61
(g62
g63
NtRp1163
(dp1164
g66
(dp1165
g74
I4
ssg75
g1159
sg68
(lp1166
g1058
asbasbasbag61
(g77
g63
NtRp1167
(dp1168
g66
(dp1169
sg75
g1011
sg68
(lp1170
g61
(g82
g63
NtRp1171
(dp1172
g66
(dp1173
g86
g87
ssg75
g1167
sg68
(lp1174
S'http_accept'
p1175
asbag61
(g82
g63
NtRp1176
(dp1177
g66
(dp1178
g93
g94
ssg75
g1167
sg68
(lp1179
S':'
asbag61
(g82
g63
NtRp1180
(dp1181
g66
(dp1182
sg75
g1167
sg68
(lp1183
g61
(g62
g63
NtRp1184
(dp1185
g66
(dp1186
g74
I4
ssg75
g1180
sg68
(lp1187
S'text/html,application/xhtml+xml,application/xml;q=0.9,*/*;q=0.8'
p1188
asbasbasbag61
(g77
g63
NtRp1189
(dp1190
g66
(dp1191
sg75
g1011
sg68
(lp1192
g61
(g82
g63
NtRp1193
(dp1194
g66
(dp1195
g86
g87
ssg75
g1189
sg68
(lp1196
S'http_accept_charset'
p1197
asbag61
(g82
g63
NtRp1198
(dp1199
g66
(dp1200
g93
g94
ssg75
g1189
sg68
(lp1201
S':'
asbag61
(g82
g63
NtRp1202
(dp1203
g66
(dp1204
sg75
g1189
sg68
(lp1205
g61
(g62
g63
NtRp1206
(dp1207
g66
(dp1208
g74
I4
ssg75
g1202
sg68
(lp1209
S'ISO-8859-1,utf-8;q=0.7,*;q=0.3'
p1210
asbasbasbag61
(g77
g63
NtRp1211
(dp1212
g66
(dp1213
sg75
g1011
sg68
(lp1214
g61
(g82
g63
NtRp1215
(dp1216
g66
(dp1217
g86
g87
ssg75
g1211
sg68
(lp1218
S'http_accept_encoding'
p1219
asbag61
(g82
g63
NtRp1220
(dp1221
g66
(dp1222
g93
g94
ssg75
g1211
sg68
(lp1223
S':'
asbag61
(g82
g63
NtRp1224
(dp1225
g66
(dp1226
sg75
g1211
sg68
(lp1227
g61
(g62
g63
NtRp1228
(dp1229
g66
(dp1230
g74
I4
ssg75
g1224
sg68
(lp1231
S'gzip,deflate,sdch'
p1232
asbasbasbag61
(g77
g63
NtRp1233
(dp1234
g66
(dp1235
sg75
g1011
sg68
(lp1236
g61
(g82
g63
NtRp1237
(dp1238
g66
(dp1239
g86
g87
ssg75
g1233
sg68
(lp1240
S'http_accept_language'
p1241
asbag61
(g82
g63
NtRp1242
(dp1243
g66
(dp1244
g93
g94
ssg75
g1233
sg68
(lp1245
S':'
asbag61
(g82
g63
NtRp1246
(dp1247
g66
(dp1248
sg75
g1233
sg68
(lp1249
g61
(g62
g63
NtRp1250
(dp1251
g66
(dp1252
g74
I4
ssg75
g1246
sg68
(lp1253
S'en-US,en;q=0.8'
p1254
asbasbasbag61
(g77
g63
NtRp1255
(dp1256
g66
(dp1257
sg75
g1011
sg68
(lp1258
g61
(g82
g63
NtRp1259
(dp1260
g66
(dp1261
g86
g87
ssg75
g1255
sg68
(lp1262
S'http_connection'
p1263
asbag61
(g82
g63
NtRp1264
(dp1265
g66
(dp1266
g93
g94
ssg75
g1255
sg68
(lp1267
S':'
asbag61
(g82
g63
NtRp1268
(dp1269
g66
(dp1270
sg75
g1255
sg68
(lp1271
g61
(g62
g63
NtRp1272
(dp1273
g66
(dp1274
g74
I4
ssg75
g1268
sg68
(lp1275
S'keep-alive'
p1276
asbasbasbag61
(g77
g63
NtRp1277
(dp1278
g66
(dp1279
sg75
g1011
sg68
(lp1280
g61
(g82
g63
NtRp1281
(dp1282
g66
(dp1283
g86
g87
ssg75
g1277
sg68
(lp1284
S'http_cookie'
p1285
asbag61
(g82
g63
NtRp1286
(dp1287
g66
(dp1288
g93
g94
ssg75
g1277
sg68
(lp1289
S':'
asbag61
(g82
g63
NtRp1290
(dp1291
g66
(dp1292
sg75
g1277
sg68
(lp1293
g61
(g62
g63
NtRp1294
(dp1295
g66
(dp1296
g74
I4
ssg75
g1290
sg68
(lp1297
S'__utmz=123610009.1308848100.1.1.utmcsr=(direct)|utmccn=(direct)|utmcmd=(none); __utmz=231008458.1309612783.5.3.utmcsr=worldit.info|utmccn=(referral)|utmcmd=referral|utmcct=/articole/google-plus-primul-proiect-social-marca-google-de-la-a-la-z/; __utma=231008458.31146925.1301686846.1308821596.1309612783.5; session_id_raredisss_devel=89.123.39.111-1424e64b-97a3-428f-b161-fe75c30bbad9; session_id_raredisss_stable=89.123.39.111-b5474e3f-1e27-4a85-9029-f590c2fc56f7; __utma=123610009.1990170896.1308848100.1308848100.1309780245.2; __utmc=123610009; __utmb=123610009.2.10.1309780245; session_id_admin=89.123.39.111-ed9d9d9c-81f7-4a86-9bf9-fd597310a802; session_id_rdcdss=89.123.39.111-97c6888c-e310-48f9-83c5-3c554d897ae7'
p1298
asbasbasbag61
(g77
g63
NtRp1299
(dp1300
g66
(dp1301
sg75
g1011
sg68
(lp1302
g61
(g82
g63
NtRp1303
(dp1304
g66
(dp1305
g86
g87
ssg75
g1299
sg68
(lp1306
S'http_host'
p1307
asbag61
(g82
g63
NtRp1308
(dp1309
g66
(dp1310
g93
g94
ssg75
g1299
sg68
(lp1311
S':'
asbag61
(g82
g63
NtRp1312
(dp1313
g66
(dp1314
sg75
g1299
sg68
(lp1315
g61
(g62
g63
NtRp1316
(dp1317
g66
(dp1318
g74
I4
ssg75
g1312
sg68
(lp1319
S'costanza.dragusin.ro'
p1320
asbasbasbag61
(g77
g63
NtRp1321
(dp1322
g66
(dp1323
sg75
g1011
sg68
(lp1324
g61
(g82
g63
NtRp1325
(dp1326
g66
(dp1327
g86
g87
ssg75
g1321
sg68
(lp1328
S'http_referer'
p1329
asbag61
(g82
g63
NtRp1330
(dp1331
g66
(dp1332
g93
g94
ssg75
g1321
sg68
(lp1333
S':'
asbag61
(g82
g63
NtRp1334
(dp1335
g66
(dp1336
sg75
g1321
sg68
(lp1337
g61
(g62
g63
NtRp1338
(dp1339
g66
(dp1340
g74
I4
ssg75
g1334
sg68
(lp1341
S'https://costanza.dragusin.ro/rdcdss/default/index'
p1342
asbasbasbag61
(g77
g63
NtRp1343
(dp1344
g66
(dp1345
sg75
g1011
sg68
(lp1346
g61
(g82
g63
NtRp1347
(dp1348
g66
(dp1349
g86
g87
ssg75
g1343
sg68
(lp1350
S'http_user_agent'
p1351
asbag61
(g82
g63
NtRp1352
(dp1353
g66
(dp1354
g93
g94
ssg75
g1343
sg68
(lp1355
S':'
asbag61
(g82
g63
NtRp1356
(dp1357
g66
(dp1358
sg75
g1343
sg68
(lp1359
g61
(g62
g63
NtRp1360
(dp1361
g66
(dp1362
g74
I4
ssg75
g1356
sg68
(lp1363
S'Mozilla/5.0 (Macintosh; Intel Mac OS X 10_6_8) AppleWebKit/534.30 (KHTML, like Gecko) Chrome/12.0.742.112 Safari/534.30'
p1364
asbasbasbag61
(g77
g63
NtRp1365
(dp1366
g66
(dp1367
sg75
g1011
sg68
(lp1368
g61
(g82
g63
NtRp1369
(dp1370
g66
(dp1371
g86
g87
ssg75
g1365
sg68
(lp1372
S'https'
p1373
asbag61
(g82
g63
NtRp1374
(dp1375
g66
(dp1376
g93
g94
ssg75
g1365
sg68
(lp1377
S':'
asbag61
(g82
g63
NtRp1378
(dp1379
g66
(dp1380
sg75
g1365
sg68
(lp1381
g61
(g62
g63
NtRp1382
(dp1383
g66
(dp1384
g74
I4
ssg75
g1378
sg68
(lp1385
S'1'
asbasbasbag61
(g77
g63
NtRp1386
(dp1387
g66
(dp1388
sg75
g1011
sg68
(lp1389
g61
(g82
g63
NtRp1390
(dp1391
g66
(dp1392
g86
g87
ssg75
g1386
sg68
(lp1393
S'mod_wsgi_application_group'
p1394
asbag61
(g82
g63
NtRp1395
(dp1396
g66
(dp1397
g93
g94
ssg75
g1386
sg68
(lp1398
S':'
asbag61
(g82
g63
NtRp1399
(dp1400
g66
(dp1401
sg75
g1386
sg68
(lp1402
g61
(g62
g63
NtRp1403
(dp1404
g66
(dp1405
g74
I4
ssg75
g1399
sg68
(lp1406
S'109.169.46.204|'
p1407
asbasbasbag61
(g77
g63
NtRp1408
(dp1409
g66
(dp1410
sg75
g1011
sg68
(lp1411
g61
(g82
g63
NtRp1412
(dp1413
g66
(dp1414
g86
g87
ssg75
g1408
sg68
(lp1415
S'mod_wsgi_callable_object'
p1416
asbag61
(g82
g63
NtRp1417
(dp1418
g66
(dp1419
g93
g94
ssg75
g1408
sg68
(lp1420
S':'
asbag61
(g82
g63
NtRp1421
(dp1422
g66
(dp1423
sg75
g1408
sg68
(lp1424
g61
(g62
g63
NtRp1425
(dp1426
g66
(dp1427
g74
I4
ssg75
g1421
sg68
(lp1428
S'application'
p1429
asbasbasbag61
(g77
g63
NtRp1430
(dp1431
g66
(dp1432
sg75
g1011
sg68
(lp1433
g61
(g82
g63
NtRp1434
(dp1435
g66
(dp1436
g86
g87
ssg75
g1430
sg68
(lp1437
S'mod_wsgi_handler_script'
p1438
asbag61
(g82
g63
NtRp1439
(dp1440
g66
(dp1441
g93
g94
ssg75
g1430
sg68
(lp1442
S':'
asbag61
(g82
g63
NtRp1443
(dp1444
g66
(dp1445
sg75
g1430
sg68
(lp1446
g61
(g62
g63
NtRp1447
(dp1448
g66
(dp1449
g74
I4
ssg75
g1443
sg68
(lp1450
S''
asbasbasbag61
(g77
g63
NtRp1451
(dp1452
g66
(dp1453
sg75
g1011
sg68
(lp1454
g61
(g82
g63
NtRp1455
(dp1456
g66
(dp1457
g86
g87
ssg75
g1451
sg68
(lp1458
S'mod_wsgi_input_chunked'
p1459
asbag61
(g82
g63
NtRp1460
(dp1461
g66
(dp1462
g93
g94
ssg75
g1451
sg68
(lp1463
S':'
asbag61
(g82
g63
NtRp1464
(dp1465
g66
(dp1466
sg75
g1451
sg68
(lp1467
g61
(g62
g63
NtRp1468
(dp1469
g66
(dp1470
g74
I4
ssg75
g1464
sg68
(lp1471
S'0'
asbasbasbag61
(g77
g63
NtRp1472
(dp1473
g66
(dp1474
sg75
g1011
sg68
(lp1475
g61
(g82
g63
NtRp1476
(dp1477
g66
(dp1478
g86
g87
ssg75
g1472
sg68
(lp1479
S'mod_wsgi_listener_host'
p1480
asbag61
(g82
g63
NtRp1481
(dp1482
g66
(dp1483
g93
g94
ssg75
g1472
sg68
(lp1484
S':'
asbag61
(g82
g63
NtRp1485
(dp1486
g66
(dp1487
sg75
g1472
sg68
(lp1488
g61
(g62
g63
NtRp1489
(dp1490
g66
(dp1491
g74
I4
ssg75
g1485
sg68
(lp1492
S''
asbasbasbag61
(g77
g63
NtRp1493
(dp1494
g66
(dp1495
sg75
g1011
sg68
(lp1496
g61
(g82
g63
NtRp1497
(dp1498
g66
(dp1499
g86
g87
ssg75
g1493
sg68
(lp1500
S'mod_wsgi_listener_port'
p1501
asbag61
(g82
g63
NtRp1502
(dp1503
g66
(dp1504
g93
g94
ssg75
g1493
sg68
(lp1505
S':'
asbag61
(g82
g63
NtRp1506
(dp1507
g66
(dp1508
sg75
g1493
sg68
(lp1509
g61
(g62
g63
NtRp1510
(dp1511
g66
(dp1512
g74
I4
ssg75
g1506
sg68
(lp1513
S'443'
p1514
asbasbasbag61
(g77
g63
NtRp1515
(dp1516
g66
(dp1517
sg75
g1011
sg68
(lp1518
g61
(g82
g63
NtRp1519
(dp1520
g66
(dp1521
g86
g87
ssg75
g1515
sg68
(lp1522
S'mod_wsgi_process_group'
p1523
asbag61
(g82
g63
NtRp1524
(dp1525
g66
(dp1526
g93
g94
ssg75
g1515
sg68
(lp1527
S':'
asbag61
(g82
g63
NtRp1528
(dp1529
g66
(dp1530
sg75
g1515
sg68
(lp1531
g61
(g62
g63
NtRp1532
(dp1533
g66
(dp1534
g74
I4
ssg75
g1528
sg68
(lp1535
S'web2py'
p1536
asbasbasbag61
(g77
g63
NtRp1537
(dp1538
g66
(dp1539
sg75
g1011
sg68
(lp1540
g61
(g82
g63
NtRp1541
(dp1542
g66
(dp1543
g86
g87
ssg75
g1537
sg68
(lp1544
S'mod_wsgi_request_handler'
p1545
asbag61
(g82
g63
NtRp1546
(dp1547
g66
(dp1548
g93
g94
ssg75
g1537
sg68
(lp1549
S':'
asbag61
(g82
g63
NtRp1550
(dp1551
g66
(dp1552
sg75
g1537
sg68
(lp1553
g61
(g62
g63
NtRp1554
(dp1555
g66
(dp1556
g74
I4
ssg75
g1550
sg68
(lp1557
S'wsgi-script'
p1558
asbasbasbag61
(g77
g63
NtRp1559
(dp1560
g66
(dp1561
sg75
g1011
sg68
(lp1562
g61
(g82
g63
NtRp1563
(dp1564
g66
(dp1565
g86
g87
ssg75
g1559
sg68
(lp1566
S'mod_wsgi_script_reloading'
p1567
asbag61
(g82
g63
NtRp1568
(dp1569
g66
(dp1570
g93
g94
ssg75
g1559
sg68
(lp1571
S':'
asbag61
(g82
g63
NtRp1572
(dp1573
g66
(dp1574
sg75
g1559
sg68
(lp1575
g61
(g62
g63
NtRp1576
(dp1577
g66
(dp1578
g74
I4
ssg75
g1572
sg68
(lp1579
S'1'
asbasbasbag61
(g77
g63
NtRp1580
(dp1581
g66
(dp1582
sg75
g1011
sg68
(lp1583
g61
(g82
g63
NtRp1584
(dp1585
g66
(dp1586
g86
g87
ssg75
g1580
sg68
(lp1587
S'mod_wsgi_version'
p1588
asbag61
(g82
g63
NtRp1589
(dp1590
g66
(dp1591
g93
g94
ssg75
g1580
sg68
(lp1592
S':'
asbag61
(g82
g63
NtRp1593
(dp1594
g66
(dp1595
sg75
g1580
sg68
(lp1596
g61
(g62
g63
NtRp1597
(dp1598
g66
(dp1599
g74
I4
ssg75
g1593
sg68
(lp1600
g61
(g70
g63
NtRp1601
(dp1602
g66
(dp1603
g74
I3
ssg75
Nsg68
(lp1604
g61
(g77
g63
NtRp1605
(dp1606
g66
(dp1607
sg75
g1601
sg68
(lp1608
g61
(g82
g63
NtRp1609
(dp1610
g66
(dp1611
sg75
g1605
sg68
(lp1612
g61
(g62
g63
NtRp1613
(dp1614
g66
(dp1615
g74
I3
ssg75
g1609
sg68
(lp1616
S'3'
asbasbasbag61
(g77
g63
NtRp1617
(dp1618
g66
(dp1619
sg75
g1601
sg68
(lp1620
g61
(g82
g63
NtRp1621
(dp1622
g66
(dp1623
sg75
g1617
sg68
(lp1624
g61
(g62
g63
NtRp1625
(dp1626
g66
(dp1627
g74
I3
ssg75
g1621
sg68
(lp1628
S'2'
asbasbasbasbasbasbasbag61
(g77
g63
NtRp1629
(dp1630
g66
(dp1631
sg75
g1011
sg68
(lp1632
g61
(g82
g63
NtRp1633
(dp1634
g66
(dp1635
g86
g87
ssg75
g1629
sg68
(lp1636
S'path_info'
p1637
asbag61
(g82
g63
NtRp1638
(dp1639
g66
(dp1640
g93
g94
ssg75
g1629
sg68
(lp1641
S':'
asbag61
(g82
g63
NtRp1642
(dp1643
g66
(dp1644
sg75
g1629
sg68
(lp1645
g61
(g62
g63
NtRp1646
(dp1647
g66
(dp1648
g74
I4
ssg75
g1642
sg68
(lp1649
S'/rdcdss/default/index'
p1650
asbasbasbag61
(g77
g63
NtRp1651
(dp1652
g66
(dp1653
sg75
g1011
sg68
(lp1654
g61
(g82
g63
NtRp1655
(dp1656
g66
(dp1657
g86
g87
ssg75
g1651
sg68
(lp1658
S'path_translated'
p1659
asbag61
(g82
g63
NtRp1660
(dp1661
g66
(dp1662
g93
g94
ssg75
g1651
sg68
(lp1663
S':'
asbag61
(g82
g63
NtRp1664
(dp1665
g66
(dp1666
sg75
g1651
sg68
(lp1667
g61
(g62
g63
NtRp1668
(dp1669
g66
(dp1670
g74
I4
ssg75
g1664
sg68
(lp1671
S'/home/www-data/web2py/wsgihandler.py/rdcdss/default/index'
p1672
asbasbasbag61
(g77
g63
NtRp1673
(dp1674
g66
(dp1675
sg75
g1011
sg68
(lp1676
g61
(g82
g63
NtRp1677
(dp1678
g66
(dp1679
g86
g87
ssg75
g1673
sg68
(lp1680
S'query_string'
p1681
asbag61
(g82
g63
NtRp1682
(dp1683
g66
(dp1684
g93
g94
ssg75
g1673
sg68
(lp1685
S':'
asbag61
(g82
g63
NtRp1686
(dp1687
g66
(dp1688
sg75
g1673
sg68
(lp1689
g61
(g62
g63
NtRp1690
(dp1691
g66
(dp1692
g74
I4
ssg75
g1686
sg68
(lp1693
S'q=anemia'
p1694
asbasbasbag61
(g77
g63
NtRp1695
(dp1696
g66
(dp1697
sg75
g1011
sg68
(lp1698
g61
(g82
g63
NtRp1699
(dp1700
g66
(dp1701
g86
g87
ssg75
g1695
sg68
(lp1702
S'remote_addr'
p1703
asbag61
(g82
g63
NtRp1704
(dp1705
g66
(dp1706
g93
g94
ssg75
g1695
sg68
(lp1707
S':'
asbag61
(g82
g63
NtRp1708
(dp1709
g66
(dp1710
sg75
g1695
sg68
(lp1711
g61
(g62
g63
NtRp1712
(dp1713
g66
(dp1714
g74
I4
ssg75
g1708
sg68
(lp1715
g194
asbasbasbag61
(g77
g63
NtRp1716
(dp1717
g66
(dp1718
sg75
g1011
sg68
(lp1719
g61
(g82
g63
NtRp1720
(dp1721
g66
(dp1722
g86
g87
ssg75
g1716
sg68
(lp1723
S'remote_port'
p1724
asbag61
(g82
g63
NtRp1725
(dp1726
g66
(dp1727
g93
g94
ssg75
g1716
sg68
(lp1728
S':'
asbag61
(g82
g63
NtRp1729
(dp1730
g66
(dp1731
sg75
g1716
sg68
(lp1732
g61
(g62
g63
NtRp1733
(dp1734
g66
(dp1735
g74
I4
ssg75
g1729
sg68
(lp1736
S'63661'
p1737
asbasbasbag61
(g77
g63
NtRp1738
(dp1739
g66
(dp1740
sg75
g1011
sg68
(lp1741
g61
(g82
g63
NtRp1742
(dp1743
g66
(dp1744
g86
g87
ssg75
g1738
sg68
(lp1745
S'request_method'
p1746
asbag61
(g82
g63
NtRp1747
(dp1748
g66
(dp1749
g93
g94
ssg75
g1738
sg68
(lp1750
S':'
asbag61
(g82
g63
NtRp1751
(dp1752
g66
(dp1753
sg75
g1738
sg68
(lp1754
g61
(g62
g63
NtRp1755
(dp1756
g66
(dp1757
g74
I4
ssg75
g1751
sg68
(lp1758
S'GET'
p1759
asbasbasbag61
(g77
g63
NtRp1760
(dp1761
g66
(dp1762
sg75
g1011
sg68
(lp1763
g61
(g82
g63
NtRp1764
(dp1765
g66
(dp1766
g86
g87
ssg75
g1760
sg68
(lp1767
S'request_uri'
p1768
asbag61
(g82
g63
NtRp1769
(dp1770
g66
(dp1771
g93
g94
ssg75
g1760
sg68
(lp1772
S':'
asbag61
(g82
g63
NtRp1773
(dp1774
g66
(dp1775
sg75
g1760
sg68
(lp1776
g61
(g62
g63
NtRp1777
(dp1778
g66
(dp1779
g74
I4
ssg75
g1773
sg68
(lp1780
S'/rdcdss/default/index?q=anemia'
p1781
asbasbasbag61
(g77
g63
NtRp1782
(dp1783
g66
(dp1784
sg75
g1011
sg68
(lp1785
g61
(g82
g63
NtRp1786
(dp1787
g66
(dp1788
g86
g87
ssg75
g1782
sg68
(lp1789
S'script_filename'
p1790
asbag61
(g82
g63
NtRp1791
(dp1792
g66
(dp1793
g93
g94
ssg75
g1782
sg68
(lp1794
S':'
asbag61
(g82
g63
NtRp1795
(dp1796
g66
(dp1797
sg75
g1782
sg68
(lp1798
g61
(g62
g63
NtRp1799
(dp1800
g66
(dp1801
g74
I4
ssg75
g1795
sg68
(lp1802
S'/home/www-data/web2py/wsgihandler.py'
p1803
asbasbasbag61
(g77
g63
NtRp1804
(dp1805
g66
(dp1806
sg75
g1011
sg68
(lp1807
g61
(g82
g63
NtRp1808
(dp1809
g66
(dp1810
g86
g87
ssg75
g1804
sg68
(lp1811
S'script_name'
p1812
asbag61
(g82
g63
NtRp1813
(dp1814
g66
(dp1815
g93
g94
ssg75
g1804
sg68
(lp1816
S':'
asbag61
(g82
g63
NtRp1817
(dp1818
g66
(dp1819
sg75
g1804
sg68
(lp1820
g61
(g62
g63
NtRp1821
(dp1822
g66
(dp1823
g74
I4
ssg75
g1817
sg68
(lp1824
S''
asbasbasbag61
(g77
g63
NtRp1825
(dp1826
g66
(dp1827
sg75
g1011
sg68
(lp1828
g61
(g82
g63
NtRp1829
(dp1830
g66
(dp1831
g86
g87
ssg75
g1825
sg68
(lp1832
S'server_addr'
p1833
asbag61
(g82
g63
NtRp1834
(dp1835
g66
(dp1836
g93
g94
ssg75
g1825
sg68
(lp1837
S':'
asbag61
(g82
g63
NtRp1838
(dp1839
g66
(dp1840
sg75
g1825
sg68
(lp1841
g61
(g62
g63
NtRp1842
(dp1843
g66
(dp1844
g74
I4
ssg75
g1838
sg68
(lp1845
S'109.169.46.204'
p1846
asbasbasbag61
(g77
g63
NtRp1847
(dp1848
g66
(dp1849
sg75
g1011
sg68
(lp1850
g61
(g82
g63
NtRp1851
(dp1852
g66
(dp1853
g86
g87
ssg75
g1847
sg68
(lp1854
S'server_admin'
p1855
asbag61
(g82
g63
NtRp1856
(dp1857
g66
(dp1858
g93
g94
ssg75
g1847
sg68
(lp1859
S':'
asbag61
(g82
g63
NtRp1860
(dp1861
g66
(dp1862
sg75
g1847
sg68
(lp1863
g61
(g62
g63
NtRp1864
(dp1865
g66
(dp1866
g74
I4
ssg75
g1860
sg68
(lp1867
S'[no address given]'
p1868
asbasbasbag61
(g77
g63
NtRp1869
(dp1870
g66
(dp1871
sg75
g1011
sg68
(lp1872
g61
(g82
g63
NtRp1873
(dp1874
g66
(dp1875
g86
g87
ssg75
g1869
sg68
(lp1876
S'server_name'
p1877
asbag61
(g82
g63
NtRp1878
(dp1879
g66
(dp1880
g93
g94
ssg75
g1869
sg68
(lp1881
S':'
asbag61
(g82
g63
NtRp1882
(dp1883
g66
(dp1884
sg75
g1869
sg68
(lp1885
g61
(g62
g63
NtRp1886
(dp1887
g66
(dp1888
g74
I4
ssg75
g1882
sg68
(lp1889
S'costanza.dragusin.ro'
p1890
asbasbasbag61
(g77
g63
NtRp1891
(dp1892
g66
(dp1893
sg75
g1011
sg68
(lp1894
g61
(g82
g63
NtRp1895
(dp1896
g66
(dp1897
g86
g87
ssg75
g1891
sg68
(lp1898
S'server_port'
p1899
asbag61
(g82
g63
NtRp1900
(dp1901
g66
(dp1902
g93
g94
ssg75
g1891
sg68
(lp1903
S':'
asbag61
(g82
g63
NtRp1904
(dp1905
g66
(dp1906
sg75
g1891
sg68
(lp1907
g61
(g62
g63
NtRp1908
(dp1909
g66
(dp1910
g74
I4
ssg75
g1904
sg68
(lp1911
S'443'
p1912
asbasbasbag61
(g77
g63
NtRp1913
(dp1914
g66
(dp1915
sg75
g1011
sg68
(lp1916
g61
(g82
g63
NtRp1917
(dp1918
g66
(dp1919
g86
g87
ssg75
g1913
sg68
(lp1920
S'server_protocol'
p1921
asbag61
(g82
g63
NtRp1922
(dp1923
g66
(dp1924
g93
g94
ssg75
g1913
sg68
(lp1925
S':'
asbag61
(g82
g63
NtRp1926
(dp1927
g66
(dp1928
sg75
g1913
sg68
(lp1929
g61
(g62
g63
NtRp1930
(dp1931
g66
(dp1932
g74
I4
ssg75
g1926
sg68
(lp1933
S'HTTP/1.1'
p1934
asbasbasbag61
(g77
g63
NtRp1935
(dp1936
g66
(dp1937
sg75
g1011
sg68
(lp1938
g61
(g82
g63
NtRp1939
(dp1940
g66
(dp1941
g86
g87
ssg75
g1935
sg68
(lp1942
S'server_signature'
p1943
asbag61
(g82
g63
NtRp1944
(dp1945
g66
(dp1946
g93
g94
ssg75
g1935
sg68
(lp1947
S':'
asbag61
(g82
g63
NtRp1948
(dp1949
g66
(dp1950
sg75
g1935
sg68
(lp1951
g61
(g62
g63
NtRp1952
(dp1953
g66
(dp1954
g74
I4
ssg75
g1948
sg68
(lp1955
S'<address>Apache/2.2.16 (Ubuntu) Server at costanza.dragusin.ro Port 443</address>\n'
p1956
asbasbasbag61
(g77
g63
NtRp1957
(dp1958
g66
(dp1959
sg75
g1011
sg68
(lp1960
g61
(g82
g63
NtRp1961
(dp1962
g66
(dp1963
g86
g87
ssg75
g1957
sg68
(lp1964
S'server_software'
p1965
asbag61
(g82
g63
NtRp1966
(dp1967
g66
(dp1968
g93
g94
ssg75
g1957
sg68
(lp1969
S':'
asbag61
(g82
g63
NtRp1970
(dp1971
g66
(dp1972
sg75
g1957
sg68
(lp1973
g61
(g62
g63
NtRp1974
(dp1975
g66
(dp1976
g74
I4
ssg75
g1970
sg68
(lp1977
S'Apache/2.2.16 (Ubuntu)'
p1978
asbasbasbag61
(g77
g63
NtRp1979
(dp1980
g66
(dp1981
sg75
g1011
sg68
(lp1982
g61
(g82
g63
NtRp1983
(dp1984
g66
(dp1985
g86
g87
ssg75
g1979
sg68
(lp1986
S'ssl_tls_sni'
p1987
asbag61
(g82
g63
NtRp1988
(dp1989
g66
(dp1990
g93
g94
ssg75
g1979
sg68
(lp1991
S':'
asbag61
(g82
g63
NtRp1992
(dp1993
g66
(dp1994
sg75
g1979
sg68
(lp1995
g61
(g62
g63
NtRp1996
(dp1997
g66
(dp1998
g74
I4
ssg75
g1992
sg68
(lp1999
S'costanza.dragusin.ro'
p2000
asbasbasbag61
(g77
g63
NtRp2001
(dp2002
g66
(dp2003
sg75
g1011
sg68
(lp2004
g61
(g82
g63
NtRp2005
(dp2006
g66
(dp2007
g86
g87
ssg75
g2001
sg68
(lp2008
S'web2py_path'
p2009
asbag61
(g82
g63
NtRp2010
(dp2011
g66
(dp2012
g93
g94
ssg75
g2001
sg68
(lp2013
S':'
asbag61
(g82
g63
NtRp2014
(dp2015
g66
(dp2016
sg75
g2001
sg68
(lp2017
g61
(g62
g63
NtRp2018
(dp2019
g66
(dp2020
g74
I4
ssg75
g2014
sg68
(lp2021
g1058
asbasbasbag61
(g77
g63
NtRp2022
(dp2023
g66
(dp2024
sg75
g1011
sg68
(lp2025
g61
(g82
g63
NtRp2026
(dp2027
g66
(dp2028
g86
g87
ssg75
g2022
sg68
(lp2029
S'web2py_version'
p2030
asbag61
(g82
g63
NtRp2031
(dp2032
g66
(dp2033
g93
g94
ssg75
g2022
sg68
(lp2034
S':'
asbag61
(g82
g63
NtRp2035
(dp2036
g66
(dp2037
sg75
g2022
sg68
(lp2038
g61
(g62
g63
NtRp2039
(dp2040
g66
(dp2041
g74
I4
ssg75
g2035
sg68
(lp2042
S'Version 1.95.1 (2011-04-25 15:04:14)\n'
p2043
asbasbasbag61
(g77
g63
NtRp2044
(dp2045
g66
(dp2046
sg75
g1011
sg68
(lp2047
g61
(g82
g63
NtRp2048
(dp2049
g66
(dp2050
g86
g87
ssg75
g2044
sg68
(lp2051
S'wsgi_errors'
p2052
asbag61
(g82
g63
NtRp2053
(dp2054
g66
(dp2055
g93
g94
ssg75
g2044
sg68
(lp2056
S':'
asbag61
(g82
g63
NtRp2057
(dp2058
g66
(dp2059
sg75
g2044
sg68
(lp2060
g61
(g62
g63
NtRp2061
(dp2062
g66
(dp2063
g74
I4
ssg75
g2057
sg68
(lp2064
S'<mod_wsgi.Log object at 0x2b50c01a78f0>'
p2065
asbasbasbag61
(g77
g63
NtRp2066
(dp2067
g66
(dp2068
sg75
g1011
sg68
(lp2069
g61
(g82
g63
NtRp2070
(dp2071
g66
(dp2072
g86
g87
ssg75
g2066
sg68
(lp2073
S'wsgi_file_wrapper'
p2074
asbag61
(g82
g63
NtRp2075
(dp2076
g66
(dp2077
g93
g94
ssg75
g2066
sg68
(lp2078
S':'
asbag61
(g82
g63
NtRp2079
(dp2080
g66
(dp2081
sg75
g2066
sg68
(lp2082
g61
(g62
g63
NtRp2083
(dp2084
g66
(dp2085
g74
I4
ssg75
g2079
sg68
(lp2086
S'<built-in method file_wrapper of mod_wsgi.Adapter object at 0x2b50c0195d50>'
p2087
asbasbasbag61
(g77
g63
NtRp2088
(dp2089
g66
(dp2090
sg75
g1011
sg68
(lp2091
g61
(g82
g63
NtRp2092
(dp2093
g66
(dp2094
g86
g87
ssg75
g2088
sg68
(lp2095
S'wsgi_input'
p2096
asbag61
(g82
g63
NtRp2097
(dp2098
g66
(dp2099
g93
g94
ssg75
g2088
sg68
(lp2100
S':'
asbag61
(g82
g63
NtRp2101
(dp2102
g66
(dp2103
sg75
g2088
sg68
(lp2104
g61
(g62
g63
NtRp2105
(dp2106
g66
(dp2107
g74
I4
ssg75
g2101
sg68
(lp2108
S'<mod_wsgi.Input object at 0x2b50c01ae330>'
p2109
asbasbasbag61
(g77
g63
NtRp2110
(dp2111
g66
(dp2112
sg75
g1011
sg68
(lp2113
g61
(g82
g63
NtRp2114
(dp2115
g66
(dp2116
g86
g87
ssg75
g2110
sg68
(lp2117
S'wsgi_multiprocess'
p2118
asbag61
(g82
g63
NtRp2119
(dp2120
g66
(dp2121
g93
g94
ssg75
g2110
sg68
(lp2122
S':'
asbag61
(g82
g63
NtRp2123
(dp2124
g66
(dp2125
sg75
g2110
sg68
(lp2126
g61
(g62
g63
NtRp2127
(dp2128
g66
(dp2129
g74
I4
ssg75
g2123
sg68
(lp2130
g104
asbasbasbag61
(g77
g63
NtRp2131
(dp2132
g66
(dp2133
sg75
g1011
sg68
(lp2134
g61
(g82
g63
NtRp2135
(dp2136
g66
(dp2137
g86
g87
ssg75
g2131
sg68
(lp2138
S'wsgi_multithread'
p2139
asbag61
(g82
g63
NtRp2140
(dp2141
g66
(dp2142
g93
g94
ssg75
g2131
sg68
(lp2143
S':'
asbag61
(g82
g63
NtRp2144
(dp2145
g66
(dp2146
sg75
g2131
sg68
(lp2147
g61
(g62
g63
NtRp2148
(dp2149
g66
(dp2150
g74
I4
ssg75
g2144
sg68
(lp2151
S'True'
p2152
asbasbasbag61
(g77
g63
NtRp2153
(dp2154
g66
(dp2155
sg75
g1011
sg68
(lp2156
g61
(g82
g63
NtRp2157
(dp2158
g66
(dp2159
g86
g87
ssg75
g2153
sg68
(lp2160
S'wsgi_run_once'
p2161
asbag61
(g82
g63
NtRp2162
(dp2163
g66
(dp2164
g93
g94
ssg75
g2153
sg68
(lp2165
S':'
asbag61
(g82
g63
NtRp2166
(dp2167
g66
(dp2168
sg75
g2153
sg68
(lp2169
g61
(g62
g63
NtRp2170
(dp2171
g66
(dp2172
g74
I4
ssg75
g2166
sg68
(lp2173
g104
asbasbasbag61
(g77
g63
NtRp2174
(dp2175
g66
(dp2176
sg75
g1011
sg68
(lp2177
g61
(g82
g63
NtRp2178
(dp2179
g66
(dp2180
g86
g87
ssg75
g2174
sg68
(lp2181
S'wsgi_url_scheme'
p2182
asbag61
(g82
g63
NtRp2183
(dp2184
g66
(dp2185
g93
g94
ssg75
g2174
sg68
(lp2186
S':'
asbag61
(g82
g63
NtRp2187
(dp2188
g66
(dp2189
sg75
g2174
sg68
(lp2190
g61
(g62
g63
NtRp2191
(dp2192
g66
(dp2193
g74
I4
ssg75
g2187
sg68
(lp2194
S'https'
p2195
asbasbasbag61
(g77
g63
NtRp2196
(dp2197
g66
(dp2198
sg75
g1011
sg68
(lp2199
g61
(g82
g63
NtRp2200
(dp2201
g66
(dp2202
g86
g87
ssg75
g2196
sg68
(lp2203
S'wsgi_version'
p2204
asbag61
(g82
g63
NtRp2205
(dp2206
g66
(dp2207
g93
g94
ssg75
g2196
sg68
(lp2208
S':'
asbag61
(g82
g63
NtRp2209
(dp2210
g66
(dp2211
sg75
g2196
sg68
(lp2212
g61
(g62
g63
NtRp2213
(dp2214
g66
(dp2215
g74
I4
ssg75
g2209
sg68
(lp2216
g61
(g70
g63
NtRp2217
(dp2218
g66
(dp2219
g74
I3
ssg75
Nsg68
(lp2220
g61
(g77
g63
NtRp2221
(dp2222
g66
(dp2223
sg75
g2217
sg68
(lp2224
g61
(g82
g63
NtRp2225
(dp2226
g66
(dp2227
sg75
g2221
sg68
(lp2228
g61
(g62
g63
NtRp2229
(dp2230
g66
(dp2231
g74
I3
ssg75
g2225
sg68
(lp2232
S'1'
asbasbasbag61
(g77
g63
NtRp2233
(dp2234
g66
(dp2235
sg75
g2217
sg68
(lp2236
g61
(g82
g63
NtRp2237
(dp2238
g66
(dp2239
sg75
g2233
sg68
(lp2240
g61
(g62
g63
NtRp2241
(dp2242
g66
(dp2243
g74
I3
ssg75
g2237
sg68
(lp2244
S'1'
asbasbasbasbasbasbasbasbasbasbasbag61
(g77
g63
NtRp2245
(dp2246
g66
(dp2247
sg75
g71
sg68
(lp2248
g61
(g82
g63
NtRp2249
(dp2250
g66
(dp2251
g86
g87
ssg75
g2245
sg68
(lp2252
S'extension'
p2253
asbag61
(g82
g63
NtRp2254
(dp2255
g66
(dp2256
g93
g94
ssg75
g2245
sg68
(lp2257
S':'
asbag61
(g82
g63
NtRp2258
(dp2259
g66
(dp2260
sg75
g2245
sg68
(lp2261
g61
(g62
g63
NtRp2262
(dp2263
g66
(dp2264
g74
I5
ssg75
g2258
sg68
(lp2265
S'html'
p2266
asbasbasbag61
(g77
g63
NtRp2267
(dp2268
g66
(dp2269
sg75
g71
sg68
(lp2270
g61
(g82
g63
NtRp2271
(dp2272
g66
(dp2273
g86
g87
ssg75
g2267
sg68
(lp2274
S'folder'
p2275
asbag61
(g82
g63
NtRp2276
(dp2277
g66
(dp2278
g93
g94
ssg75
g2267
sg68
(lp2279
S':'
asbag61
(g82
g63
NtRp2280
(dp2281
g66
(dp2282
sg75
g2267
sg68
(lp2283
g61
(g62
g63
NtRp2284
(dp2285
g66
(dp2286
g74
I5
ssg75
g2280
sg68
(lp2287
S'/home/www-data/web2py/applications/rdcdss/'
p2288
asbasbasbag61
(g77
g63
NtRp2289
(dp2290
g66
(dp2291
sg75
g71
sg68
(lp2292
g61
(g82
g63
NtRp2293
(dp2294
g66
(dp2295
g86
g87
ssg75
g2289
sg68
(lp2296
S'function'
p2297
asbag61
(g82
g63
NtRp2298
(dp2299
g66
(dp2300
g93
g94
ssg75
g2289
sg68
(lp2301
S':'
asbag61
(g82
g63
NtRp2302
(dp2303
g66
(dp2304
sg75
g2289
sg68
(lp2305
g61
(g62
g63
NtRp2306
(dp2307
g66
(dp2308
g74
I5
ssg75
g2302
sg68
(lp2309
S'index'
p2310
asbasbasbag61
(g77
g63
NtRp2311
(dp2312
g66
(dp2313
sg75
g71
sg68
(lp2314
g61
(g82
g63
NtRp2315
(dp2316
g66
(dp2317
g86
g87
ssg75
g2311
sg68
(lp2318
S'get_vars'
p2319
asbag61
(g82
g63
NtRp2320
(dp2321
g66
(dp2322
g93
g94
ssg75
g2311
sg68
(lp2323
S':'
asbag61
(g82
g63
NtRp2324
(dp2325
g66
(dp2326
sg75
g2311
sg68
(lp2327
g61
(g62
g63
NtRp2328
(dp2329
g66
(dp2330
g74
I5
ssg75
g2324
sg68
(lp2331
g61
(g70
g63
NtRp2332
(dp2333
g66
(dp2334
g74
I4
ssg75
Nsg68
(lp2335
g61
(g77
g63
NtRp2336
(dp2337
g66
(dp2338
sg75
g2332
sg68
(lp2339
g61
(g82
g63
NtRp2340
(dp2341
g66
(dp2342
g86
g87
ssg75
g2336
sg68
(lp2343
S'q'
asbag61
(g82
g63
NtRp2344
(dp2345
g66
(dp2346
g93
g94
ssg75
g2336
sg68
(lp2347
S':'
asbag61
(g82
g63
NtRp2348
(dp2349
g66
(dp2350
sg75
g2336
sg68
(lp2351
g61
(g62
g63
NtRp2352
(dp2353
g66
(dp2354
g74
I4
ssg75
g2348
sg68
(lp2355
S'anemia'
p2356
asbasbasbasbasbasbasbag61
(g77
g63
NtRp2357
(dp2358
g66
(dp2359
sg75
g71
sg68
(lp2360
g61
(g82
g63
NtRp2361
(dp2362
g66
(dp2363
g86
g87
ssg75
g2357
sg68
(lp2364
S'is_restful'
p2365
asbag61
(g82
g63
NtRp2366
(dp2367
g66
(dp2368
g93
g94
ssg75
g2357
sg68
(lp2369
S':'
asbag61
(g82
g63
NtRp2370
(dp2371
g66
(dp2372
sg75
g2357
sg68
(lp2373
g61
(g62
g63
NtRp2374
(dp2375
g66
(dp2376
g74
I5
ssg75
g2370
sg68
(lp2377
g104
asbasbasbag61
(g77
g63
NtRp2378
(dp2379
g66
(dp2380
sg75
g71
sg68
(lp2381
g61
(g82
g63
NtRp2382
(dp2383
g66
(dp2384
g86
g87
ssg75
g2378
sg68
(lp2385
S'now'
p2386
asbag61
(g82
g63
NtRp2387
(dp2388
g66
(dp2389
g93
g94
ssg75
g2378
sg68
(lp2390
S':'
asbag61
(g82
g63
NtRp2391
(dp2392
g66
(dp2393
sg75
g2378
sg68
(lp2394
g61
(g62
g63
NtRp2395
(dp2396
g66
(dp2397
g74
I5
ssg75
g2391
sg68
(lp2398
S'datetime.datetime(2011, 7, 4, 15, 57, 1, 868206)'
p2399
asbasbasbag61
(g77
g63
NtRp2400
(dp2401
g66
(dp2402
sg75
g71
sg68
(lp2403
g61
(g82
g63
NtRp2404
(dp2405
g66
(dp2406
g86
g87
ssg75
g2400
sg68
(lp2407
S'post_vars'
p2408
asbag61
(g82
g63
NtRp2409
(dp2410
g66
(dp2411
g93
g94
ssg75
g2400
sg68
(lp2412
S':'
asbag61
(g82
g63
NtRp2413
(dp2414
g66
(dp2415
sg75
g2400
sg68
(lp2416
g61
(g62
g63
NtRp2417
(dp2418
g66
(dp2419
g74
I5
ssg75
g2413
sg68
(lp2420
g61
(g70
g63
NtRp2421
(dp2422
g66
(dp2423
g74
I4
ssg75
Nsg68
(lp2424
sbasbasbasbag61
(g77
g63
NtRp2425
(dp2426
g66
(dp2427
sg75
g71
sg68
(lp2428
g61
(g82
g63
NtRp2429
(dp2430
g66
(dp2431
g86
g87
ssg75
g2425
sg68
(lp2432
S'url'
p2433
asbag61
(g82
g63
NtRp2434
(dp2435
g66
(dp2436
g93
g94
ssg75
g2425
sg68
(lp2437
S':'
asbag61
(g82
g63
NtRp2438
(dp2439
g66
(dp2440
sg75
g2425
sg68
(lp2441
g61
(g62
g63
NtRp2442
(dp2443
g66
(dp2444
g74
I5
ssg75
g2438
sg68
(lp2445
S'/rdcdss/default/index'
p2446
asbasbasbag61
(g77
g63
NtRp2447
(dp2448
g66
(dp2449
sg75
g71
sg68
(lp2450
g61
(g82
g63
NtRp2451
(dp2452
g66
(dp2453
g86
g87
ssg75
g2447
sg68
(lp2454
S'uuid'
p2455
asbag61
(g82
g63
NtRp2456
(dp2457
g66
(dp2458
g93
g94
ssg75
g2447
sg68
(lp2459
S':'
asbag61
(g82
g63
NtRp2460
(dp2461
g66
(dp2462
sg75
g2447
sg68
(lp2463
g61
(g62
g63
NtRp2464
(dp2465
g66
(dp2466
g74
I5
ssg75
g2460
sg68
(lp2467
S'rdcdss/89.123.39.111.2011-07-04.15-57-01.2e53ccb3-a091-4353-937d-e5f01dd9ae9f'
p2468
asbasbasbag61
(g77
g63
NtRp2469
(dp2470
g66
(dp2471
sg75
g71
sg68
(lp2472
g61
(g82
g63
NtRp2473
(dp2474
g66
(dp2475
g86
g87
ssg75
g2469
sg68
(lp2476
S'vars'
p2477
asbag61
(g82
g63
NtRp2478
(dp2479
g66
(dp2480
g93
g94
ssg75
g2469
sg68
(lp2481
S':'
asbag61
(g82
g63
NtRp2482
(dp2483
g66
(dp2484
sg75
g2469
sg68
(lp2485
g61
(g62
g63
NtRp2486
(dp2487
g66
(dp2488
g74
I5
ssg75
g2482
sg68
(lp2489
g61
(g70
g63
NtRp2490
(dp2491
g66
(dp2492
g74
I4
ssg75
Nsg68
(lp2493
g61
(g77
g63
NtRp2494
(dp2495
g66
(dp2496
sg75
g2490
sg68
(lp2497
g61
(g82
g63
NtRp2498
(dp2499
g66
(dp2500
g86
g87
ssg75
g2494
sg68
(lp2501
S'q'
asbag61
(g82
g63
NtRp2502
(dp2503
g66
(dp2504
g93
g94
ssg75
g2494
sg68
(lp2505
S':'
asbag61
(g82
g63
NtRp2506
(dp2507
g66
(dp2508
sg75
g2494
sg68
(lp2509
g61
(g62
g63
NtRp2510
(dp2511
g66
(dp2512
g74
I4
ssg75
g2506
sg68
(lp2513
g2356
asbasbasbasbasbasbasbag61
(g77
g63
NtRp2514
(dp2515
g66
(dp2516
sg75
g71
sg68
(lp2517
g61
(g82
g63
NtRp2518
(dp2519
g66
(dp2520
g86
g87
ssg75
g2514
sg68
(lp2521
S'wsgi'
p2522
asbag61
(g82
g63
NtRp2523
(dp2524
g66
(dp2525
g93
g94
ssg75
g2514
sg68
(lp2526
S':'
asbag61
(g82
g63
NtRp2527
(dp2528
g66
(dp2529
sg75
g2514
sg68
(lp2530
g61
(g62
g63
NtRp2531
(dp2532
g66
(dp2533
g74
I5
ssg75
g2527
sg68
(lp2534
g61
(g70
g63
NtRp2535
(dp2536
g66
(dp2537
g74
I4
ssg75
Nsg68
(lp2538
g61
(g77
g63
NtRp2539
(dp2540
g66
(dp2541
sg75
g2535
sg68
(lp2542
g61
(g82
g63
NtRp2543
(dp2544
g66
(dp2545
g86
g87
ssg75
g2539
sg68
(lp2546
S'environ'
p2547
asbag61
(g82
g63
NtRp2548
(dp2549
g66
(dp2550
g93
g94
ssg75
g2539
sg68
(lp2551
S':'
asbag61
(g82
g63
NtRp2552
(dp2553
g66
(dp2554
sg75
g2539
sg68
(lp2555
g61
(g62
g63
NtRp2556
(dp2557
g66
(dp2558
g74
I4
ssg75
g2552
sg68
(lp2559
g61
(g70
g63
NtRp2560
(dp2561
g66
(dp2562
g74
I3
ssg75
Nsg68
(lp2563
g61
(g77
g63
NtRp2564
(dp2565
g66
(dp2566
sg75
g2560
sg68
(lp2567
g61
(g82
g63
NtRp2568
(dp2569
g66
(dp2570
g86
g87
ssg75
g2564
sg68
(lp2571
S'DOCUMENT_ROOT'
p2572
asbag61
(g82
g63
NtRp2573
(dp2574
g66
(dp2575
g93
g94
ssg75
g2564
sg68
(lp2576
S':'
asbag61
(g82
g63
NtRp2577
(dp2578
g66
(dp2579
sg75
g2564
sg68
(lp2580
g61
(g62
g63
NtRp2581
(dp2582
g66
(dp2583
g74
I3
ssg75
g2577
sg68
(lp2584
g1123
asbasbasbag61
(g77
g63
NtRp2585
(dp2586
g66
(dp2587
sg75
g2560
sg68
(lp2588
g61
(g82
g63
NtRp2589
(dp2590
g66
(dp2591
g86
g87
ssg75
g2585
sg68
(lp2592
S'GATEWAY_INTERFACE'
p2593
asbag61
(g82
g63
NtRp2594
(dp2595
g66
(dp2596
g93
g94
ssg75
g2585
sg68
(lp2597
S':'
asbag61
(g82
g63
NtRp2598
(dp2599
g66
(dp2600
sg75
g2585
sg68
(lp2601
g61
(g62
g63
NtRp2602
(dp2603
g66
(dp2604
g74
I3
ssg75
g2598
sg68
(lp2605
g1145
asbasbasbag61
(g77
g63
NtRp2606
(dp2607
g66
(dp2608
sg75
g2560
sg68
(lp2609
g61
(g82
g63
NtRp2610
(dp2611
g66
(dp2612
g86
g87
ssg75
g2606
sg68
(lp2613
S'HTTPS'
p2614
asbag61
(g82
g63
NtRp2615
(dp2616
g66
(dp2617
g93
g94
ssg75
g2606
sg68
(lp2618
S':'
asbag61
(g82
g63
NtRp2619
(dp2620
g66
(dp2621
sg75
g2606
sg68
(lp2622
g61
(g62
g63
NtRp2623
(dp2624
g66
(dp2625
g74
I3
ssg75
g2619
sg68
(lp2626
S'1'
asbasbasbag61
(g77
g63
NtRp2627
(dp2628
g66
(dp2629
sg75
g2560
sg68
(lp2630
g61
(g82
g63
NtRp2631
(dp2632
g66
(dp2633
g86
g87
ssg75
g2627
sg68
(lp2634
S'HTTP_ACCEPT'
p2635
asbag61
(g82
g63
NtRp2636
(dp2637
g66
(dp2638
g93
g94
ssg75
g2627
sg68
(lp2639
S':'
asbag61
(g82
g63
NtRp2640
(dp2641
g66
(dp2642
sg75
g2627
sg68
(lp2643
g61
(g62
g63
NtRp2644
(dp2645
g66
(dp2646
g74
I3
ssg75
g2640
sg68
(lp2647
g1188
asbasbasbag61
(g77
g63
NtRp2648
(dp2649
g66
(dp2650
sg75
g2560
sg68
(lp2651
g61
(g82
g63
NtRp2652
(dp2653
g66
(dp2654
g86
g87
ssg75
g2648
sg68
(lp2655
S'HTTP_ACCEPT_CHARSET'
p2656
asbag61
(g82
g63
NtRp2657
(dp2658
g66
(dp2659
g93
g94
ssg75
g2648
sg68
(lp2660
S':'
asbag61
(g82
g63
NtRp2661
(dp2662
g66
(dp2663
sg75
g2648
sg68
(lp2664
g61
(g62
g63
NtRp2665
(dp2666
g66
(dp2667
g74
I3
ssg75
g2661
sg68
(lp2668
g1210
asbasbasbag61
(g77
g63
NtRp2669
(dp2670
g66
(dp2671
sg75
g2560
sg68
(lp2672
g61
(g82
g63
NtRp2673
(dp2674
g66
(dp2675
g86
g87
ssg75
g2669
sg68
(lp2676
S'HTTP_ACCEPT_ENCODING'
p2677
asbag61
(g82
g63
NtRp2678
(dp2679
g66
(dp2680
g93
g94
ssg75
g2669
sg68
(lp2681
S':'
asbag61
(g82
g63
NtRp2682
(dp2683
g66
(dp2684
sg75
g2669
sg68
(lp2685
g61
(g62
g63
NtRp2686
(dp2687
g66
(dp2688
g74
I3
ssg75
g2682
sg68
(lp2689
g1232
asbasbasbag61
(g77
g63
NtRp2690
(dp2691
g66
(dp2692
sg75
g2560
sg68
(lp2693
g61
(g82
g63
NtRp2694
(dp2695
g66
(dp2696
g86
g87
ssg75
g2690
sg68
(lp2697
S'HTTP_ACCEPT_LANGUAGE'
p2698
asbag61
(g82
g63
NtRp2699
(dp2700
g66
(dp2701
g93
g94
ssg75
g2690
sg68
(lp2702
S':'
asbag61
(g82
g63
NtRp2703
(dp2704
g66
(dp2705
sg75
g2690
sg68
(lp2706
g61
(g62
g63
NtRp2707
(dp2708
g66
(dp2709
g74
I3
ssg75
g2703
sg68
(lp2710
g1254
asbasbasbag61
(g77
g63
NtRp2711
(dp2712
g66
(dp2713
sg75
g2560
sg68
(lp2714
g61
(g82
g63
NtRp2715
(dp2716
g66
(dp2717
g86
g87
ssg75
g2711
sg68
(lp2718
S'HTTP_CONNECTION'
p2719
asbag61
(g82
g63
NtRp2720
(dp2721
g66
(dp2722
g93
g94
ssg75
g2711
sg68
(lp2723
S':'
asbag61
(g82
g63
NtRp2724
(dp2725
g66
(dp2726
sg75
g2711
sg68
(lp2727
g61
(g62
g63
NtRp2728
(dp2729
g66
(dp2730
g74
I3
ssg75
g2724
sg68
(lp2731
g1276
asbasbasbag61
(g77
g63
NtRp2732
(dp2733
g66
(dp2734
sg75
g2560
sg68
(lp2735
g61
(g82
g63
NtRp2736
(dp2737
g66
(dp2738
g86
g87
ssg75
g2732
sg68
(lp2739
S'HTTP_COOKIE'
p2740
asbag61
(g82
g63
NtRp2741
(dp2742
g66
(dp2743
g93
g94
ssg75
g2732
sg68
(lp2744
S':'
asbag61
(g82
g63
NtRp2745
(dp2746
g66
(dp2747
sg75
g2732
sg68
(lp2748
g61
(g62
g63
NtRp2749
(dp2750
g66
(dp2751
g74
I3
ssg75
g2745
sg68
(lp2752
g1298
asbasbasbag61
(g77
g63
NtRp2753
(dp2754
g66
(dp2755
sg75
g2560
sg68
(lp2756
g61
(g82
g63
NtRp2757
(dp2758
g66
(dp2759
g86
g87
ssg75
g2753
sg68
(lp2760
S'HTTP_HOST'
p2761
asbag61
(g82
g63
NtRp2762
(dp2763
g66
(dp2764
g93
g94
ssg75
g2753
sg68
(lp2765
S':'
asbag61
(g82
g63
NtRp2766
(dp2767
g66
(dp2768
sg75
g2753
sg68
(lp2769
g61
(g62
g63
NtRp2770
(dp2771
g66
(dp2772
g74
I3
ssg75
g2766
sg68
(lp2773
g1320
asbasbasbag61
(g77
g63
NtRp2774
(dp2775
g66
(dp2776
sg75
g2560
sg68
(lp2777
g61
(g82
g63
NtRp2778
(dp2779
g66
(dp2780
g86
g87
ssg75
g2774
sg68
(lp2781
S'HTTP_REFERER'
p2782
asbag61
(g82
g63
NtRp2783
(dp2784
g66
(dp2785
g93
g94
ssg75
g2774
sg68
(lp2786
S':'
asbag61
(g82
g63
NtRp2787
(dp2788
g66
(dp2789
sg75
g2774
sg68
(lp2790
g61
(g62
g63
NtRp2791
(dp2792
g66
(dp2793
g74
I3
ssg75
g2787
sg68
(lp2794
g1342
asbasbasbag61
(g77
g63
NtRp2795
(dp2796
g66
(dp2797
sg75
g2560
sg68
(lp2798
g61
(g82
g63
NtRp2799
(dp2800
g66
(dp2801
g86
g87
ssg75
g2795
sg68
(lp2802
S'HTTP_USER_AGENT'
p2803
asbag61
(g82
g63
NtRp2804
(dp2805
g66
(dp2806
g93
g94
ssg75
g2795
sg68
(lp2807
S':'
asbag61
(g82
g63
NtRp2808
(dp2809
g66
(dp2810
sg75
g2795
sg68
(lp2811
g61
(g62
g63
NtRp2812
(dp2813
g66
(dp2814
g74
I3
ssg75
g2808
sg68
(lp2815
g1364
asbasbasbag61
(g77
g63
NtRp2816
(dp2817
g66
(dp2818
sg75
g2560
sg68
(lp2819
g61
(g82
g63
NtRp2820
(dp2821
g66
(dp2822
g86
g87
ssg75
g2816
sg68
(lp2823
S'PATH_INFO'
p2824
asbag61
(g82
g63
NtRp2825
(dp2826
g66
(dp2827
g93
g94
ssg75
g2816
sg68
(lp2828
S':'
asbag61
(g82
g63
NtRp2829
(dp2830
g66
(dp2831
sg75
g2816
sg68
(lp2832
g61
(g62
g63
NtRp2833
(dp2834
g66
(dp2835
g74
I3
ssg75
g2829
sg68
(lp2836
g1650
asbasbasbag61
(g77
g63
NtRp2837
(dp2838
g66
(dp2839
sg75
g2560
sg68
(lp2840
g61
(g82
g63
NtRp2841
(dp2842
g66
(dp2843
g86
g87
ssg75
g2837
sg68
(lp2844
S'PATH_TRANSLATED'
p2845
asbag61
(g82
g63
NtRp2846
(dp2847
g66
(dp2848
g93
g94
ssg75
g2837
sg68
(lp2849
S':'
asbag61
(g82
g63
NtRp2850
(dp2851
g66
(dp2852
sg75
g2837
sg68
(lp2853
g61
(g62
g63
NtRp2854
(dp2855
g66
(dp2856
g74
I3
ssg75
g2850
sg68
(lp2857
g1672
asbasbasbag61
(g77
g63
NtRp2858
(dp2859
g66
(dp2860
sg75
g2560
sg68
(lp2861
g61
(g82
g63
NtRp2862
(dp2863
g66
(dp2864
g86
g87
ssg75
g2858
sg68
(lp2865
S'QUERY_STRING'
p2866
asbag61
(g82
g63
NtRp2867
(dp2868
g66
(dp2869
g93
g94
ssg75
g2858
sg68
(lp2870
S':'
asbag61
(g82
g63
NtRp2871
(dp2872
g66
(dp2873
sg75
g2858
sg68
(lp2874
g61
(g62
g63
NtRp2875
(dp2876
g66
(dp2877
g74
I3
ssg75
g2871
sg68
(lp2878
g1694
asbasbasbag61
(g77
g63
NtRp2879
(dp2880
g66
(dp2881
sg75
g2560
sg68
(lp2882
g61
(g82
g63
NtRp2883
(dp2884
g66
(dp2885
g86
g87
ssg75
g2879
sg68
(lp2886
S'REMOTE_ADDR'
p2887
asbag61
(g82
g63
NtRp2888
(dp2889
g66
(dp2890
g93
g94
ssg75
g2879
sg68
(lp2891
S':'
asbag61
(g82
g63
NtRp2892
(dp2893
g66
(dp2894
sg75
g2879
sg68
(lp2895
g61
(g62
g63
NtRp2896
(dp2897
g66
(dp2898
g74
I3
ssg75
g2892
sg68
(lp2899
g194
asbasbasbag61
(g77
g63
NtRp2900
(dp2901
g66
(dp2902
sg75
g2560
sg68
(lp2903
g61
(g82
g63
NtRp2904
(dp2905
g66
(dp2906
g86
g87
ssg75
g2900
sg68
(lp2907
S'REMOTE_PORT'
p2908
asbag61
(g82
g63
NtRp2909
(dp2910
g66
(dp2911
g93
g94
ssg75
g2900
sg68
(lp2912
S':'
asbag61
(g82
g63
NtRp2913
(dp2914
g66
(dp2915
sg75
g2900
sg68
(lp2916
g61
(g62
g63
NtRp2917
(dp2918
g66
(dp2919
g74
I3
ssg75
g2913
sg68
(lp2920
g1737
asbasbasbag61
(g77
g63
NtRp2921
(dp2922
g66
(dp2923
sg75
g2560
sg68
(lp2924
g61
(g82
g63
NtRp2925
(dp2926
g66
(dp2927
g86
g87
ssg75
g2921
sg68
(lp2928
S'REQUEST_METHOD'
p2929
asbag61
(g82
g63
NtRp2930
(dp2931
g66
(dp2932
g93
g94
ssg75
g2921
sg68
(lp2933
S':'
asbag61
(g82
g63
NtRp2934
(dp2935
g66
(dp2936
sg75
g2921
sg68
(lp2937
g61
(g62
g63
NtRp2938
(dp2939
g66
(dp2940
g74
I3
ssg75
g2934
sg68
(lp2941
g1759
asbasbasbag61
(g77
g63
NtRp2942
(dp2943
g66
(dp2944
sg75
g2560
sg68
(lp2945
g61
(g82
g63
NtRp2946
(dp2947
g66
(dp2948
g86
g87
ssg75
g2942
sg68
(lp2949
S'REQUEST_URI'
p2950
asbag61
(g82
g63
NtRp2951
(dp2952
g66
(dp2953
g93
g94
ssg75
g2942
sg68
(lp2954
S':'
asbag61
(g82
g63
NtRp2955
(dp2956
g66
(dp2957
sg75
g2942
sg68
(lp2958
g61
(g62
g63
NtRp2959
(dp2960
g66
(dp2961
g74
I3
ssg75
g2955
sg68
(lp2962
g1781
asbasbasbag61
(g77
g63
NtRp2963
(dp2964
g66
(dp2965
sg75
g2560
sg68
(lp2966
g61
(g82
g63
NtRp2967
(dp2968
g66
(dp2969
g86
g87
ssg75
g2963
sg68
(lp2970
S'SCRIPT_FILENAME'
p2971
asbag61
(g82
g63
NtRp2972
(dp2973
g66
(dp2974
g93
g94
ssg75
g2963
sg68
(lp2975
S':'
asbag61
(g82
g63
NtRp2976
(dp2977
g66
(dp2978
sg75
g2963
sg68
(lp2979
g61
(g62
g63
NtRp2980
(dp2981
g66
(dp2982
g74
I3
ssg75
g2976
sg68
(lp2983
g1803
asbasbasbag61
(g77
g63
NtRp2984
(dp2985
g66
(dp2986
sg75
g2560
sg68
(lp2987
g61
(g82
g63
NtRp2988
(dp2989
g66
(dp2990
g86
g87
ssg75
g2984
sg68
(lp2991
S'SCRIPT_NAME'
p2992
asbag61
(g82
g63
NtRp2993
(dp2994
g66
(dp2995
g93
g94
ssg75
g2984
sg68
(lp2996
S':'
asbag61
(g82
g63
NtRp2997
(dp2998
g66
(dp2999
sg75
g2984
sg68
(lp3000
g61
(g62
g63
NtRp3001
(dp3002
g66
(dp3003
g74
I3
ssg75
g2997
sg68
(lp3004
S''
asbasbasbag61
(g77
g63
NtRp3005
(dp3006
g66
(dp3007
sg75
g2560
sg68
(lp3008
g61
(g82
g63
NtRp3009
(dp3010
g66
(dp3011
g86
g87
ssg75
g3005
sg68
(lp3012
S'SERVER_ADDR'
p3013
asbag61
(g82
g63
NtRp3014
(dp3015
g66
(dp3016
g93
g94
ssg75
g3005
sg68
(lp3017
S':'
asbag61
(g82
g63
NtRp3018
(dp3019
g66
(dp3020
sg75
g3005
sg68
(lp3021
g61
(g62
g63
NtRp3022
(dp3023
g66
(dp3024
g74
I3
ssg75
g3018
sg68
(lp3025
g1846
asbasbasbag61
(g77
g63
NtRp3026
(dp3027
g66
(dp3028
sg75
g2560
sg68
(lp3029
g61
(g82
g63
NtRp3030
(dp3031
g66
(dp3032
g86
g87
ssg75
g3026
sg68
(lp3033
S'SERVER_ADMIN'
p3034
asbag61
(g82
g63
NtRp3035
(dp3036
g66
(dp3037
g93
g94
ssg75
g3026
sg68
(lp3038
S':'
asbag61
(g82
g63
NtRp3039
(dp3040
g66
(dp3041
sg75
g3026
sg68
(lp3042
g61
(g62
g63
NtRp3043
(dp3044
g66
(dp3045
g74
I3
ssg75
g3039
sg68
(lp3046
g1868
asbasbasbag61
(g77
g63
NtRp3047
(dp3048
g66
(dp3049
sg75
g2560
sg68
(lp3050
g61
(g82
g63
NtRp3051
(dp3052
g66
(dp3053
g86
g87
ssg75
g3047
sg68
(lp3054
S'SERVER_NAME'
p3055
asbag61
(g82
g63
NtRp3056
(dp3057
g66
(dp3058
g93
g94
ssg75
g3047
sg68
(lp3059
S':'
asbag61
(g82
g63
NtRp3060
(dp3061
g66
(dp3062
sg75
g3047
sg68
(lp3063
g61
(g62
g63
NtRp3064
(dp3065
g66
(dp3066
g74
I3
ssg75
g3060
sg68
(lp3067
g1890
asbasbasbag61
(g77
g63
NtRp3068
(dp3069
g66
(dp3070
sg75
g2560
sg68
(lp3071
g61
(g82
g63
NtRp3072
(dp3073
g66
(dp3074
g86
g87
ssg75
g3068
sg68
(lp3075
S'SERVER_PORT'
p3076
asbag61
(g82
g63
NtRp3077
(dp3078
g66
(dp3079
g93
g94
ssg75
g3068
sg68
(lp3080
S':'
asbag61
(g82
g63
NtRp3081
(dp3082
g66
(dp3083
sg75
g3068
sg68
(lp3084
g61
(g62
g63
NtRp3085
(dp3086
g66
(dp3087
g74
I3
ssg75
g3081
sg68
(lp3088
g1912
asbasbasbag61
(g77
g63
NtRp3089
(dp3090
g66
(dp3091
sg75
g2560
sg68
(lp3092
g61
(g82
g63
NtRp3093
(dp3094
g66
(dp3095
g86
g87
ssg75
g3089
sg68
(lp3096
S'SERVER_PROTOCOL'
p3097
asbag61
(g82
g63
NtRp3098
(dp3099
g66
(dp3100
g93
g94
ssg75
g3089
sg68
(lp3101
S':'
asbag61
(g82
g63
NtRp3102
(dp3103
g66
(dp3104
sg75
g3089
sg68
(lp3105
g61
(g62
g63
NtRp3106
(dp3107
g66
(dp3108
g74
I3
ssg75
g3102
sg68
(lp3109
g1934
asbasbasbag61
(g77
g63
NtRp3110
(dp3111
g66
(dp3112
sg75
g2560
sg68
(lp3113
g61
(g82
g63
NtRp3114
(dp3115
g66
(dp3116
g86
g87
ssg75
g3110
sg68
(lp3117
S'SERVER_SIGNATURE'
p3118
asbag61
(g82
g63
NtRp3119
(dp3120
g66
(dp3121
g93
g94
ssg75
g3110
sg68
(lp3122
S':'
asbag61
(g82
g63
NtRp3123
(dp3124
g66
(dp3125
sg75
g3110
sg68
(lp3126
g61
(g62
g63
NtRp3127
(dp3128
g66
(dp3129
g74
I3
ssg75
g3123
sg68
(lp3130
g1956
asbasbasbag61
(g77
g63
NtRp3131
(dp3132
g66
(dp3133
sg75
g2560
sg68
(lp3134
g61
(g82
g63
NtRp3135
(dp3136
g66
(dp3137
g86
g87
ssg75
g3131
sg68
(lp3138
S'SERVER_SOFTWARE'
p3139
asbag61
(g82
g63
NtRp3140
(dp3141
g66
(dp3142
g93
g94
ssg75
g3131
sg68
(lp3143
S':'
asbag61
(g82
g63
NtRp3144
(dp3145
g66
(dp3146
sg75
g3131
sg68
(lp3147
g61
(g62
g63
NtRp3148
(dp3149
g66
(dp3150
g74
I3
ssg75
g3144
sg68
(lp3151
g1978
asbasbasbag61
(g77
g63
NtRp3152
(dp3153
g66
(dp3154
sg75
g2560
sg68
(lp3155
g61
(g82
g63
NtRp3156
(dp3157
g66
(dp3158
g86
g87
ssg75
g3152
sg68
(lp3159
S'SSL_TLS_SNI'
p3160
asbag61
(g82
g63
NtRp3161
(dp3162
g66
(dp3163
g93
g94
ssg75
g3152
sg68
(lp3164
S':'
asbag61
(g82
g63
NtRp3165
(dp3166
g66
(dp3167
sg75
g3152
sg68
(lp3168
g61
(g62
g63
NtRp3169
(dp3170
g66
(dp3171
g74
I3
ssg75
g3165
sg68
(lp3172
g2000
asbasbasbag61
(g77
g63
NtRp3173
(dp3174
g66
(dp3175
sg75
g2560
sg68
(lp3176
g61
(g82
g63
NtRp3177
(dp3178
g66
(dp3179
g86
g87
ssg75
g3173
sg68
(lp3180
S'mod_wsgi.application_group'
p3181
asbag61
(g82
g63
NtRp3182
(dp3183
g66
(dp3184
g93
g94
ssg75
g3173
sg68
(lp3185
S':'
asbag61
(g82
g63
NtRp3186
(dp3187
g66
(dp3188
sg75
g3173
sg68
(lp3189
g61
(g62
g63
NtRp3190
(dp3191
g66
(dp3192
g74
I3
ssg75
g3186
sg68
(lp3193
g1407
asbasbasbag61
(g77
g63
NtRp3194
(dp3195
g66
(dp3196
sg75
g2560
sg68
(lp3197
g61
(g82
g63
NtRp3198
(dp3199
g66
(dp3200
g86
g87
ssg75
g3194
sg68
(lp3201
S'mod_wsgi.callable_object'
p3202
asbag61
(g82
g63
NtRp3203
(dp3204
g66
(dp3205
g93
g94
ssg75
g3194
sg68
(lp3206
S':'
asbag61
(g82
g63
NtRp3207
(dp3208
g66
(dp3209
sg75
g3194
sg68
(lp3210
g61
(g62
g63
NtRp3211
(dp3212
g66
(dp3213
g74
I3
ssg75
g3207
sg68
(lp3214
g1429
asbasbasbag61
(g77
g63
NtRp3215
(dp3216
g66
(dp3217
sg75
g2560
sg68
(lp3218
g61
(g82
g63
NtRp3219
(dp3220
g66
(dp3221
g86
g87
ssg75
g3215
sg68
(lp3222
S'mod_wsgi.handler_script'
p3223
asbag61
(g82
g63
NtRp3224
(dp3225
g66
(dp3226
g93
g94
ssg75
g3215
sg68
(lp3227
S':'
asbag61
(g82
g63
NtRp3228
(dp3229
g66
(dp3230
sg75
g3215
sg68
(lp3231
g61
(g62
g63
NtRp3232
(dp3233
g66
(dp3234
g74
I3
ssg75
g3228
sg68
(lp3235
S''
asbasbasbag61
(g77
g63
NtRp3236
(dp3237
g66
(dp3238
sg75
g2560
sg68
(lp3239
g61
(g82
g63
NtRp3240
(dp3241
g66
(dp3242
g86
g87
ssg75
g3236
sg68
(lp3243
S'mod_wsgi.input_chunked'
p3244
asbag61
(g82
g63
NtRp3245
(dp3246
g66
(dp3247
g93
g94
ssg75
g3236
sg68
(lp3248
S':'
asbag61
(g82
g63
NtRp3249
(dp3250
g66
(dp3251
sg75
g3236
sg68
(lp3252
g61
(g62
g63
NtRp3253
(dp3254
g66
(dp3255
g74
I3
ssg75
g3249
sg68
(lp3256
S'0'
asbasbasbag61
(g77
g63
NtRp3257
(dp3258
g66
(dp3259
sg75
g2560
sg68
(lp3260
g61
(g82
g63
NtRp3261
(dp3262
g66
(dp3263
g86
g87
ssg75
g3257
sg68
(lp3264
S'mod_wsgi.listener_host'
p3265
asbag61
(g82
g63
NtRp3266
(dp3267
g66
(dp3268
g93
g94
ssg75
g3257
sg68
(lp3269
S':'
asbag61
(g82
g63
NtRp3270
(dp3271
g66
(dp3272
sg75
g3257
sg68
(lp3273
g61
(g62
g63
NtRp3274
(dp3275
g66
(dp3276
g74
I3
ssg75
g3270
sg68
(lp3277
S''
asbasbasbag61
(g77
g63
NtRp3278
(dp3279
g66
(dp3280
sg75
g2560
sg68
(lp3281
g61
(g82
g63
NtRp3282
(dp3283
g66
(dp3284
g86
g87
ssg75
g3278
sg68
(lp3285
S'mod_wsgi.listener_port'
p3286
asbag61
(g82
g63
NtRp3287
(dp3288
g66
(dp3289
g93
g94
ssg75
g3278
sg68
(lp3290
S':'
asbag61
(g82
g63
NtRp3291
(dp3292
g66
(dp3293
sg75
g3278
sg68
(lp3294
g61
(g62
g63
NtRp3295
(dp3296
g66
(dp3297
g74
I3
ssg75
g3291
sg68
(lp3298
g1514
asbasbasbag61
(g77
g63
NtRp3299
(dp3300
g66
(dp3301
sg75
g2560
sg68
(lp3302
g61
(g82
g63
NtRp3303
(dp3304
g66
(dp3305
g86
g87
ssg75
g3299
sg68
(lp3306
S'mod_wsgi.process_group'
p3307
asbag61
(g82
g63
NtRp3308
(dp3309
g66
(dp3310
g93
g94
ssg75
g3299
sg68
(lp3311
S':'
asbag61
(g82
g63
NtRp3312
(dp3313
g66
(dp3314
sg75
g3299
sg68
(lp3315
g61
(g62
g63
NtRp3316
(dp3317
g66
(dp3318
g74
I3
ssg75
g3312
sg68
(lp3319
g1536
asbasbasbag61
(g77
g63
NtRp3320
(dp3321
g66
(dp3322
sg75
g2560
sg68
(lp3323
g61
(g82
g63
NtRp3324
(dp3325
g66
(dp3326
g86
g87
ssg75
g3320
sg68
(lp3327
S'mod_wsgi.request_handler'
p3328
asbag61
(g82
g63
NtRp3329
(dp3330
g66
(dp3331
g93
g94
ssg75
g3320
sg68
(lp3332
S':'
asbag61
(g82
g63
NtRp3333
(dp3334
g66
(dp3335
sg75
g3320
sg68
(lp3336
g61
(g62
g63
NtRp3337
(dp3338
g66
(dp3339
g74
I3
ssg75
g3333
sg68
(lp3340
g1558
asbasbasbag61
(g77
g63
NtRp3341
(dp3342
g66
(dp3343
sg75
g2560
sg68
(lp3344
g61
(g82
g63
NtRp3345
(dp3346
g66
(dp3347
g86
g87
ssg75
g3341
sg68
(lp3348
S'mod_wsgi.script_reloading'
p3349
asbag61
(g82
g63
NtRp3350
(dp3351
g66
(dp3352
g93
g94
ssg75
g3341
sg68
(lp3353
S':'
asbag61
(g82
g63
NtRp3354
(dp3355
g66
(dp3356
sg75
g3341
sg68
(lp3357
g61
(g62
g63
NtRp3358
(dp3359
g66
(dp3360
g74
I3
ssg75
g3354
sg68
(lp3361
S'1'
asbasbasbag61
(g77
g63
NtRp3362
(dp3363
g66
(dp3364
sg75
g2560
sg68
(lp3365
g61
(g82
g63
NtRp3366
(dp3367
g66
(dp3368
g86
g87
ssg75
g3362
sg68
(lp3369
S'mod_wsgi.version'
p3370
asbag61
(g82
g63
NtRp3371
(dp3372
g66
(dp3373
g93
g94
ssg75
g3362
sg68
(lp3374
S':'
asbag61
(g82
g63
NtRp3375
(dp3376
g66
(dp3377
sg75
g3362
sg68
(lp3378
g61
(g62
g63
NtRp3379
(dp3380
g66
(dp3381
g74
I3
ssg75
g3375
sg68
(lp3382
g61
(g70
g63
NtRp3383
(dp3384
g66
(dp3385
g74
I2
ssg75
Nsg68
(lp3386
g61
(g77
g63
NtRp3387
(dp3388
g66
(dp3389
sg75
g3383
sg68
(lp3390
g61
(g82
g63
NtRp3391
(dp3392
g66
(dp3393
sg75
g3387
sg68
(lp3394
g61
(g62
g63
NtRp3395
(dp3396
g66
(dp3397
g74
I2
ssg75
g3391
sg68
(lp3398
S'3'
asbasbasbag61
(g77
g63
NtRp3399
(dp3400
g66
(dp3401
sg75
g3383
sg68
(lp3402
g61
(g82
g63
NtRp3403
(dp3404
g66
(dp3405
sg75
g3399
sg68
(lp3406
g61
(g62
g63
NtRp3407
(dp3408
g66
(dp3409
g74
I2
ssg75
g3403
sg68
(lp3410
S'2'
asbasbasbasbasbasbasbag61
(g77
g63
NtRp3411
(dp3412
g66
(dp3413
sg75
g2560
sg68
(lp3414
g61
(g82
g63
NtRp3415
(dp3416
g66
(dp3417
g86
g87
ssg75
g3411
sg68
(lp3418
S'wsgi.errors'
p3419
asbag61
(g82
g63
NtRp3420
(dp3421
g66
(dp3422
g93
g94
ssg75
g3411
sg68
(lp3423
S':'
asbag61
(g82
g63
NtRp3424
(dp3425
g66
(dp3426
sg75
g3411
sg68
(lp3427
g61
(g62
g63
NtRp3428
(dp3429
g66
(dp3430
g74
I3
ssg75
g3424
sg68
(lp3431
S'<mod_wsgi.Log object at 0x2b50c01a78f0>'
p3432
asbasbasbag61
(g77
g63
NtRp3433
(dp3434
g66
(dp3435
sg75
g2560
sg68
(lp3436
g61
(g82
g63
NtRp3437
(dp3438
g66
(dp3439
g86
g87
ssg75
g3433
sg68
(lp3440
S'wsgi.file_wrapper'
p3441
asbag61
(g82
g63
NtRp3442
(dp3443
g66
(dp3444
g93
g94
ssg75
g3433
sg68
(lp3445
S':'
asbag61
(g82
g63
NtRp3446
(dp3447
g66
(dp3448
sg75
g3433
sg68
(lp3449
g61
(g62
g63
NtRp3450
(dp3451
g66
(dp3452
g74
I3
ssg75
g3446
sg68
(lp3453
S'<built-in method file_wrapper of mod_wsgi.Adapter object at 0x2b50c0195d50>'
p3454
asbasbasbag61
(g77
g63
NtRp3455
(dp3456
g66
(dp3457
sg75
g2560
sg68
(lp3458
g61
(g82
g63
NtRp3459
(dp3460
g66
(dp3461
g86
g87
ssg75
g3455
sg68
(lp3462
S'wsgi.input'
p3463
asbag61
(g82
g63
NtRp3464
(dp3465
g66
(dp3466
g93
g94
ssg75
g3455
sg68
(lp3467
S':'
asbag61
(g82
g63
NtRp3468
(dp3469
g66
(dp3470
sg75
g3455
sg68
(lp3471
g61
(g62
g63
NtRp3472
(dp3473
g66
(dp3474
g74
I3
ssg75
g3468
sg68
(lp3475
S'<cStringIO.StringO object at 0x2b50c0189d50>'
p3476
asbasbasbag61
(g77
g63
NtRp3477
(dp3478
g66
(dp3479
sg75
g2560
sg68
(lp3480
g61
(g82
g63
NtRp3481
(dp3482
g66
(dp3483
g86
g87
ssg75
g3477
sg68
(lp3484
S'wsgi.multiprocess'
p3485
asbag61
(g82
g63
NtRp3486
(dp3487
g66
(dp3488
g93
g94
ssg75
g3477
sg68
(lp3489
S':'
asbag61
(g82
g63
NtRp3490
(dp3491
g66
(dp3492
sg75
g3477
sg68
(lp3493
g61
(g62
g63
NtRp3494
(dp3495
g66
(dp3496
g74
I3
ssg75
g3490
sg68
(lp3497
g104
asbasbasbag61
(g77
g63
NtRp3498
(dp3499
g66
(dp3500
sg75
g2560
sg68
(lp3501
g61
(g82
g63
NtRp3502
(dp3503
g66
(dp3504
g86
g87
ssg75
g3498
sg68
(lp3505
S'wsgi.multithread'
p3506
asbag61
(g82
g63
NtRp3507
(dp3508
g66
(dp3509
g93
g94
ssg75
g3498
sg68
(lp3510
S':'
asbag61
(g82
g63
NtRp3511
(dp3512
g66
(dp3513
sg75
g3498
sg68
(lp3514
g61
(g62
g63
NtRp3515
(dp3516
g66
(dp3517
g74
I3
ssg75
g3511
sg68
(lp3518
g2152
asbasbasbag61
(g77
g63
NtRp3519
(dp3520
g66
(dp3521
sg75
g2560
sg68
(lp3522
g61
(g82
g63
NtRp3523
(dp3524
g66
(dp3525
g86
g87
ssg75
g3519
sg68
(lp3526
S'wsgi.run_once'
p3527
asbag61
(g82
g63
NtRp3528
(dp3529
g66
(dp3530
g93
g94
ssg75
g3519
sg68
(lp3531
S':'
asbag61
(g82
g63
NtRp3532
(dp3533
g66
(dp3534
sg75
g3519
sg68
(lp3535
g61
(g62
g63
NtRp3536
(dp3537
g66
(dp3538
g74
I3
ssg75
g3532
sg68
(lp3539
g104
asbasbasbag61
(g77
g63
NtRp3540
(dp3541
g66
(dp3542
sg75
g2560
sg68
(lp3543
g61
(g82
g63
NtRp3544
(dp3545
g66
(dp3546
g86
g87
ssg75
g3540
sg68
(lp3547
S'wsgi.url_scheme'
p3548
asbag61
(g82
g63
NtRp3549
(dp3550
g66
(dp3551
g93
g94
ssg75
g3540
sg68
(lp3552
S':'
asbag61
(g82
g63
NtRp3553
(dp3554
g66
(dp3555
sg75
g3540
sg68
(lp3556
g61
(g62
g63
NtRp3557
(dp3558
g66
(dp3559
g74
I3
ssg75
g3553
sg68
(lp3560
g2195
asbasbasbag61
(g77
g63
NtRp3561
(dp3562
g66
(dp3563
sg75
g2560
sg68
(lp3564
g61
(g82
g63
NtRp3565
(dp3566
g66
(dp3567
g86
g87
ssg75
g3561
sg68
(lp3568
S'wsgi.version'
p3569
asbag61
(g82
g63
NtRp3570
(dp3571
g66
(dp3572
g93
g94
ssg75
g3561
sg68
(lp3573
S':'
asbag61
(g82
g63
NtRp3574
(dp3575
g66
(dp3576
sg75
g3561
sg68
(lp3577
g61
(g62
g63
NtRp3578
(dp3579
g66
(dp3580
g74
I3
ssg75
g3574
sg68
(lp3581
S'1'
asbasbasbasbasbasbasbasbasbasbasbasbasbsS'frames'
p3582
(lp3583
(dp3584
S'file'
p3585
S'/home/www-data/web2py/gluon/restricted.py'
p3586
sS'dump'
p3587
(dp3588
S'environment'
p3589
S"{'A': <class 'gluon.html.A'>, 'Auth': <class 'gluon.tools.Auth'>, 'B': <class 'gluon.html.B'>, 'BEAUTIFY': <class 'gluon.html.BEAUTIFY'>, 'BODY': <class 'gluon.html.BODY'>, 'BR': <class 'gluon.html.BR'>, 'CENTER': <class 'gluon.html.CENTER'>, 'CLEANUP': <class 'gluon.validators.CLEANUP'>, 'CODE': <class 'gluon.html.CODE'>, 'CRYPT': <class 'gluon.validators.CRYPT'>, ...}"
p3590
sS'ccode'
p3591
S'<code object <module> at 0x2b50c01bfa80, file "/...ications/rdcdss/controllers/default.py", line 11>'
p3592
ssS'lnum'
p3593
I181
sS'lines'
p3594
(dp3595
I176
S'    try:'
p3596
sI177
S'        if type(code) == types.CodeType:'
p3597
sI178
S'            ccode = code'
p3598
sI179
S'        else:'
p3599
sI180
S'            ccode = compile2(code,layer)'
p3600
sI181
S'        exec ccode in environment'
p3601
sI182
S'    except HTTP:'
p3602
sI183
S'        raise'
p3603
sI184
S'    except Exception:'
p3604
sI185
S'        # XXX Show exception in Wing IDE if running in debugger'
p3605
ssS'call'
p3606
S"(code='# -*- coding: utf-8 -*- \\n# this file is released...ervice()\\n\\nresponse._vars=response._caller(index)\\n', environment={'A': <class 'gluon.html.A'>, 'Auth': <class 'gluon.tools.Auth'>, 'B': <class 'gluon.html.B'>, 'BEAUTIFY': <class 'gluon.html.BEAUTIFY'>, 'BODY': <class 'gluon.html.BODY'>, 'BR': <class 'gluon.html.BR'>, 'CENTER': <class 'gluon.html.CENTER'>, 'CLEANUP': <class 'gluon.validators.CLEANUP'>, 'CODE': <class 'gluon.html.CODE'>, 'CRYPT': <class 'gluon.validators.CRYPT'>, ...}, layer='/home/www-data/web2py/applications/rdcdss/controllers/default.py')"
p3607
sS'func'
p3608
S'restricted'
p3609
sa(dp3610
g3585
S'/home/www-data/web2py/applications/rdcdss/controllers/default.py'
p3611
sg3587
(dp3612
sg3593
I233
sg3594
(dp3613
I224
S'    """'
p3614
sI225
S'    exposes services. for example:'
p3615
sI226
S'    http://..../[app]/default/call/jsonrpc'
p3616
sI227
S'    decorate with @services.jsonrpc the functions to expose'
p3617
sI228
S'    supports xml, json, xmlrpc, jsonrpc, amfrpc, rss, csv'
p3618
sI229
S'    """'
p3619
sI230
S'    session.forget()'
p3620
sI231
S'    return service()'
p3621
sI222
S''
sI223
S'def call():'
p3622
ssg3606
S'()'
p3623
sg3608
S'<module>'
p3624
sa(dp3625
g3585
S'/home/www-data/web2py/gluon/globals.py'
p3626
sg3587
(dp3627
S'self'
p3628
S'undefined'
p3629
sS'f'
S'<function index>'
p3630
ssg3593
I133
sg3594
(dp3631
I128
S"        self.flash = ''           # used by the default view layout"
p3632
sI129
S'        self.meta = Storage()     # used by web2py_ajax.html'
p3633
sI130
S'        self.menu = []            # used by the default view layout'
p3634
sI131
S'        self.files = []           # used by web2py_ajax.html'
p3635
sI132
S'        self._vars = None'
p3636
sI133
S'        self._caller = lambda f: f()'
p3637
sI134
S'        self._view_environment = None'
p3638
sI135
S'        self._custom_commit = None'
p3639
sI136
S'        self._custom_rollback = None'
p3640
sI137
S''
ssg3606
S'(f=<function index>)'
p3641
sg3608
S'<lambda>'
p3642
sa(dp3643
g3585
S'/home/www-data/web2py/applications/rdcdss/controllers/default.py'
p3644
sg3587
(dp3645
S'db.t_resdis.import_from_csv_file'
p3646
S"<bound method Table.import_from_csv_file of <Tab...d': <gluon.dal.Field object at 0x2b50c01a9d90>}>>"
p3647
sS'db.t_resdis'
p3648
S"<Table {'ALL': <gluon.dal.SQLALL object at 0x2b5...id': <gluon.dal.Field object at 0x2b50c01a9d90>}>"
p3649
sS'hashstring'
p3650
S"'3a1b92aede7779aa81007fa3ecebbd27'"
p3651
sS'builtinopen'
p3652
S'<built-in function open>'
p3653
sS'global os'
p3654
S"<module 'os' from '/usr/lib/python2.6/os.pyc'>"
p3655
sS'global db'
p3656
S"<DAL {'auth_event': <Table {'origin': <gluon.dal...': <gluon.dal.Field object at 0x2b50c01aa7d0>}>}>"
p3657
sS'os.getcwd'
p3658
S'<built-in function getcwd>'
p3659
ssg3593
I49
sg3594
(dp3660
I44
S'            hashstring = hashlib.md5(request.vars.q+"index_rare"+str(time.time())).hexdigest()'
p3661
sI45
S'            collection = ""'
p3662
sI46
S'            os.system(\'sh \'+RUNQUERYPATH+\'runQueryDiseases.sh "\'+request.vars.q+\'" index_rare \'+hashstring)'
p3663
sI47
S'            diseases = "CHECKED"'
p3664
sI48
S'        db.t_resdis.truncate()'
p3665
sI49
S"        db.t_resdis.import_from_csv_file(open(os.getcwd()+'/results/'+hashstring+'.dis','r'))"
p3666
sI50
S'        session.data["response"]={"query":query,"raregenet":checked, "session_id":response.session_id, "results":[]}'
p3667
sI51
S'        rows = []'
p3668
sI52
S'        for row in db().select(db.t_resdis.ALL):'
p3669
sI53
S'            session.data["response"]["results"].append({"rank":row.f_rank,"disease":row.f_disease,"score":row.f_freq,"docs":row.f_docnos})'
p3670
ssg3606
S'()'
p3671
sg3608
S'index'
p3672
sasS'pyver'
p3673
S'Python 2.6.6: /usr/bin/python'
p3674
sS'session'
p3675
g61
(g62
g63
NtRp3676
(dp3677
g66
(dp3678
sg68
(lp3679
g61
(g70
g63
NtRp3680
(dp3681
g66
(dp3682
g74
I5
ssg75
Nsg68
(lp3683
g61
(g77
g63
NtRp3684
(dp3685
g66
(dp3686
sg75
g3680
sg68
(lp3687
g61
(g82
g63
NtRp3688
(dp3689
g66
(dp3690
g86
g87
ssg75
g3684
sg68
(lp3691
S'data'
p3692
asbag61
(g82
g63
NtRp3693
(dp3694
g66
(dp3695
g93
g94
ssg75
g3684
sg68
(lp3696
S':'
asbag61
(g82
g63
NtRp3697
(dp3698
g66
(dp3699
sg75
g3684
sg68
(lp3700
g61
(g62
g63
NtRp3701
(dp3702
g66
(dp3703
g74
I5
ssg75
g3697
sg68
(lp3704
g61
(g70
g63
NtRp3705
(dp3706
g66
(dp3707
g74
I4
ssg75
Nsg68
(lp3708
sbasbasbasbag61
(g77
g63
NtRp3709
(dp3710
g66
(dp3711
sg75
g3680
sg68
(lp3712
g61
(g82
g63
NtRp3713
(dp3714
g66
(dp3715
g86
g87
ssg75
g3709
sg68
(lp3716
S'query'
p3717
asbag61
(g82
g63
NtRp3718
(dp3719
g66
(dp3720
g93
g94
ssg75
g3709
sg68
(lp3721
S':'
asbag61
(g82
g63
NtRp3722
(dp3723
g66
(dp3724
sg75
g3709
sg68
(lp3725
g61
(g62
g63
NtRp3726
(dp3727
g66
(dp3728
g74
I5
ssg75
g3722
sg68
(lp3729
S''
asbasbasbasbasbsS'etype'
p3730
S"<type 'exceptions.IOError'>"
p3731
sS'date'
p3732
S'Mon Jul  4 15:57:04 2011'
p3733
sS'response'
p3734
g61
(g62
g63
NtRp3735
(dp3736
g66
(dp3737
sg68
(lp3738
g61
(g70
g63
NtRp3739
(dp3740
g66
(dp3741
g74
I5
ssg75
Nsg68
(lp3742
g61
(g77
g63
NtRp3743
(dp3744
g66
(dp3745
sg75
g3739
sg68
(lp3746
g61
(g82
g63
NtRp3747
(dp3748
g66
(dp3749
g86
g87
ssg75
g3743
sg68
(lp3750
g159
asbag61
(g82
g63
NtRp3751
(dp3752
g66
(dp3753
g93
g94
ssg75
g3743
sg68
(lp3754
S':'
asbag61
(g82
g63
NtRp3755
(dp3756
g66
(dp3757
sg75
g3743
sg68
(lp3758
g61
(g62
g63
NtRp3759
(dp3760
g66
(dp3761
g74
I5
ssg75
g3755
sg68
(lp3762
S'<cStringIO.StringO object at 0x2b50c0383ae8>'
p3763
asbasbasbag61
(g77
g63
NtRp3764
(dp3765
g66
(dp3766
sg75
g3739
sg68
(lp3767
g61
(g82
g63
NtRp3768
(dp3769
g66
(dp3770
g86
g87
ssg75
g3764
sg68
(lp3771
g225
asbag61
(g82
g63
NtRp3772
(dp3773
g66
(dp3774
g93
g94
ssg75
g3764
sg68
(lp3775
S':'
asbag61
(g82
g63
NtRp3776
(dp3777
g66
(dp3778
sg75
g3764
sg68
(lp3779
g61
(g62
g63
NtRp3780
(dp3781
g66
(dp3782
g74
I5
ssg75
g3776
sg68
(lp3783
g61
(g70
g63
NtRp3784
(dp3785
g66
(dp3786
g74
I4
ssg75
Nsg68
(lp3787
g61
(g77
g63
NtRp3788
(dp3789
g66
(dp3790
sg75
g3784
sg68
(lp3791
g61
(g82
g63
NtRp3792
(dp3793
g66
(dp3794
g86
g87
ssg75
g3788
sg68
(lp3795
S'session_id_rdcdss'
p3796
asbag61
(g82
g63
NtRp3797
(dp3798
g66
(dp3799
g93
g94
ssg75
g3788
sg68
(lp3800
S':'
asbag61
(g82
g63
NtRp3801
(dp3802
g66
(dp3803
sg75
g3788
sg68
(lp3804
g61
(g62
g63
NtRp3805
(dp3806
g66
(dp3807
g74
I4
ssg75
g3801
sg68
(lp3808
g61
(g70
g63
NtRp3809
(dp3810
g66
(dp3811
g74
I3
ssg75
Nsg68
(lp3812
g61
(g77
g63
NtRp3813
(dp3814
g66
(dp3815
sg75
g3809
sg68
(lp3816
g61
(g82
g63
NtRp3817
(dp3818
g66
(dp3819
g86
g87
ssg75
g3813
sg68
(lp3820
g275
asbag61
(g82
g63
NtRp3821
(dp3822
g66
(dp3823
g93
g94
ssg75
g3813
sg68
(lp3824
S':'
asbag61
(g82
g63
NtRp3825
(dp3826
g66
(dp3827
sg75
g3813
sg68
(lp3828
g61
(g62
g63
NtRp3829
(dp3830
g66
(dp3831
g74
I3
ssg75
g3825
sg68
(lp3832
S''
asbasbasbag61
(g77
g63
NtRp3833
(dp3834
g66
(dp3835
sg75
g3809
sg68
(lp3836
g61
(g82
g63
NtRp3837
(dp3838
g66
(dp3839
g86
g87
ssg75
g3833
sg68
(lp3840
g296
asbag61
(g82
g63
NtRp3841
(dp3842
g66
(dp3843
g93
g94
ssg75
g3833
sg68
(lp3844
S':'
asbag61
(g82
g63
NtRp3845
(dp3846
g66
(dp3847
sg75
g3833
sg68
(lp3848
g61
(g62
g63
NtRp3849
(dp3850
g66
(dp3851
g74
I3
ssg75
g3845
sg68
(lp3852
S''
asbasbasbag61
(g77
g63
NtRp3853
(dp3854
g66
(dp3855
sg75
g3809
sg68
(lp3856
g61
(g82
g63
NtRp3857
(dp3858
g66
(dp3859
g86
g87
ssg75
g3853
sg68
(lp3860
g317
asbag61
(g82
g63
NtRp3861
(dp3862
g66
(dp3863
g93
g94
ssg75
g3853
sg68
(lp3864
S':'
asbag61
(g82
g63
NtRp3865
(dp3866
g66
(dp3867
sg75
g3853
sg68
(lp3868
g61
(g62
g63
NtRp3869
(dp3870
g66
(dp3871
g74
I3
ssg75
g3865
sg68
(lp3872
S''
asbasbasbag61
(g77
g63
NtRp3873
(dp3874
g66
(dp3875
sg75
g3809
sg68
(lp3876
g61
(g82
g63
NtRp3877
(dp3878
g66
(dp3879
g86
g87
ssg75
g3873
sg68
(lp3880
g338
asbag61
(g82
g63
NtRp3881
(dp3882
g66
(dp3883
g93
g94
ssg75
g3873
sg68
(lp3884
S':'
asbag61
(g82
g63
NtRp3885
(dp3886
g66
(dp3887
sg75
g3873
sg68
(lp3888
g61
(g62
g63
NtRp3889
(dp3890
g66
(dp3891
g74
I3
ssg75
g3885
sg68
(lp3892
S''
asbasbasbag61
(g77
g63
NtRp3893
(dp3894
g66
(dp3895
sg75
g3809
sg68
(lp3896
g61
(g82
g63
NtRp3897
(dp3898
g66
(dp3899
g86
g87
ssg75
g3893
sg68
(lp3900
g359
asbag61
(g82
g63
NtRp3901
(dp3902
g66
(dp3903
g93
g94
ssg75
g3893
sg68
(lp3904
S':'
asbag61
(g82
g63
NtRp3905
(dp3906
g66
(dp3907
sg75
g3893
sg68
(lp3908
g61
(g62
g63
NtRp3909
(dp3910
g66
(dp3911
g74
I3
ssg75
g3905
sg68
(lp3912
S''
asbasbasbag61
(g77
g63
NtRp3913
(dp3914
g66
(dp3915
sg75
g3809
sg68
(lp3916
g61
(g82
g63
NtRp3917
(dp3918
g66
(dp3919
g86
g87
ssg75
g3913
sg68
(lp3920
g380
asbag61
(g82
g63
NtRp3921
(dp3922
g66
(dp3923
g93
g94
ssg75
g3913
sg68
(lp3924
S':'
asbag61
(g82
g63
NtRp3925
(dp3926
g66
(dp3927
sg75
g3913
sg68
(lp3928
g61
(g62
g63
NtRp3929
(dp3930
g66
(dp3931
g74
I3
ssg75
g3925
sg68
(lp3932
S'/'
asbasbasbag61
(g77
g63
NtRp3933
(dp3934
g66
(dp3935
sg75
g3809
sg68
(lp3936
g61
(g82
g63
NtRp3937
(dp3938
g66
(dp3939
g86
g87
ssg75
g3933
sg68
(lp3940
g401
asbag61
(g82
g63
NtRp3941
(dp3942
g66
(dp3943
g93
g94
ssg75
g3933
sg68
(lp3944
S':'
asbag61
(g82
g63
NtRp3945
(dp3946
g66
(dp3947
sg75
g3933
sg68
(lp3948
g61
(g62
g63
NtRp3949
(dp3950
g66
(dp3951
g74
I3
ssg75
g3945
sg68
(lp3952
S''
asbasbasbag61
(g77
g63
NtRp3953
(dp3954
g66
(dp3955
sg75
g3809
sg68
(lp3956
g61
(g82
g63
NtRp3957
(dp3958
g66
(dp3959
g86
g87
ssg75
g3953
sg68
(lp3960
g422
asbag61
(g82
g63
NtRp3961
(dp3962
g66
(dp3963
g93
g94
ssg75
g3953
sg68
(lp3964
S':'
asbag61
(g82
g63
NtRp3965
(dp3966
g66
(dp3967
sg75
g3953
sg68
(lp3968
g61
(g62
g63
NtRp3969
(dp3970
g66
(dp3971
g74
I3
ssg75
g3965
sg68
(lp3972
S''
asbasbasbasbasbasbasbasbasbasbasbag61
(g77
g63
NtRp3973
(dp3974
g66
(dp3975
sg75
g3739
sg68
(lp3976
g61
(g82
g63
NtRp3977
(dp3978
g66
(dp3979
g86
g87
ssg75
g3973
sg68
(lp3980
S'files'
p3981
asbag61
(g82
g63
NtRp3982
(dp3983
g66
(dp3984
g93
g94
ssg75
g3973
sg68
(lp3985
S':'
asbag61
(g82
g63
NtRp3986
(dp3987
g66
(dp3988
sg75
g3973
sg68
(lp3989
g61
(g62
g63
NtRp3990
(dp3991
g66
(dp3992
g74
I5
ssg75
g3986
sg68
(lp3993
g61
(g70
g63
NtRp3994
(dp3995
g66
(dp3996
g74
I4
ssg75
Nsg68
(lp3997
sbasbasbasbag61
(g77
g63
NtRp3998
(dp3999
g66
(dp4000
sg75
g3739
sg68
(lp4001
g61
(g82
g63
NtRp4002
(dp4003
g66
(dp4004
g86
g87
ssg75
g3998
sg68
(lp4005
S'flash'
p4006
asbag61
(g82
g63
NtRp4007
(dp4008
g66
(dp4009
g93
g94
ssg75
g3998
sg68
(lp4010
S':'
asbag61
(g82
g63
NtRp4011
(dp4012
g66
(dp4013
sg75
g3998
sg68
(lp4014
g61
(g62
g63
NtRp4015
(dp4016
g66
(dp4017
g74
I5
ssg75
g4011
sg68
(lp4018
S''
asbasbasbag61
(g77
g63
NtRp4019
(dp4020
g66
(dp4021
sg75
g3739
sg68
(lp4022
g61
(g82
g63
NtRp4023
(dp4024
g66
(dp4025
g86
g87
ssg75
g4019
sg68
(lp4026
S'headers'
p4027
asbag61
(g82
g63
NtRp4028
(dp4029
g66
(dp4030
g93
g94
ssg75
g4019
sg68
(lp4031
S':'
asbag61
(g82
g63
NtRp4032
(dp4033
g66
(dp4034
sg75
g4019
sg68
(lp4035
g61
(g62
g63
NtRp4036
(dp4037
g66
(dp4038
g74
I5
ssg75
g4032
sg68
(lp4039
g61
(g70
g63
NtRp4040
(dp4041
g66
(dp4042
g74
I4
ssg75
Nsg68
(lp4043
g61
(g77
g63
NtRp4044
(dp4045
g66
(dp4046
sg75
g4040
sg68
(lp4047
g61
(g82
g63
NtRp4048
(dp4049
g66
(dp4050
g86
g87
ssg75
g4044
sg68
(lp4051
S'Cache-Control'
p4052
asbag61
(g82
g63
NtRp4053
(dp4054
g66
(dp4055
g93
g94
ssg75
g4044
sg68
(lp4056
S':'
asbag61
(g82
g63
NtRp4057
(dp4058
g66
(dp4059
sg75
g4044
sg68
(lp4060
g61
(g62
g63
NtRp4061
(dp4062
g66
(dp4063
g74
I4
ssg75
g4057
sg68
(lp4064
S'no-store, no-cache, must-revalidate, post-check=0, pre-check=0'
p4065
asbasbasbag61
(g77
g63
NtRp4066
(dp4067
g66
(dp4068
sg75
g4040
sg68
(lp4069
g61
(g82
g63
NtRp4070
(dp4071
g66
(dp4072
g86
g87
ssg75
g4066
sg68
(lp4073
S'Content-Type'
p4074
asbag61
(g82
g63
NtRp4075
(dp4076
g66
(dp4077
g93
g94
ssg75
g4066
sg68
(lp4078
S':'
asbag61
(g82
g63
NtRp4079
(dp4080
g66
(dp4081
sg75
g4066
sg68
(lp4082
g61
(g62
g63
NtRp4083
(dp4084
g66
(dp4085
g74
I4
ssg75
g4079
sg68
(lp4086
S'text/html; charset=utf-8'
p4087
asbasbasbag61
(g77
g63
NtRp4088
(dp4089
g66
(dp4090
sg75
g4040
sg68
(lp4091
g61
(g82
g63
NtRp4092
(dp4093
g66
(dp4094
g86
g87
ssg75
g4088
sg68
(lp4095
S'Expires'
p4096
asbag61
(g82
g63
NtRp4097
(dp4098
g66
(dp4099
g93
g94
ssg75
g4088
sg68
(lp4100
S':'
asbag61
(g82
g63
NtRp4101
(dp4102
g66
(dp4103
sg75
g4088
sg68
(lp4104
g61
(g62
g63
NtRp4105
(dp4106
g66
(dp4107
g74
I4
ssg75
g4101
sg68
(lp4108
S'Mon, 04 Jul 2011 11:57:01 GMT'
p4109
asbasbasbag61
(g77
g63
NtRp4110
(dp4111
g66
(dp4112
sg75
g4040
sg68
(lp4113
g61
(g82
g63
NtRp4114
(dp4115
g66
(dp4116
g86
g87
ssg75
g4110
sg68
(lp4117
S'Pragma'
p4118
asbag61
(g82
g63
NtRp4119
(dp4120
g66
(dp4121
g93
g94
ssg75
g4110
sg68
(lp4122
S':'
asbag61
(g82
g63
NtRp4123
(dp4124
g66
(dp4125
sg75
g4110
sg68
(lp4126
g61
(g62
g63
NtRp4127
(dp4128
g66
(dp4129
g74
I4
ssg75
g4123
sg68
(lp4130
S'no-cache'
p4131
asbasbasbasbasbasbasbag61
(g77
g63
NtRp4132
(dp4133
g66
(dp4134
sg75
g3739
sg68
(lp4135
g61
(g82
g63
NtRp4136
(dp4137
g66
(dp4138
g86
g87
ssg75
g4132
sg68
(lp4139
S'menu'
p4140
asbag61
(g82
g63
NtRp4141
(dp4142
g66
(dp4143
g93
g94
ssg75
g4132
sg68
(lp4144
S':'
asbag61
(g82
g63
NtRp4145
(dp4146
g66
(dp4147
sg75
g4132
sg68
(lp4148
g61
(g62
g63
NtRp4149
(dp4150
g66
(dp4151
g74
I5
ssg75
g4145
sg68
(lp4152
g61
(g70
g63
NtRp4153
(dp4154
g66
(dp4155
g74
I4
ssg75
Nsg68
(lp4156
g61
(g77
g63
NtRp4157
(dp4158
g66
(dp4159
sg75
g4153
sg68
(lp4160
g61
(g82
g63
NtRp4161
(dp4162
g66
(dp4163
sg75
g4157
sg68
(lp4164
g61
(g62
g63
NtRp4165
(dp4166
g66
(dp4167
g74
I4
ssg75
g4161
sg68
(lp4168
g61
(g70
g63
NtRp4169
(dp4170
g66
(dp4171
g74
I3
ssg75
Nsg68
(lp4172
g61
(g77
g63
NtRp4173
(dp4174
g66
(dp4175
sg75
g4169
sg68
(lp4176
g61
(g82
g63
NtRp4177
(dp4178
g66
(dp4179
sg75
g4173
sg68
(lp4180
g61
(g62
g63
NtRp4181
(dp4182
g66
(dp4183
g74
I3
ssg75
g4177
sg68
(lp4184
cgluon.languages
lazyT_unpickle
p4185
(S's\x04\x00\x00\x00Home'
tRp4186
asbasbasbag61
(g77
g63
NtRp4187
(dp4188
g66
(dp4189
sg75
g4169
sg68
(lp4190
g61
(g82
g63
NtRp4191
(dp4192
g66
(dp4193
sg75
g4187
sg68
(lp4194
g61
(g62
g63
NtRp4195
(dp4196
g66
(dp4197
g74
I3
ssg75
g4191
sg68
(lp4198
g104
asbasbasbag61
(g77
g63
NtRp4199
(dp4200
g66
(dp4201
sg75
g4169
sg68
(lp4202
g61
(g82
g63
NtRp4203
(dp4204
g66
(dp4205
sg75
g4199
sg68
(lp4206
g61
(g62
g63
NtRp4207
(dp4208
g66
(dp4209
g74
I3
ssg75
g4203
sg68
(lp4210
S'/rdcdss/default/index'
p4211
asbasbasbag61
(g77
g63
NtRp4212
(dp4213
g66
(dp4214
sg75
g4169
sg68
(lp4215
g61
(g82
g63
NtRp4216
(dp4217
g66
(dp4218
sg75
g4212
sg68
(lp4219
g61
(g62
g63
NtRp4220
(dp4221
g66
(dp4222
g74
I3
ssg75
g4216
sg68
(lp4223
g61
(g70
g63
NtRp4224
(dp4225
g66
(dp4226
g74
I2
ssg75
Nsg68
(lp4227
sbasbasbasbasbasbasbasbag61
(g77
g63
NtRp4228
(dp4229
g66
(dp4230
sg75
g4153
sg68
(lp4231
g61
(g82
g63
NtRp4232
(dp4233
g66
(dp4234
sg75
g4228
sg68
(lp4235
g61
(g62
g63
NtRp4236
(dp4237
g66
(dp4238
g74
I4
ssg75
g4232
sg68
(lp4239
g61
(g70
g63
NtRp4240
(dp4241
g66
(dp4242
g74
I3
ssg75
Nsg68
(lp4243
g61
(g77
g63
NtRp4244
(dp4245
g66
(dp4246
sg75
g4240
sg68
(lp4247
g61
(g82
g63
NtRp4248
(dp4249
g66
(dp4250
sg75
g4244
sg68
(lp4251
g61
(g62
g63
NtRp4252
(dp4253
g66
(dp4254
g74
I3
ssg75
g4248
sg68
(lp4255
g4185
(S's\x08\x00\x00\x00This App'
tRp4256
asbasbasbag61
(g77
g63
NtRp4257
(dp4258
g66
(dp4259
sg75
g4240
sg68
(lp4260
g61
(g82
g63
NtRp4261
(dp4262
g66
(dp4263
sg75
g4257
sg68
(lp4264
g61
(g62
g63
NtRp4265
(dp4266
g66
(dp4267
g74
I3
ssg75
g4261
sg68
(lp4268
g104
asbasbasbag61
(g77
g63
NtRp4269
(dp4270
g66
(dp4271
sg75
g4240
sg68
(lp4272
g61
(g82
g63
NtRp4273
(dp4274
g66
(dp4275
sg75
g4269
sg68
(lp4276
g61
(g62
g63
NtRp4277
(dp4278
g66
(dp4279
g74
I3
ssg75
g4273
sg68
(lp4280
S'/admin/default/design/rdcdss'
p4281
asbasbasbag61
(g77
g63
NtRp4282
(dp4283
g66
(dp4284
sg75
g4240
sg68
(lp4285
g61
(g82
g63
NtRp4286
(dp4287
g66
(dp4288
sg75
g4282
sg68
(lp4289
g61
(g62
g63
NtRp4290
(dp4291
g66
(dp4292
g74
I3
ssg75
g4286
sg68
(lp4293
g61
(g70
g63
NtRp4294
(dp4295
g66
(dp4296
g74
I2
ssg75
Nsg68
(lp4297
g61
(g77
g63
NtRp4298
(dp4299
g66
(dp4300
sg75
g4294
sg68
(lp4301
g61
(g82
g63
NtRp4302
(dp4303
g66
(dp4304
sg75
g4298
sg68
(lp4305
g61
(g62
g63
NtRp4306
(dp4307
g66
(dp4308
g74
I2
ssg75
g4302
sg68
(lp4309
g61
(g70
g63
NtRp4310
(dp4311
g66
(dp4312
g74
I1
ssg75
Nsg68
(lp4313
g61
(g77
g63
NtRp4314
(dp4315
g66
(dp4316
sg75
g4310
sg68
(lp4317
g61
(g82
g63
NtRp4318
(dp4319
g66
(dp4320
sg75
g4314
sg68
(lp4321
g61
(g62
g63
NtRp4322
(dp4323
g66
(dp4324
g74
I1
ssg75
g4318
sg68
(lp4325
g4185
(S's\n\x00\x00\x00Controller'
tRp4326
asbasbasbag61
(g77
g63
NtRp4327
(dp4328
g66
(dp4329
sg75
g4310
sg68
(lp4330
g61
(g82
g63
NtRp4331
(dp4332
g66
(dp4333
sg75
g4327
sg68
(lp4334
g61
(g62
g63
NtRp4335
(dp4336
g66
(dp4337
g74
I1
ssg75
g4331
sg68
(lp4338
I00
asbasbasbag61
(g77
g63
NtRp4339
(dp4340
g66
(dp4341
sg75
g4310
sg68
(lp4342
g61
(g82
g63
NtRp4343
(dp4344
g66
(dp4345
sg75
g4339
sg68
(lp4346
g61
(g62
g63
NtRp4347
(dp4348
g66
(dp4349
g74
I1
ssg75
g4343
sg68
(lp4350
S'/admin/default/edit/rdcdss/controllers/default.py'
p4351
asbasbasbasbasbasbasbag61
(g77
g63
NtRp4352
(dp4353
g66
(dp4354
sg75
g4294
sg68
(lp4355
g61
(g82
g63
NtRp4356
(dp4357
g66
(dp4358
sg75
g4352
sg68
(lp4359
g61
(g62
g63
NtRp4360
(dp4361
g66
(dp4362
g74
I2
ssg75
g4356
sg68
(lp4363
g61
(g70
g63
NtRp4364
(dp4365
g66
(dp4366
g74
I1
ssg75
Nsg68
(lp4367
g61
(g77
g63
NtRp4368
(dp4369
g66
(dp4370
sg75
g4364
sg68
(lp4371
g61
(g82
g63
NtRp4372
(dp4373
g66
(dp4374
sg75
g4368
sg68
(lp4375
g61
(g62
g63
NtRp4376
(dp4377
g66
(dp4378
g74
I1
ssg75
g4372
sg68
(lp4379
g4185
(S's\x04\x00\x00\x00View'
tRp4380
asbasbasbag61
(g77
g63
NtRp4381
(dp4382
g66
(dp4383
sg75
g4364
sg68
(lp4384
g61
(g82
g63
NtRp4385
(dp4386
g66
(dp4387
sg75
g4381
sg68
(lp4388
g61
(g62
g63
NtRp4389
(dp4390
g66
(dp4391
g74
I1
ssg75
g4385
sg68
(lp4392
I00
asbasbasbag61
(g77
g63
NtRp4393
(dp4394
g66
(dp4395
sg75
g4364
sg68
(lp4396
g61
(g82
g63
NtRp4397
(dp4398
g66
(dp4399
sg75
g4393
sg68
(lp4400
g61
(g62
g63
NtRp4401
(dp4402
g66
(dp4403
g74
I1
ssg75
g4397
sg68
(lp4404
S'/admin/default/edit/rdcdss/views/default/index.html'
p4405
asbasbasbasbasbasbasbag61
(g77
g63
NtRp4406
(dp4407
g66
(dp4408
sg75
g4294
sg68
(lp4409
g61
(g82
g63
NtRp4410
(dp4411
g66
(dp4412
sg75
g4406
sg68
(lp4413
g61
(g62
g63
NtRp4414
(dp4415
g66
(dp4416
g74
I2
ssg75
g4410
sg68
(lp4417
g61
(g70
g63
NtRp4418
(dp4419
g66
(dp4420
g74
I1
ssg75
Nsg68
(lp4421
g61
(g77
g63
NtRp4422
(dp4423
g66
(dp4424
sg75
g4418
sg68
(lp4425
g61
(g82
g63
NtRp4426
(dp4427
g66
(dp4428
sg75
g4422
sg68
(lp4429
g61
(g62
g63
NtRp4430
(dp4431
g66
(dp4432
g74
I1
ssg75
g4426
sg68
(lp4433
g4185
(S's\x06\x00\x00\x00Layout'
tRp4434
asbasbasbag61
(g77
g63
NtRp4435
(dp4436
g66
(dp4437
sg75
g4418
sg68
(lp4438
g61
(g82
g63
NtRp4439
(dp4440
g66
(dp4441
sg75
g4435
sg68
(lp4442
g61
(g62
g63
NtRp4443
(dp4444
g66
(dp4445
g74
I1
ssg75
g4439
sg68
(lp4446
I00
asbasbasbag61
(g77
g63
NtRp4447
(dp4448
g66
(dp4449
sg75
g4418
sg68
(lp4450
g61
(g82
g63
NtRp4451
(dp4452
g66
(dp4453
sg75
g4447
sg68
(lp4454
g61
(g62
g63
NtRp4455
(dp4456
g66
(dp4457
g74
I1
ssg75
g4451
sg68
(lp4458
S'/admin/default/edit/rdcdss/views/layout.html'
p4459
asbasbasbasbasbasbasbag61
(g77
g63
NtRp4460
(dp4461
g66
(dp4462
sg75
g4294
sg68
(lp4463
g61
(g82
g63
NtRp4464
(dp4465
g66
(dp4466
sg75
g4460
sg68
(lp4467
g61
(g62
g63
NtRp4468
(dp4469
g66
(dp4470
g74
I2
ssg75
g4464
sg68
(lp4471
g61
(g70
g63
NtRp4472
(dp4473
g66
(dp4474
g74
I1
ssg75
Nsg68
(lp4475
g61
(g77
g63
NtRp4476
(dp4477
g66
(dp4478
sg75
g4472
sg68
(lp4479
g61
(g82
g63
NtRp4480
(dp4481
g66
(dp4482
sg75
g4476
sg68
(lp4483
g61
(g62
g63
NtRp4484
(dp4485
g66
(dp4486
g74
I1
ssg75
g4480
sg68
(lp4487
g4185
(S's\n\x00\x00\x00Stylesheet'
tRp4488
asbasbasbag61
(g77
g63
NtRp4489
(dp4490
g66
(dp4491
sg75
g4472
sg68
(lp4492
g61
(g82
g63
NtRp4493
(dp4494
g66
(dp4495
sg75
g4489
sg68
(lp4496
g61
(g62
g63
NtRp4497
(dp4498
g66
(dp4499
g74
I1
ssg75
g4493
sg68
(lp4500
I00
asbasbasbag61
(g77
g63
NtRp4501
(dp4502
g66
(dp4503
sg75
g4472
sg68
(lp4504
g61
(g82
g63
NtRp4505
(dp4506
g66
(dp4507
sg75
g4501
sg68
(lp4508
g61
(g62
g63
NtRp4509
(dp4510
g66
(dp4511
g74
I1
ssg75
g4505
sg68
(lp4512
S'/admin/default/edit/rdcdss/static/base.css'
p4513
asbasbasbasbasbasbasbag61
(g77
g63
NtRp4514
(dp4515
g66
(dp4516
sg75
g4294
sg68
(lp4517
g61
(g82
g63
NtRp4518
(dp4519
g66
(dp4520
sg75
g4514
sg68
(lp4521
g61
(g62
g63
NtRp4522
(dp4523
g66
(dp4524
g74
I2
ssg75
g4518
sg68
(lp4525
g61
(g70
g63
NtRp4526
(dp4527
g66
(dp4528
g74
I1
ssg75
Nsg68
(lp4529
g61
(g77
g63
NtRp4530
(dp4531
g66
(dp4532
sg75
g4526
sg68
(lp4533
g61
(g82
g63
NtRp4534
(dp4535
g66
(dp4536
sg75
g4530
sg68
(lp4537
g61
(g62
g63
NtRp4538
(dp4539
g66
(dp4540
g74
I1
ssg75
g4534
sg68
(lp4541
g4185
(S's\x08\x00\x00\x00DB Model'
tRp4542
asbasbasbag61
(g77
g63
NtRp4543
(dp4544
g66
(dp4545
sg75
g4526
sg68
(lp4546
g61
(g82
g63
NtRp4547
(dp4548
g66
(dp4549
sg75
g4543
sg68
(lp4550
g61
(g62
g63
NtRp4551
(dp4552
g66
(dp4553
g74
I1
ssg75
g4547
sg68
(lp4554
I00
asbasbasbag61
(g77
g63
NtRp4555
(dp4556
g66
(dp4557
sg75
g4526
sg68
(lp4558
g61
(g82
g63
NtRp4559
(dp4560
g66
(dp4561
sg75
g4555
sg68
(lp4562
g61
(g62
g63
NtRp4563
(dp4564
g66
(dp4565
g74
I1
ssg75
g4559
sg68
(lp4566
S'/admin/default/edit/rdcdss/models/db.py'
p4567
asbasbasbasbasbasbasbag61
(g77
g63
NtRp4568
(dp4569
g66
(dp4570
sg75
g4294
sg68
(lp4571
g61
(g82
g63
NtRp4572
(dp4573
g66
(dp4574
sg75
g4568
sg68
(lp4575
g61
(g62
g63
NtRp4576
(dp4577
g66
(dp4578
g74
I2
ssg75
g4572
sg68
(lp4579
g61
(g70
g63
NtRp4580
(dp4581
g66
(dp4582
g74
I1
ssg75
Nsg68
(lp4583
g61
(g77
g63
NtRp4584
(dp4585
g66
(dp4586
sg75
g4580
sg68
(lp4587
g61
(g82
g63
NtRp4588
(dp4589
g66
(dp4590
sg75
g4584
sg68
(lp4591
g61
(g62
g63
NtRp4592
(dp4593
g66
(dp4594
g74
I1
ssg75
g4588
sg68
(lp4595
g4185
(S's\n\x00\x00\x00Menu Model'
tRp4596
asbasbasbag61
(g77
g63
NtRp4597
(dp4598
g66
(dp4599
sg75
g4580
sg68
(lp4600
g61
(g82
g63
NtRp4601
(dp4602
g66
(dp4603
sg75
g4597
sg68
(lp4604
g61
(g62
g63
NtRp4605
(dp4606
g66
(dp4607
g74
I1
ssg75
g4601
sg68
(lp4608
I00
asbasbasbag61
(g77
g63
NtRp4609
(dp4610
g66
(dp4611
sg75
g4580
sg68
(lp4612
g61
(g82
g63
NtRp4613
(dp4614
g66
(dp4615
sg75
g4609
sg68
(lp4616
g61
(g62
g63
NtRp4617
(dp4618
g66
(dp4619
g74
I1
ssg75
g4613
sg68
(lp4620
S'/admin/default/edit/rdcdss/models/menu.py'
p4621
asbasbasbasbasbasbasbag61
(g77
g63
NtRp4622
(dp4623
g66
(dp4624
sg75
g4294
sg68
(lp4625
g61
(g82
g63
NtRp4626
(dp4627
g66
(dp4628
sg75
g4622
sg68
(lp4629
g61
(g62
g63
NtRp4630
(dp4631
g66
(dp4632
g74
I2
ssg75
g4626
sg68
(lp4633
g61
(g70
g63
NtRp4634
(dp4635
g66
(dp4636
g74
I1
ssg75
Nsg68
(lp4637
g61
(g77
g63
NtRp4638
(dp4639
g66
(dp4640
sg75
g4634
sg68
(lp4641
g61
(g82
g63
NtRp4642
(dp4643
g66
(dp4644
sg75
g4638
sg68
(lp4645
g61
(g62
g63
NtRp4646
(dp4647
g66
(dp4648
g74
I1
ssg75
g4642
sg68
(lp4649
g4185
(S's\x08\x00\x00\x00Database'
tRp4650
asbasbasbag61
(g77
g63
NtRp4651
(dp4652
g66
(dp4653
sg75
g4634
sg68
(lp4654
g61
(g82
g63
NtRp4655
(dp4656
g66
(dp4657
sg75
g4651
sg68
(lp4658
g61
(g62
g63
NtRp4659
(dp4660
g66
(dp4661
g74
I1
ssg75
g4655
sg68
(lp4662
I00
asbasbasbag61
(g77
g63
NtRp4663
(dp4664
g66
(dp4665
sg75
g4634
sg68
(lp4666
g61
(g82
g63
NtRp4667
(dp4668
g66
(dp4669
sg75
g4663
sg68
(lp4670
g61
(g62
g63
NtRp4671
(dp4672
g66
(dp4673
g74
I1
ssg75
g4667
sg68
(lp4674
S'/rdcdss/appadmin/index'
p4675
asbasbasbasbasbasbasbag61
(g77
g63
NtRp4676
(dp4677
g66
(dp4678
sg75
g4294
sg68
(lp4679
g61
(g82
g63
NtRp4680
(dp4681
g66
(dp4682
sg75
g4676
sg68
(lp4683
g61
(g62
g63
NtRp4684
(dp4685
g66
(dp4686
g74
I2
ssg75
g4680
sg68
(lp4687
g61
(g70
g63
NtRp4688
(dp4689
g66
(dp4690
g74
I1
ssg75
Nsg68
(lp4691
g61
(g77
g63
NtRp4692
(dp4693
g66
(dp4694
sg75
g4688
sg68
(lp4695
g61
(g82
g63
NtRp4696
(dp4697
g66
(dp4698
sg75
g4692
sg68
(lp4699
g61
(g62
g63
NtRp4700
(dp4701
g66
(dp4702
g74
I1
ssg75
g4696
sg68
(lp4703
g4185
(S's\x06\x00\x00\x00Errors'
tRp4704
asbasbasbag61
(g77
g63
NtRp4705
(dp4706
g66
(dp4707
sg75
g4688
sg68
(lp4708
g61
(g82
g63
NtRp4709
(dp4710
g66
(dp4711
sg75
g4705
sg68
(lp4712
g61
(g62
g63
NtRp4713
(dp4714
g66
(dp4715
g74
I1
ssg75
g4709
sg68
(lp4716
I00
asbasbasbag61
(g77
g63
NtRp4717
(dp4718
g66
(dp4719
sg75
g4688
sg68
(lp4720
g61
(g82
g63
NtRp4721
(dp4722
g66
(dp4723
sg75
g4717
sg68
(lp4724
g61
(g62
g63
NtRp4725
(dp4726
g66
(dp4727
g74
I1
ssg75
g4721
sg68
(lp4728
S'/admin/default/errors/rdcdss'
p4729
asbasbasbasbasbasbasbag61
(g77
g63
NtRp4730
(dp4731
g66
(dp4732
sg75
g4294
sg68
(lp4733
g61
(g82
g63
NtRp4734
(dp4735
g66
(dp4736
sg75
g4730
sg68
(lp4737
g61
(g62
g63
NtRp4738
(dp4739
g66
(dp4740
g74
I2
ssg75
g4734
sg68
(lp4741
g61
(g70
g63
NtRp4742
(dp4743
g66
(dp4744
g74
I1
ssg75
Nsg68
(lp4745
g61
(g77
g63
NtRp4746
(dp4747
g66
(dp4748
sg75
g4742
sg68
(lp4749
g61
(g82
g63
NtRp4750
(dp4751
g66
(dp4752
sg75
g4746
sg68
(lp4753
g61
(g62
g63
NtRp4754
(dp4755
g66
(dp4756
g74
I1
ssg75
g4750
sg68
(lp4757
g4185
(S's\x05\x00\x00\x00About'
tRp4758
asbasbasbag61
(g77
g63
NtRp4759
(dp4760
g66
(dp4761
sg75
g4742
sg68
(lp4762
g61
(g82
g63
NtRp4763
(dp4764
g66
(dp4765
sg75
g4759
sg68
(lp4766
g61
(g62
g63
NtRp4767
(dp4768
g66
(dp4769
g74
I1
ssg75
g4763
sg68
(lp4770
I00
asbasbasbag61
(g77
g63
NtRp4771
(dp4772
g66
(dp4773
sg75
g4742
sg68
(lp4774
g61
(g82
g63
NtRp4775
(dp4776
g66
(dp4777
sg75
g4771
sg68
(lp4778
g61
(g62
g63
NtRp4779
(dp4780
g66
(dp4781
g74
I1
ssg75
g4775
sg68
(lp4782
S'/admin/default/about/rdcdss'
p4783
asbasbasbasbasbasbasbasbasbasbasbasbasbasbasbag61
(g77
g63
NtRp4784
(dp4785
g66
(dp4786
sg75
g4153
sg68
(lp4787
g61
(g82
g63
NtRp4788
(dp4789
g66
(dp4790
sg75
g4784
sg68
(lp4791
g61
(g62
g63
NtRp4792
(dp4793
g66
(dp4794
g74
I4
ssg75
g4788
sg68
(lp4795
g61
(g70
g63
NtRp4796
(dp4797
g66
(dp4798
g74
I3
ssg75
Nsg68
(lp4799
g61
(g77
g63
NtRp4800
(dp4801
g66
(dp4802
sg75
g4796
sg68
(lp4803
g61
(g82
g63
NtRp4804
(dp4805
g66
(dp4806
sg75
g4800
sg68
(lp4807
g61
(g62
g63
NtRp4808
(dp4809
g66
(dp4810
g74
I3
ssg75
g4804
sg68
(lp4811
g4185
(S's\t\x00\x00\x00Resources'
tRp4812
asbasbasbag61
(g77
g63
NtRp4813
(dp4814
g66
(dp4815
sg75
g4796
sg68
(lp4816
g61
(g82
g63
NtRp4817
(dp4818
g66
(dp4819
sg75
g4813
sg68
(lp4820
g61
(g62
g63
NtRp4821
(dp4822
g66
(dp4823
g74
I3
ssg75
g4817
sg68
(lp4824
g104
asbasbasbag61
(g77
g63
NtRp4825
(dp4826
g66
(dp4827
sg75
g4796
sg68
(lp4828
g61
(g82
g63
NtRp4829
(dp4830
g66
(dp4831
sg75
g4825
sg68
(lp4832
g61
(g62
g63
NtRp4833
(dp4834
g66
(dp4835
g74
I3
ssg75
g4829
sg68
(lp4836
S'None'
p4837
asbasbasbag61
(g77
g63
NtRp4838
(dp4839
g66
(dp4840
sg75
g4796
sg68
(lp4841
g61
(g82
g63
NtRp4842
(dp4843
g66
(dp4844
sg75
g4838
sg68
(lp4845
g61
(g62
g63
NtRp4846
(dp4847
g66
(dp4848
g74
I3
ssg75
g4842
sg68
(lp4849
g61
(g70
g63
NtRp4850
(dp4851
g66
(dp4852
g74
I2
ssg75
Nsg68
(lp4853
g61
(g77
g63
NtRp4854
(dp4855
g66
(dp4856
sg75
g4850
sg68
(lp4857
g61
(g82
g63
NtRp4858
(dp4859
g66
(dp4860
sg75
g4854
sg68
(lp4861
g61
(g62
g63
NtRp4862
(dp4863
g66
(dp4864
g74
I2
ssg75
g4858
sg68
(lp4865
g61
(g70
g63
NtRp4866
(dp4867
g66
(dp4868
g74
I1
ssg75
Nsg68
(lp4869
g61
(g77
g63
NtRp4870
(dp4871
g66
(dp4872
sg75
g4866
sg68
(lp4873
g61
(g82
g63
NtRp4874
(dp4875
g66
(dp4876
sg75
g4870
sg68
(lp4877
g61
(g62
g63
NtRp4878
(dp4879
g66
(dp4880
g74
I1
ssg75
g4874
sg68
(lp4881
g4185
(S's\r\x00\x00\x00Documentation'
tRp4882
asbasbasbag61
(g77
g63
NtRp4883
(dp4884
g66
(dp4885
sg75
g4866
sg68
(lp4886
g61
(g82
g63
NtRp4887
(dp4888
g66
(dp4889
sg75
g4883
sg68
(lp4890
g61
(g62
g63
NtRp4891
(dp4892
g66
(dp4893
g74
I1
ssg75
g4887
sg68
(lp4894
I00
asbasbasbag61
(g77
g63
NtRp4895
(dp4896
g66
(dp4897
sg75
g4866
sg68
(lp4898
g61
(g82
g63
NtRp4899
(dp4900
g66
(dp4901
sg75
g4895
sg68
(lp4902
g61
(g62
g63
NtRp4903
(dp4904
g66
(dp4905
g74
I1
ssg75
g4899
sg68
(lp4906
S'http://www.web2py.com/book'
p4907
asbasbasbag61
(g77
g63
NtRp4908
(dp4909
g66
(dp4910
sg75
g4866
sg68
(lp4911
g61
(g82
g63
NtRp4912
(dp4913
g66
(dp4914
sg75
g4908
sg68
(lp4915
g61
(g62
g63
NtRp4916
(dp4917
g66
(dp4918
g74
I1
ssg75
g4912
sg68
(lp4919
(lp4920
(g4185
(S's\x07\x00\x00\x00Preface'
tRp4921
I00
S'http://www.web2py.com/book/default/chapter/00'
tp4922
a(g4185
(S's\x0c\x00\x00\x00Introduction'
tRp4923
I00
S'http://www.web2py.com/book/default/chapter/01'
tp4924
a(g4185
(S's\x06\x00\x00\x00Python'
tRp4925
I00
S'http://www.web2py.com/book/default/chapter/02'
tp4926
a(g4185
(S's\x08\x00\x00\x00Overview'
tRp4927
I00
S'http://www.web2py.com/book/default/chapter/03'
tp4928
a(g4185
(S's\x08\x00\x00\x00The Core'
tRp4929
I00
S'http://www.web2py.com/book/default/chapter/04'
tp4930
a(g4185
(S's\t\x00\x00\x00The Views'
tRp4931
I00
S'http://www.web2py.com/book/default/chapter/05'
tp4932
a(g4185
(S's\x08\x00\x00\x00Database'
tRp4933
I00
S'http://www.web2py.com/book/default/chapter/06'
tp4934
a(g4185
(S's\x14\x00\x00\x00Forms and Validators'
tRp4935
I00
S'http://www.web2py.com/book/default/chapter/07'
tp4936
a(g4185
(S's\x0e\x00\x00\x00Access Control'
tRp4937
I00
S'http://www.web2py.com/book/default/chapter/08'
tp4938
a(g4185
(S's\x08\x00\x00\x00Services'
tRp4939
I00
S'http://www.web2py.com/book/default/chapter/09'
tp4940
a(g4185
(S's\x0c\x00\x00\x00Ajax Recipes'
tRp4941
I00
S'http://www.web2py.com/book/default/chapter/10'
tp4942
a(g4185
(S's\x12\x00\x00\x00Deployment Recipes'
tRp4943
I00
S'http://www.web2py.com/book/default/chapter/11'
tp4944
a(g4185
(S's\r\x00\x00\x00Other Recipes'
tRp4945
I00
S'http://www.web2py.com/book/default/chapter/12'
tp4946
a(g4185
(S's\r\x00\x00\x00Buy this book'
tRp4947
I00
S'http://stores.lulu.com/web2py'
tp4948
aasbasbasbasbasbasbasbag61
(g77
g63
NtRp4949
(dp4950
g66
(dp4951
sg75
g4850
sg68
(lp4952
g61
(g82
g63
NtRp4953
(dp4954
g66
(dp4955
sg75
g4949
sg68
(lp4956
g61
(g62
g63
NtRp4957
(dp4958
g66
(dp4959
g74
I2
ssg75
g4953
sg68
(lp4960
g61
(g70
g63
NtRp4961
(dp4962
g66
(dp4963
g74
I1
ssg75
Nsg68
(lp4964
g61
(g77
g63
NtRp4965
(dp4966
g66
(dp4967
sg75
g4961
sg68
(lp4968
g61
(g82
g63
NtRp4969
(dp4970
g66
(dp4971
sg75
g4965
sg68
(lp4972
g61
(g62
g63
NtRp4973
(dp4974
g66
(dp4975
g74
I1
ssg75
g4969
sg68
(lp4976
g4185
(S's\t\x00\x00\x00Community'
tRp4977
asbasbasbag61
(g77
g63
NtRp4978
(dp4979
g66
(dp4980
sg75
g4961
sg68
(lp4981
g61
(g82
g63
NtRp4982
(dp4983
g66
(dp4984
sg75
g4978
sg68
(lp4985
g61
(g62
g63
NtRp4986
(dp4987
g66
(dp4988
g74
I1
ssg75
g4982
sg68
(lp4989
I00
asbasbasbag61
(g77
g63
NtRp4990
(dp4991
g66
(dp4992
sg75
g4961
sg68
(lp4993
g61
(g82
g63
NtRp4994
(dp4995
g66
(dp4996
sg75
g4990
sg68
(lp4997
g61
(g62
g63
NtRp4998
(dp4999
g66
(dp5000
g74
I1
ssg75
g4994
sg68
(lp5001
Nasbasbasbag61
(g77
g63
NtRp5002
(dp5003
g66
(dp5004
sg75
g4961
sg68
(lp5005
g61
(g82
g63
NtRp5006
(dp5007
g66
(dp5008
sg75
g5002
sg68
(lp5009
g61
(g62
g63
NtRp5010
(dp5011
g66
(dp5012
g74
I1
ssg75
g5006
sg68
(lp5013
(lp5014
(g4185
(S's\x06\x00\x00\x00Groups'
tRp5015
I00
S'http://www.web2py.com/examples/default/usergroups'
tp5016
a(g4185
(S's\x07\x00\x00\x00Twitter'
tRp5017
I00
S'http://twitter.com/web2py'
tp5018
a(g4185
(S's\t\x00\x00\x00Live chat'
tRp5019
I00
S'http://mibbit.com/?channel=%23web2py&server=irc.mibbit.net'
tp5020
a(g4185
(S's\n\x00\x00\x00User Voice'
tRp5021
I00
S'http://web2py.uservoice.com/'
tp5022
aasbasbasbasbasbasbasbag61
(g77
g63
NtRp5023
(dp5024
g66
(dp5025
sg75
g4850
sg68
(lp5026
g61
(g82
g63
NtRp5027
(dp5028
g66
(dp5029
sg75
g5023
sg68
(lp5030
g61
(g62
g63
NtRp5031
(dp5032
g66
(dp5033
g74
I2
ssg75
g5027
sg68
(lp5034
g61
(g70
g63
NtRp5035
(dp5036
g66
(dp5037
g74
I1
ssg75
Nsg68
(lp5038
g61
(g77
g63
NtRp5039
(dp5040
g66
(dp5041
sg75
g5035
sg68
(lp5042
g61
(g82
g63
NtRp5043
(dp5044
g66
(dp5045
sg75
g5039
sg68
(lp5046
g61
(g62
g63
NtRp5047
(dp5048
g66
(dp5049
g74
I1
ssg75
g5043
sg68
(lp5050
g4185
(S's\x06\x00\x00\x00Web2py'
tRp5051
asbasbasbag61
(g77
g63
NtRp5052
(dp5053
g66
(dp5054
sg75
g5035
sg68
(lp5055
g61
(g82
g63
NtRp5056
(dp5057
g66
(dp5058
sg75
g5052
sg68
(lp5059
g61
(g62
g63
NtRp5060
(dp5061
g66
(dp5062
g74
I1
ssg75
g5056
sg68
(lp5063
I00
asbasbasbag61
(g77
g63
NtRp5064
(dp5065
g66
(dp5066
sg75
g5035
sg68
(lp5067
g61
(g82
g63
NtRp5068
(dp5069
g66
(dp5070
sg75
g5064
sg68
(lp5071
g61
(g62
g63
NtRp5072
(dp5073
g66
(dp5074
g74
I1
ssg75
g5068
sg68
(lp5075
S'http://www.web2py.com'
p5076
asbasbasbag61
(g77
g63
NtRp5077
(dp5078
g66
(dp5079
sg75
g5035
sg68
(lp5080
g61
(g82
g63
NtRp5081
(dp5082
g66
(dp5083
sg75
g5077
sg68
(lp5084
g61
(g62
g63
NtRp5085
(dp5086
g66
(dp5087
g74
I1
ssg75
g5081
sg68
(lp5088
(lp5089
(g4185
(S's\x08\x00\x00\x00Download'
tRp5090
I00
S'http://www.web2py.com/examples/default/download'
tp5091
a(g4185
(S's\x07\x00\x00\x00Support'
tRp5092
I00
S'http://www.web2py.com/examples/default/support'
tp5093
a(g4185
(S's\x0e\x00\x00\x00Quick Examples'
tRp5094
I00
S'http://web2py.com/examples/default/examples'
tp5095
a(g4185
(S's\x03\x00\x00\x00FAQ'
tRp5096
I00
S'http://web2py.com/AlterEgo'
tp5097
a(g4185
(S's\x11\x00\x00\x00Free Applications'
tRp5098
I00
S'http://web2py.com/appliances'
tp5099
a(g4185
(S's\x07\x00\x00\x00Plugins'
tRp5100
I00
S'http://web2py.com/plugins'
tp5101
a(g4185
(S's\x07\x00\x00\x00Recipes'
tRp5102
I00
S'http://web2pyslices.com/'
tp5103
a(g4185
(S's\x04\x00\x00\x00Demo'
tRp5104
I00
S'http://web2py.com/demo_admin'
tp5105
a(g4185
(S's\x08\x00\x00\x00Semantic'
tRp5106
I00
S'http://web2py.com/semantic'
tp5107
a(g4185
(S's\x07\x00\x00\x00Layouts'
tRp5108
I00
S'http://web2py.com/layouts'
tp5109
a(g4185
(S's\x06\x00\x00\x00Videos'
tRp5110
I00
S'http://www.web2py.com/examples/default/videos/'
tp5111
aasbasbasbasbasbasbasbasbasbasbasbasbasbasbasbasbasbasbasbag61
(g77
g63
NtRp5112
(dp5113
g66
(dp5114
sg75
g3739
sg68
(lp5115
g61
(g82
g63
NtRp5116
(dp5117
g66
(dp5118
g86
g87
ssg75
g5112
sg68
(lp5119
S'meta'
p5120
asbag61
(g82
g63
NtRp5121
(dp5122
g66
(dp5123
g93
g94
ssg75
g5112
sg68
(lp5124
S':'
asbag61
(g82
g63
NtRp5125
(dp5126
g66
(dp5127
sg75
g5112
sg68
(lp5128
g61
(g62
g63
NtRp5129
(dp5130
g66
(dp5131
g74
I5
ssg75
g5125
sg68
(lp5132
g61
(g70
g63
NtRp5133
(dp5134
g66
(dp5135
g74
I4
ssg75
Nsg68
(lp5136
g61
(g77
g63
NtRp5137
(dp5138
g66
(dp5139
sg75
g5133
sg68
(lp5140
g61
(g82
g63
NtRp5141
(dp5142
g66
(dp5143
g86
g87
ssg75
g5137
sg68
(lp5144
S'author'
p5145
asbag61
(g82
g63
NtRp5146
(dp5147
g66
(dp5148
g93
g94
ssg75
g5137
sg68
(lp5149
S':'
asbag61
(g82
g63
NtRp5150
(dp5151
g66
(dp5152
sg75
g5137
sg68
(lp5153
g61
(g62
g63
NtRp5154
(dp5155
g66
(dp5156
g74
I4
ssg75
g5150
sg68
(lp5157
S'you'
p5158
asbasbasbag61
(g77
g63
NtRp5159
(dp5160
g66
(dp5161
sg75
g5133
sg68
(lp5162
g61
(g82
g63
NtRp5163
(dp5164
g66
(dp5165
g86
g87
ssg75
g5159
sg68
(lp5166
S'copyright'
p5167
asbag61
(g82
g63
NtRp5168
(dp5169
g66
(dp5170
g93
g94
ssg75
g5159
sg68
(lp5171
S':'
asbag61
(g82
g63
NtRp5172
(dp5173
g66
(dp5174
sg75
g5159
sg68
(lp5175
g61
(g62
g63
NtRp5176
(dp5177
g66
(dp5178
g74
I4
ssg75
g5172
sg68
(lp5179
S'Copyright 2007-2010'
p5180
asbasbasbag61
(g77
g63
NtRp5181
(dp5182
g66
(dp5183
sg75
g5133
sg68
(lp5184
g61
(g82
g63
NtRp5185
(dp5186
g66
(dp5187
g86
g87
ssg75
g5181
sg68
(lp5188
S'description'
p5189
asbag61
(g82
g63
NtRp5190
(dp5191
g66
(dp5192
g93
g94
ssg75
g5181
sg68
(lp5193
S':'
asbag61
(g82
g63
NtRp5194
(dp5195
g66
(dp5196
sg75
g5181
sg68
(lp5197
g61
(g62
g63
NtRp5198
(dp5199
g66
(dp5200
g74
I4
ssg75
g5194
sg68
(lp5201
S'Free and open source full-stack enterprise framework for agile development of fast, scalable, secure and portable database-driven web-based applications. Written and programmable in Python'
p5202
asbasbasbag61
(g77
g63
NtRp5203
(dp5204
g66
(dp5205
sg75
g5133
sg68
(lp5206
g61
(g82
g63
NtRp5207
(dp5208
g66
(dp5209
g86
g87
ssg75
g5203
sg68
(lp5210
S'generator'
p5211
asbag61
(g82
g63
NtRp5212
(dp5213
g66
(dp5214
g93
g94
ssg75
g5203
sg68
(lp5215
S':'
asbag61
(g82
g63
NtRp5216
(dp5217
g66
(dp5218
sg75
g5203
sg68
(lp5219
g61
(g62
g63
NtRp5220
(dp5221
g66
(dp5222
g74
I4
ssg75
g5216
sg68
(lp5223
S'Web2py Enterprise Framework'
p5224
asbasbasbag61
(g77
g63
NtRp5225
(dp5226
g66
(dp5227
sg75
g5133
sg68
(lp5228
g61
(g82
g63
NtRp5229
(dp5230
g66
(dp5231
g86
g87
ssg75
g5225
sg68
(lp5232
S'keywords'
p5233
asbag61
(g82
g63
NtRp5234
(dp5235
g66
(dp5236
g93
g94
ssg75
g5225
sg68
(lp5237
S':'
asbag61
(g82
g63
NtRp5238
(dp5239
g66
(dp5240
sg75
g5225
sg68
(lp5241
g61
(g62
g63
NtRp5242
(dp5243
g66
(dp5244
g74
I4
ssg75
g5238
sg68
(lp5245
S'web2py, python, framework'
p5246
asbasbasbasbasbasbasbag61
(g77
g63
NtRp5247
(dp5248
g66
(dp5249
sg75
g3739
sg68
(lp5250
g61
(g82
g63
NtRp5251
(dp5252
g66
(dp5253
g86
g87
ssg75
g5247
sg68
(lp5254
S'postprocessing'
p5255
asbag61
(g82
g63
NtRp5256
(dp5257
g66
(dp5258
g93
g94
ssg75
g5247
sg68
(lp5259
S':'
asbag61
(g82
g63
NtRp5260
(dp5261
g66
(dp5262
sg75
g5247
sg68
(lp5263
g61
(g62
g63
NtRp5264
(dp5265
g66
(dp5266
g74
I5
ssg75
g5260
sg68
(lp5267
g61
(g70
g63
NtRp5268
(dp5269
g66
(dp5270
g74
I4
ssg75
Nsg68
(lp5271
sbasbasbasbag61
(g77
g63
NtRp5272
(dp5273
g66
(dp5274
sg75
g3739
sg68
(lp5275
g61
(g82
g63
NtRp5276
(dp5277
g66
(dp5278
g86
g87
ssg75
g5272
sg68
(lp5279
S'session_file'
p5280
asbag61
(g82
g63
NtRp5281
(dp5282
g66
(dp5283
g93
g94
ssg75
g5272
sg68
(lp5284
S':'
asbag61
(g82
g63
NtRp5285
(dp5286
g66
(dp5287
sg75
g5272
sg68
(lp5288
g61
(g62
g63
NtRp5289
(dp5290
g66
(dp5291
g74
I5
ssg75
g5285
sg68
(lp5292
S"<open file '/home/www-data/web2py/applications/rdcdss/sessions/89.123.39.111-97c6888c-e310-48f9-83c5-3c554d897ae7', mode 'rb+' at 0x2b50bfe18c90>"
p5293
asbasbasbag61
(g77
g63
NtRp5294
(dp5295
g66
(dp5296
sg75
g3739
sg68
(lp5297
g61
(g82
g63
NtRp5298
(dp5299
g66
(dp5300
g86
g87
ssg75
g5294
sg68
(lp5301
S'session_filename'
p5302
asbag61
(g82
g63
NtRp5303
(dp5304
g66
(dp5305
g93
g94
ssg75
g5294
sg68
(lp5306
S':'
asbag61
(g82
g63
NtRp5307
(dp5308
g66
(dp5309
sg75
g5294
sg68
(lp5310
g61
(g62
g63
NtRp5311
(dp5312
g66
(dp5313
g74
I5
ssg75
g5307
sg68
(lp5314
S'/home/www-data/web2py/applications/rdcdss/sessions/89.123.39.111-97c6888c-e310-48f9-83c5-3c554d897ae7'
p5315
asbasbasbag61
(g77
g63
NtRp5316
(dp5317
g66
(dp5318
sg75
g3739
sg68
(lp5319
g61
(g82
g63
NtRp5320
(dp5321
g66
(dp5322
g86
g87
ssg75
g5316
sg68
(lp5323
S'session_id'
p5324
asbag61
(g82
g63
NtRp5325
(dp5326
g66
(dp5327
g93
g94
ssg75
g5316
sg68
(lp5328
S':'
asbag61
(g82
g63
NtRp5329
(dp5330
g66
(dp5331
sg75
g5316
sg68
(lp5332
g61
(g62
g63
NtRp5333
(dp5334
g66
(dp5335
g74
I5
ssg75
g5329
sg68
(lp5336
S'89.123.39.111-97c6888c-e310-48f9-83c5-3c554d897ae7'
p5337
asbasbasbag61
(g77
g63
NtRp5338
(dp5339
g66
(dp5340
sg75
g3739
sg68
(lp5341
g61
(g82
g63
NtRp5342
(dp5343
g66
(dp5344
g86
g87
ssg75
g5338
sg68
(lp5345
S'session_id_name'
p5346
asbag61
(g82
g63
NtRp5347
(dp5348
g66
(dp5349
g93
g94
ssg75
g5338
sg68
(lp5350
S':'
asbag61
(g82
g63
NtRp5351
(dp5352
g66
(dp5353
sg75
g5338
sg68
(lp5354
g61
(g62
g63
NtRp5355
(dp5356
g66
(dp5357
g74
I5
ssg75
g5351
sg68
(lp5358
g3796
asbasbasbag61
(g77
g63
NtRp5359
(dp5360
g66
(dp5361
sg75
g3739
sg68
(lp5362
g61
(g82
g63
NtRp5363
(dp5364
g66
(dp5365
g86
g87
ssg75
g5359
sg68
(lp5366
S'session_locked'
p5367
asbag61
(g82
g63
NtRp5368
(dp5369
g66
(dp5370
g93
g94
ssg75
g5359
sg68
(lp5371
S':'
asbag61
(g82
g63
NtRp5372
(dp5373
g66
(dp5374
sg75
g5359
sg68
(lp5375
g61
(g62
g63
NtRp5376
(dp5377
g66
(dp5378
g74
I5
ssg75
g5372
sg68
(lp5379
g2152
asbasbasbag61
(g77
g63
NtRp5380
(dp5381
g66
(dp5382
sg75
g3739
sg68
(lp5383
g61
(g82
g63
NtRp5384
(dp5385
g66
(dp5386
g86
g87
ssg75
g5380
sg68
(lp5387
S'session_new'
p5388
asbag61
(g82
g63
NtRp5389
(dp5390
g66
(dp5391
g93
g94
ssg75
g5380
sg68
(lp5392
S':'
asbag61
(g82
g63
NtRp5393
(dp5394
g66
(dp5395
sg75
g5380
sg68
(lp5396
g61
(g62
g63
NtRp5397
(dp5398
g66
(dp5399
g74
I5
ssg75
g5393
sg68
(lp5400
g104
asbasbasbag61
(g77
g63
NtRp5401
(dp5402
g66
(dp5403
sg75
g3739
sg68
(lp5404
g61
(g82
g63
NtRp5405
(dp5406
g66
(dp5407
g86
g87
ssg75
g5401
sg68
(lp5408
S'status'
p5409
asbag61
(g82
g63
NtRp5410
(dp5411
g66
(dp5412
g93
g94
ssg75
g5401
sg68
(lp5413
S':'
asbag61
(g82
g63
NtRp5414
(dp5415
g66
(dp5416
sg75
g5401
sg68
(lp5417
g61
(g62
g63
NtRp5418
(dp5419
g66
(dp5420
g74
I5
ssg75
g5414
sg68
(lp5421
S'200'
p5422
asbasbasbag61
(g77
g63
NtRp5423
(dp5424
g66
(dp5425
sg75
g3739
sg68
(lp5426
g61
(g82
g63
NtRp5427
(dp5428
g66
(dp5429
g86
g87
ssg75
g5423
sg68
(lp5430
S'subtitle'
p5431
asbag61
(g82
g63
NtRp5432
(dp5433
g66
(dp5434
g93
g94
ssg75
g5423
sg68
(lp5435
S':'
asbag61
(g82
g63
NtRp5436
(dp5437
g66
(dp5438
sg75
g5423
sg68
(lp5439
g61
(g62
g63
NtRp5440
(dp5441
g66
(dp5442
g74
I5
ssg75
g5436
sg68
(lp5443
g4185
(S's\r\x00\x00\x00customize me!'
tRp5444
asbasbasbag61
(g77
g63
NtRp5445
(dp5446
g66
(dp5447
sg75
g3739
sg68
(lp5448
g61
(g82
g63
NtRp5449
(dp5450
g66
(dp5451
g86
g87
ssg75
g5445
sg68
(lp5452
S'title'
p5453
asbag61
(g82
g63
NtRp5454
(dp5455
g66
(dp5456
g93
g94
ssg75
g5445
sg68
(lp5457
S':'
asbag61
(g82
g63
NtRp5458
(dp5459
g66
(dp5460
sg75
g5445
sg68
(lp5461
g61
(g62
g63
NtRp5462
(dp5463
g66
(dp5464
g74
I5
ssg75
g5458
sg68
(lp5465
g126
asbasbasbag61
(g77
g63
NtRp5466
(dp5467
g66
(dp5468
sg75
g3739
sg68
(lp5469
g61
(g82
g63
NtRp5470
(dp5471
g66
(dp5472
g86
g87
ssg75
g5466
sg68
(lp5473
g2455
asbag61
(g82
g63
NtRp5474
(dp5475
g66
(dp5476
g93
g94
ssg75
g5466
sg68
(lp5477
S':'
asbag61
(g82
g63
NtRp5478
(dp5479
g66
(dp5480
sg75
g5466
sg68
(lp5481
g61
(g62
g63
NtRp5482
(dp5483
g66
(dp5484
g74
I5
ssg75
g5478
sg68
(lp5485
g2468
asbasbasbag61
(g77
g63
NtRp5486
(dp5487
g66
(dp5488
sg75
g3739
sg68
(lp5489
g61
(g82
g63
NtRp5490
(dp5491
g66
(dp5492
g86
g87
ssg75
g5486
sg68
(lp5493
S'view'
p5494
asbag61
(g82
g63
NtRp5495
(dp5496
g66
(dp5497
g93
g94
ssg75
g5486
sg68
(lp5498
S':'
asbag61
(g82
g63
NtRp5499
(dp5500
g66
(dp5501
sg75
g5486
sg68
(lp5502
g61
(g62
g63
NtRp5503
(dp5504
g66
(dp5505
g74
I5
ssg75
g5499
sg68
(lp5506
S'default/index.html'
p5507
asbasbasbasbasbsS'locals'
p5508
(dp5509
S'distable'
p5510
S"''"
p5511
sS'RUNQUERYPATH'
p5512
S"'../master/code/runQuery/'"
p5513
sS'checked'
p5514
S'None'
p5515
sS'diseases'
p5516
S"'CHECKED'"
p5517
sS'hashstring'
p5518
S"'3a1b92aede7779aa81007fa3ecebbd27'"
p5519
sS'timer'
p5520
S"''"
p5521
sS't0'
p5522
S'1.3600000000000001'
p5523
sS'table'
p5524
S"''"
p5525
sS'collection'
p5526
S"''"
p5527
sS'query'
p5528
S"'anemia'"
p5529
sS'logfile'
p5530
S"<open file 'logs/89.123.39.111-97c6888c-e310-48f9-83c5-3c554d897ae7', mode 'a'>"
p5531
sssS'traceback'
p5532
S'Traceback (most recent call last):\n  File "/home/www-data/web2py/gluon/restricted.py", line 181, in restricted\n    exec ccode in environment\n  File "/home/www-data/web2py/applications/rdcdss/controllers/default.py", line 233, in <module>\n  File "/home/www-data/web2py/gluon/globals.py", line 133, in <lambda>\n    self._caller = lambda f: f()\n  File "/home/www-data/web2py/applications/rdcdss/controllers/default.py", line 49, in index\n    db.t_resdis.import_from_csv_file(open(os.getcwd()+\'/results/\'+hashstring+\'.dis\',\'r\'))\nIOError: [Errno 2] No such file or directory: \'/home/www-data/web2py/results/3a1b92aede7779aa81007fa3ecebbd27.dis\'\n'
p5533
s.