(dp1
S'output'
p2
S''
sS'layer'
p3
S'/home/www-data/web2py/applications/rdcdss/controllers/default.py'
p4
sS'code'
p5
S'# -*- coding: utf-8 -*- \n# this file is released under public domain and you can use without limitations\n\n#########################################################################\n## This is a samples controller\n## - index is the default action of any application\n## - user is required for authentication and authorization\n## - download is for downloading files uploaded in the db (does streaming)\n## - call exposes all registered services (none by default)\n#########################################################################\nimport os\nimport time\nimport hashlib\nimport cPickle\n\ndef index():\n    """\n    Test powerTable\n    """\n    RUNQUERYPATH = "../master/code/runQuery/"\n    session.data = {}\n    session.query = ""\n    logfile = open(\'logs/\'+str(response.session_id),\'a\')\n    logfile.write("SESSION: "+str(response.session_id)+"\\n")\n    logfile.write("TIME: "+time.strftime("%X %x %z")+"\\n")\n    db.t_result.truncate()\n    db.t_resdis.truncate()\n    query = ""\n    collection = ""\n    diseases = ""\n    reranking = ""\n    timer = ""\n    table = ""\n    distable = ""\n    if request.vars.q:\n        t0 = time.clock()\n        query = request.vars.q\n        checked = request.vars.c\n        os.system(\'pwd\')\n        if checked == "on":\n            hashstring = hashlib.md5(request.vars.q+"index_raregenet"+str(time.time())).hexdigest()\n            collection = "CHECKED"\n            os.system(\'sh \'+RUNQUERYPATH+\'runQueryDiseases.sh "\'+request.vars.q+\'" index_raregenet \'+hashstring)\n            diseases = "CHECKED"\n        else:\n            hashstring = hashlib.md5(request.vars.q+"index_rare"+str(time.time())).hexdigest()\n            collection = ""\n            os.system(\'sh \'+RUNQUERYPATH+\'runQueryDiseases.sh "\'+request.vars.q+\'" index_rare \'+hashstring)\n            diseases = "CHECKED"\n        \n        db.t_result.truncate()\n        db.t_result.import_from_csv_file(open(os.getcwd()+\'/results/\'+hashstring,\'r\'))\n        rows = []\n        session.data["documentix"]={"query":query,"raregenet":checked, "session_id":response.session_id}\n        for row in db().select(db.t_result.ALL):\n            session.data["document"]["results"]={"result_"+row.f_rank:{"title":row.f_title,"url":row.f_url,"snippet":row.f_snippet}}\n            rows.append(row)\n        session.hashstring = hashstring\n        session.query = query\n        db.t_resdis.truncate()\n        db.t_resdis.import_from_csv_file(open(os.getcwd()+\'/results/\'+hashstring+\'.dis\',\'r\'))\n        timer = time.clock() - t0\n        logfile.write("QUERY: "+query+"\\n")\n        logfile.write("GENETIC CHECKED: "+str(checked)+"\\n")\n        logfile.write("RESULT FILE: "+hashstring+"\\n")\n        logfile.write("SECONDS: "+str(timer)+"\\n")\n        logfile.close()\n        #table = createResultTable(db.t_result)\n        distable = createDiseaseTable(db.t_resdis)\n        #distable = SQLTABLE(db().select(db.t_resdis.f_rank,db.t_resdis.f_disease,db.t_resdis.f_freq,db.t_resdis.f_docnos),headers=\'labels\',truncate=80)\n        timer = str(timer)[:5] + " seconds"\n        print timer\n        #session.data["document"]["timer"]=timer\n\n    return locals()\n    \ndef createResultTable(data):\n    class Virtual(object):\n        @virtualsettings(label=T(\'Source\'))\n        def sourcelink(self):\n            return A(self.t_result.f_source,_href=self.t_result.f_url,_target=\'_blank\')\n    \n    table = plugins.powerTable\n    table.datasource = data\n            \n    table.dtfeatures[\'sScrollY\'] = \'100%\'\n    table.virtualfields = Virtual()\n    table.dtfeatures[\'bSort\'] = False\n    table.dtfeatures[\'aaSortingFixed\'] = [[2,\'asc\']]\n    table.dtfeatures[\'iDisplayLength\'] = 20\n    table.dtfeatures[\'bPaginate\'] =  False\n    \n    table.truncate = 60 \n    table.headers = \'labels\'\n    table.keycolumn = \'t_result.id\'\n    table.showkeycolumn = False\n    table.extra = dict(\n                       details={\'detailscolumns\':\'t_result.f_title,t_result.f_url,t_result.f_snippet\',\'detailscallback\':URL(\'display_details.load\')}\n                       )\n    table.columns = [\'t_result.f_rank\',\n                     \'t_result.f_title\',\n                     \'virtual.sourcelink\',\n                     #\'t_result.f_source\',\n                     #\'t_result.f_docno\',\n                     #\'t_result.f_score\',\n                    ]\n    table.hiddencolumns = [\'t_result.f_source\',\'t_result.f_url\']\n    table.dtfeatures[\'bInfo\'] =  False\n    table.dtfeatures[\'bFilter\'] =  False\n    table.dtfeatures[\'bAutoWidth\'] =  False\n    table.dtfeatures[\'aoColumns\'] = [\n            { \'sWidth\': \'0%\' },\n            { \'sWidth\': \'5.5%\' },\n            { \'sWidth\': \'5.5%\' },\n            { \'sWidth\': \'55.5%\' },\n            { \'sWidth\': \'33.5%\' }\n        ]\n    return table.create()\n\ndef createDiseaseTable(data):\n    distable = plugins.powerTable\n    distable.datasource = data\n    \n    distable.dtfeatures[\'sScrollY\'] = \'100%\'\n    distable.dtfeatures[\'bSort\'] = False\n    distable.dtfeatures[\'aaSortingFixed\'] = [[2,\'asc\']]\n    distable.dtfeatures[\'iDisplayLength\'] = 20\n    distable.dtfeatures[\'bPaginate\'] =  False\n    distable.dtfeatures[\'bInfo\'] =  False\n    distable.dtfeatures[\'bFilter\'] =  False\n    \n    distable.truncate = 60 \n    distable.headers = \'labels\'\n    distable.keycolumn = \'t_resdis.id\'\n    distable.showkeycolumn = False\n    \n    distable.columns = [\'t_resdis.f_rank\',\n                     \'t_resdis.f_disease\',\n                     \'t_resdis.f_freq\',\n                     \'t_resdis.f_docnos\',\n                     ]\n                     \n    return distable.create()\n\ndef filterOnString(fs):\n        fs = fs.lower()\n        query = (db.t_result.f_title.lower().contains(fs) | db.t_result.f_snippet.lower().contains(fs) | db.t_result.f_source.lower().contains(fs) ) \n        return db(query).select()\n \ndef display_details():\n    """\n    return a custom object to be inserted in detail for table\n    """\n    key = None\n    cols = None\n    for k in request.vars.keys():\n        if k[:3] == \'dt_\':\n            key = request.vars[k]\n        elif k[:6] == \'dtcols\':\n            cols = request.vars[k]\n\n    value = int(key.split(\'.\')[2])\n    rows = cPickle.load(response.session_file)[\'data\']\n    row = rows[value-1]\n\n    logfile = open(\'logs/\'+str(response.session_id),\'a\')\n    logfile.write("OPENED DETAILS FOR RANK: "+str(value)+"\\n")\n    logfile.close()\n    \n    details = DIV(B("Title: "))\n    details.append(P(str(row[0])))\n    details.append(B("URL: "))\n    details.append(P(A(str(row[1]),_href=str(row[1]),_target=\'_blank\')))\n    details.append(B("Text: "))\n    details.append(P(str(row[2])))\n    return details\n\ndef feedback():\n    if request.vars.comment:\n        feedbackfile = open("logs/messages","a")\n        feedbackfile.write("SESSION: "+str(response.session_id)+"\\n")\n        feedbackfile.write("TIME: "+time.strftime("%X %x %z")+"\\n")\n        if session.query:\n            feedbackfile.write("QUERY: "+str(session.query)+"\\n")\n        if session.hashstring:\n            feedbackfile.write("RESULT FILE: "+str(session.hashstring)+"\\n")\n        else:\n            feedbackfile.write("RESULT FILE: "+"no recent queries"+"\\n")\n        if response.session_id:\n            feedbackfile.write("LOG FILE: "+str(response.session_id)+"\\n")\n        feedbackfile.write("COMMENT: \'"+str(request.vars.comment)+"\'\\n")\n        feedbackfile.close()\n        message="Feedback received. Thank you!"\n        return message\n    return ""\n\ndef filterResults():\n    fword = str(request.vars.values()[0])\n    data = filterOnString(fword)\n    table = createResultTable(data)\n    return str(table) + "<script>addFilterBox(\'"+str(fword)+"\');$(\'input#fword\').focus().val($(\'input#fword\').val());</script>"\n\ndef user():\n    """\n    exposes:\n    http://..../[app]/default/user/login \n    http://..../[app]/default/user/logout\n    http://..../[app]/default/user/register\n    http://..../[app]/default/user/profile\n    http://..../[app]/default/user/retrieve_password\n    http://..../[app]/default/user/change_password\n    use @auth.requires_login()\n        @auth.requires_membership(\'group name\')\n        @auth.requires_permission(\'read\',\'table name\',record_id)\n    to decorate functions that need access control\n    """\n    return dict(form=auth())\n\n\ndef download():\n    """\n    allows downloading of uploaded files\n    http://..../[app]/default/download/[filename]\n    """\n    return response.download(request,db)\n\n\ndef call():\n    """\n    exposes services. for example:\n    http://..../[app]/default/call/jsonrpc\n    decorate with @services.jsonrpc the functions to expose\n    supports xml, json, xmlrpc, jsonrpc, amfrpc, rss, csv\n    """\n    session.forget()\n    return service()\n\nresponse._vars=response._caller(index)\n'
p6
sS'snapshot'
p7
(dp8
S'exception'
p9
(dp10
S'__hash__'
p11
S"<method-wrapper '__hash__' of exceptions.KeyError object>"
p12
sS'__setattr__'
p13
S"<method-wrapper '__setattr__' of exceptions.KeyError object>"
p14
sS'__reduce_ex__'
p15
S'<built-in method __reduce_ex__ of exceptions.KeyError object>'
p16
sS'__getslice__'
p17
S"<method-wrapper '__getslice__' of exceptions.KeyError object>"
p18
sS'__getitem__'
p19
S"<method-wrapper '__getitem__' of exceptions.KeyError object>"
p20
sS'__setstate__'
p21
S'<built-in method __setstate__ of exceptions.KeyError object>'
p22
sS'args'
p23
S"('document',)"
p24
sS'__reduce__'
p25
S'<built-in method __reduce__ of exceptions.KeyError object>'
p26
sS'__str__'
p27
S"<method-wrapper '__str__' of exceptions.KeyError object>"
p28
sS'__format__'
p29
S'<built-in method __format__ of exceptions.KeyError object>'
p30
sS'__getattribute__'
p31
S"<method-wrapper '__getattribute__' of exceptions.KeyError object>"
p32
sS'__class__'
p33
S"<type 'exceptions.KeyError'>"
p34
sS'__unicode__'
p35
S'<built-in method __unicode__ of exceptions.KeyError object>'
p36
sS'__delattr__'
p37
S"<method-wrapper '__delattr__' of exceptions.KeyError object>"
p38
sS'__subclasshook__'
p39
S'<built-in method __subclasshook__ of type object>'
p40
sS'__repr__'
p41
S"<method-wrapper '__repr__' of exceptions.KeyError object>"
p42
sS'__dict__'
p43
S'{}'
p44
sS'__sizeof__'
p45
S'<built-in method __sizeof__ of exceptions.KeyError object>'
p46
sS'__doc__'
p47
S"'Mapping key not found.'"
p48
sS'__init__'
p49
S"<method-wrapper '__init__' of exceptions.KeyError object>"
p50
sS'__new__'
p51
S'<built-in method __new__ of type object>'
p52
ssS'evalue'
p53
S"'document'"
p54
sS'request'
p55
ccopy_reg
_reconstructor
p56
(cgluon.html
BEAUTIFY
p57
c__builtin__
object
p58
NtRp59
(dp60
S'attributes'
p61
(dp62
sS'components'
p63
(lp64
g56
(cgluon.html
TABLE
p65
g58
NtRp66
(dp67
g61
(dp68
S'level'
p69
I5
ssS'parent'
p70
Nsg63
(lp71
g56
(cgluon.html
TR
p72
g58
NtRp73
(dp74
g61
(dp75
sg70
g66
sg63
(lp76
g56
(cgluon.html
TD
p77
g58
NtRp78
(dp79
g61
(dp80
S'_style'
p81
S'font-weight:bold;'
p82
ssg70
g73
sg63
(lp83
S'ajax'
p84
asbag56
(g77
g58
NtRp85
(dp86
g61
(dp87
S'_valign'
p88
S'top'
p89
ssg70
g73
sg63
(lp90
S':'
asbag56
(g77
g58
NtRp91
(dp92
g61
(dp93
sg70
g73
sg63
(lp94
g56
(g57
g58
NtRp95
(dp96
g61
(dp97
g69
I5
ssg70
g91
sg63
(lp98
S'False'
p99
asbasbasbag56
(g72
g58
NtRp100
(dp101
g61
(dp102
sg70
g66
sg63
(lp103
g56
(g77
g58
NtRp104
(dp105
g61
(dp106
g81
g82
ssg70
g100
sg63
(lp107
S'application'
p108
asbag56
(g77
g58
NtRp109
(dp110
g61
(dp111
g88
g89
ssg70
g100
sg63
(lp112
S':'
asbag56
(g77
g58
NtRp113
(dp114
g61
(dp115
sg70
g100
sg63
(lp116
g56
(g57
g58
NtRp117
(dp118
g61
(dp119
g69
I5
ssg70
g113
sg63
(lp120
S'rdcdss'
p121
asbasbasbag56
(g72
g58
NtRp122
(dp123
g61
(dp124
sg70
g66
sg63
(lp125
g56
(g77
g58
NtRp126
(dp127
g61
(dp128
g81
g82
ssg70
g122
sg63
(lp129
g23
asbag56
(g77
g58
NtRp130
(dp131
g61
(dp132
g88
g89
ssg70
g122
sg63
(lp133
S':'
asbag56
(g77
g58
NtRp134
(dp135
g61
(dp136
sg70
g122
sg63
(lp137
g56
(g57
g58
NtRp138
(dp139
g61
(dp140
g69
I5
ssg70
g134
sg63
(lp141
g56
(g65
g58
NtRp142
(dp143
g61
(dp144
g69
I4
ssg70
Nsg63
(lp145
sbasbasbasbag56
(g72
g58
NtRp146
(dp147
g61
(dp148
sg70
g66
sg63
(lp149
g56
(g77
g58
NtRp150
(dp151
g61
(dp152
g81
g82
ssg70
g146
sg63
(lp153
S'body'
p154
asbag56
(g77
g58
NtRp155
(dp156
g61
(dp157
g88
g89
ssg70
g146
sg63
(lp158
S':'
asbag56
(g77
g58
NtRp159
(dp160
g61
(dp161
sg70
g146
sg63
(lp162
g56
(g57
g58
NtRp163
(dp164
g61
(dp165
g69
I5
ssg70
g159
sg63
(lp166
S'<cStringIO.StringO object at 0x2b9be0ad8ca8>'
p167
asbasbasbag56
(g72
g58
NtRp168
(dp169
g61
(dp170
sg70
g66
sg63
(lp171
g56
(g77
g58
NtRp172
(dp173
g61
(dp174
g81
g82
ssg70
g168
sg63
(lp175
S'client'
p176
asbag56
(g77
g58
NtRp177
(dp178
g61
(dp179
g88
g89
ssg70
g168
sg63
(lp180
S':'
asbag56
(g77
g58
NtRp181
(dp182
g61
(dp183
sg70
g168
sg63
(lp184
g56
(g57
g58
NtRp185
(dp186
g61
(dp187
g69
I5
ssg70
g181
sg63
(lp188
S'89.123.2.193'
p189
asbasbasbag56
(g72
g58
NtRp190
(dp191
g61
(dp192
sg70
g66
sg63
(lp193
g56
(g77
g58
NtRp194
(dp195
g61
(dp196
g81
g82
ssg70
g190
sg63
(lp197
S'controller'
p198
asbag56
(g77
g58
NtRp199
(dp200
g61
(dp201
g88
g89
ssg70
g190
sg63
(lp202
S':'
asbag56
(g77
g58
NtRp203
(dp204
g61
(dp205
sg70
g190
sg63
(lp206
g56
(g57
g58
NtRp207
(dp208
g61
(dp209
g69
I5
ssg70
g203
sg63
(lp210
S'default'
p211
asbasbasbag56
(g72
g58
NtRp212
(dp213
g61
(dp214
sg70
g66
sg63
(lp215
g56
(g77
g58
NtRp216
(dp217
g61
(dp218
g81
g82
ssg70
g212
sg63
(lp219
S'cookies'
p220
asbag56
(g77
g58
NtRp221
(dp222
g61
(dp223
g88
g89
ssg70
g212
sg63
(lp224
S':'
asbag56
(g77
g58
NtRp225
(dp226
g61
(dp227
sg70
g212
sg63
(lp228
g56
(g57
g58
NtRp229
(dp230
g61
(dp231
g69
I5
ssg70
g225
sg63
(lp232
g56
(g65
g58
NtRp233
(dp234
g61
(dp235
g69
I4
ssg70
Nsg63
(lp236
g56
(g72
g58
NtRp237
(dp238
g61
(dp239
sg70
g233
sg63
(lp240
g56
(g77
g58
NtRp241
(dp242
g61
(dp243
g81
g82
ssg70
g237
sg63
(lp244
S'session_id_admin'
p245
asbag56
(g77
g58
NtRp246
(dp247
g61
(dp248
g88
g89
ssg70
g237
sg63
(lp249
S':'
asbag56
(g77
g58
NtRp250
(dp251
g61
(dp252
sg70
g237
sg63
(lp253
g56
(g57
g58
NtRp254
(dp255
g61
(dp256
g69
I4
ssg70
g250
sg63
(lp257
g56
(g65
g58
NtRp258
(dp259
g61
(dp260
g69
I3
ssg70
Nsg63
(lp261
g56
(g72
g58
NtRp262
(dp263
g61
(dp264
sg70
g258
sg63
(lp265
g56
(g77
g58
NtRp266
(dp267
g61
(dp268
g81
g82
ssg70
g262
sg63
(lp269
S'comment'
p270
asbag56
(g77
g58
NtRp271
(dp272
g61
(dp273
g88
g89
ssg70
g262
sg63
(lp274
S':'
asbag56
(g77
g58
NtRp275
(dp276
g61
(dp277
sg70
g262
sg63
(lp278
g56
(g57
g58
NtRp279
(dp280
g61
(dp281
g69
I3
ssg70
g275
sg63
(lp282
S''
asbasbasbag56
(g72
g58
NtRp283
(dp284
g61
(dp285
sg70
g258
sg63
(lp286
g56
(g77
g58
NtRp287
(dp288
g61
(dp289
g81
g82
ssg70
g283
sg63
(lp290
S'domain'
p291
asbag56
(g77
g58
NtRp292
(dp293
g61
(dp294
g88
g89
ssg70
g283
sg63
(lp295
S':'
asbag56
(g77
g58
NtRp296
(dp297
g61
(dp298
sg70
g283
sg63
(lp299
g56
(g57
g58
NtRp300
(dp301
g61
(dp302
g69
I3
ssg70
g296
sg63
(lp303
S''
asbasbasbag56
(g72
g58
NtRp304
(dp305
g61
(dp306
sg70
g258
sg63
(lp307
g56
(g77
g58
NtRp308
(dp309
g61
(dp310
g81
g82
ssg70
g304
sg63
(lp311
S'expires'
p312
asbag56
(g77
g58
NtRp313
(dp314
g61
(dp315
g88
g89
ssg70
g304
sg63
(lp316
S':'
asbag56
(g77
g58
NtRp317
(dp318
g61
(dp319
sg70
g304
sg63
(lp320
g56
(g57
g58
NtRp321
(dp322
g61
(dp323
g69
I3
ssg70
g317
sg63
(lp324
S''
asbasbasbag56
(g72
g58
NtRp325
(dp326
g61
(dp327
sg70
g258
sg63
(lp328
g56
(g77
g58
NtRp329
(dp330
g61
(dp331
g81
g82
ssg70
g325
sg63
(lp332
S'httponly'
p333
asbag56
(g77
g58
NtRp334
(dp335
g61
(dp336
g88
g89
ssg70
g325
sg63
(lp337
S':'
asbag56
(g77
g58
NtRp338
(dp339
g61
(dp340
sg70
g325
sg63
(lp341
g56
(g57
g58
NtRp342
(dp343
g61
(dp344
g69
I3
ssg70
g338
sg63
(lp345
S''
asbasbasbag56
(g72
g58
NtRp346
(dp347
g61
(dp348
sg70
g258
sg63
(lp349
g56
(g77
g58
NtRp350
(dp351
g61
(dp352
g81
g82
ssg70
g346
sg63
(lp353
S'max-age'
p354
asbag56
(g77
g58
NtRp355
(dp356
g61
(dp357
g88
g89
ssg70
g346
sg63
(lp358
S':'
asbag56
(g77
g58
NtRp359
(dp360
g61
(dp361
sg70
g346
sg63
(lp362
g56
(g57
g58
NtRp363
(dp364
g61
(dp365
g69
I3
ssg70
g359
sg63
(lp366
S''
asbasbasbag56
(g72
g58
NtRp367
(dp368
g61
(dp369
sg70
g258
sg63
(lp370
g56
(g77
g58
NtRp371
(dp372
g61
(dp373
g81
g82
ssg70
g367
sg63
(lp374
S'path'
p375
asbag56
(g77
g58
NtRp376
(dp377
g61
(dp378
g88
g89
ssg70
g367
sg63
(lp379
S':'
asbag56
(g77
g58
NtRp380
(dp381
g61
(dp382
sg70
g367
sg63
(lp383
g56
(g57
g58
NtRp384
(dp385
g61
(dp386
g69
I3
ssg70
g380
sg63
(lp387
S''
asbasbasbag56
(g72
g58
NtRp388
(dp389
g61
(dp390
sg70
g258
sg63
(lp391
g56
(g77
g58
NtRp392
(dp393
g61
(dp394
g81
g82
ssg70
g388
sg63
(lp395
S'secure'
p396
asbag56
(g77
g58
NtRp397
(dp398
g61
(dp399
g88
g89
ssg70
g388
sg63
(lp400
S':'
asbag56
(g77
g58
NtRp401
(dp402
g61
(dp403
sg70
g388
sg63
(lp404
g56
(g57
g58
NtRp405
(dp406
g61
(dp407
g69
I3
ssg70
g401
sg63
(lp408
S''
asbasbasbag56
(g72
g58
NtRp409
(dp410
g61
(dp411
sg70
g258
sg63
(lp412
g56
(g77
g58
NtRp413
(dp414
g61
(dp415
g81
g82
ssg70
g409
sg63
(lp416
S'version'
p417
asbag56
(g77
g58
NtRp418
(dp419
g61
(dp420
g88
g89
ssg70
g409
sg63
(lp421
S':'
asbag56
(g77
g58
NtRp422
(dp423
g61
(dp424
sg70
g409
sg63
(lp425
g56
(g57
g58
NtRp426
(dp427
g61
(dp428
g69
I3
ssg70
g422
sg63
(lp429
S''
asbasbasbasbasbasbasbag56
(g72
g58
NtRp430
(dp431
g61
(dp432
sg70
g233
sg63
(lp433
g56
(g77
g58
NtRp434
(dp435
g61
(dp436
g81
g82
ssg70
g430
sg63
(lp437
S'session_id_raredisss_devel'
p438
asbag56
(g77
g58
NtRp439
(dp440
g61
(dp441
g88
g89
ssg70
g430
sg63
(lp442
S':'
asbag56
(g77
g58
NtRp443
(dp444
g61
(dp445
sg70
g430
sg63
(lp446
g56
(g57
g58
NtRp447
(dp448
g61
(dp449
g69
I4
ssg70
g443
sg63
(lp450
g56
(g65
g58
NtRp451
(dp452
g61
(dp453
g69
I3
ssg70
Nsg63
(lp454
g56
(g72
g58
NtRp455
(dp456
g61
(dp457
sg70
g451
sg63
(lp458
g56
(g77
g58
NtRp459
(dp460
g61
(dp461
g81
g82
ssg70
g455
sg63
(lp462
g270
asbag56
(g77
g58
NtRp463
(dp464
g61
(dp465
g88
g89
ssg70
g455
sg63
(lp466
S':'
asbag56
(g77
g58
NtRp467
(dp468
g61
(dp469
sg70
g455
sg63
(lp470
g56
(g57
g58
NtRp471
(dp472
g61
(dp473
g69
I3
ssg70
g467
sg63
(lp474
S''
asbasbasbag56
(g72
g58
NtRp475
(dp476
g61
(dp477
sg70
g451
sg63
(lp478
g56
(g77
g58
NtRp479
(dp480
g61
(dp481
g81
g82
ssg70
g475
sg63
(lp482
g291
asbag56
(g77
g58
NtRp483
(dp484
g61
(dp485
g88
g89
ssg70
g475
sg63
(lp486
S':'
asbag56
(g77
g58
NtRp487
(dp488
g61
(dp489
sg70
g475
sg63
(lp490
g56
(g57
g58
NtRp491
(dp492
g61
(dp493
g69
I3
ssg70
g487
sg63
(lp494
S''
asbasbasbag56
(g72
g58
NtRp495
(dp496
g61
(dp497
sg70
g451
sg63
(lp498
g56
(g77
g58
NtRp499
(dp500
g61
(dp501
g81
g82
ssg70
g495
sg63
(lp502
g312
asbag56
(g77
g58
NtRp503
(dp504
g61
(dp505
g88
g89
ssg70
g495
sg63
(lp506
S':'
asbag56
(g77
g58
NtRp507
(dp508
g61
(dp509
sg70
g495
sg63
(lp510
g56
(g57
g58
NtRp511
(dp512
g61
(dp513
g69
I3
ssg70
g507
sg63
(lp514
S''
asbasbasbag56
(g72
g58
NtRp515
(dp516
g61
(dp517
sg70
g451
sg63
(lp518
g56
(g77
g58
NtRp519
(dp520
g61
(dp521
g81
g82
ssg70
g515
sg63
(lp522
g333
asbag56
(g77
g58
NtRp523
(dp524
g61
(dp525
g88
g89
ssg70
g515
sg63
(lp526
S':'
asbag56
(g77
g58
NtRp527
(dp528
g61
(dp529
sg70
g515
sg63
(lp530
g56
(g57
g58
NtRp531
(dp532
g61
(dp533
g69
I3
ssg70
g527
sg63
(lp534
S''
asbasbasbag56
(g72
g58
NtRp535
(dp536
g61
(dp537
sg70
g451
sg63
(lp538
g56
(g77
g58
NtRp539
(dp540
g61
(dp541
g81
g82
ssg70
g535
sg63
(lp542
g354
asbag56
(g77
g58
NtRp543
(dp544
g61
(dp545
g88
g89
ssg70
g535
sg63
(lp546
S':'
asbag56
(g77
g58
NtRp547
(dp548
g61
(dp549
sg70
g535
sg63
(lp550
g56
(g57
g58
NtRp551
(dp552
g61
(dp553
g69
I3
ssg70
g547
sg63
(lp554
S''
asbasbasbag56
(g72
g58
NtRp555
(dp556
g61
(dp557
sg70
g451
sg63
(lp558
g56
(g77
g58
NtRp559
(dp560
g61
(dp561
g81
g82
ssg70
g555
sg63
(lp562
g375
asbag56
(g77
g58
NtRp563
(dp564
g61
(dp565
g88
g89
ssg70
g555
sg63
(lp566
S':'
asbag56
(g77
g58
NtRp567
(dp568
g61
(dp569
sg70
g555
sg63
(lp570
g56
(g57
g58
NtRp571
(dp572
g61
(dp573
g69
I3
ssg70
g567
sg63
(lp574
S''
asbasbasbag56
(g72
g58
NtRp575
(dp576
g61
(dp577
sg70
g451
sg63
(lp578
g56
(g77
g58
NtRp579
(dp580
g61
(dp581
g81
g82
ssg70
g575
sg63
(lp582
g396
asbag56
(g77
g58
NtRp583
(dp584
g61
(dp585
g88
g89
ssg70
g575
sg63
(lp586
S':'
asbag56
(g77
g58
NtRp587
(dp588
g61
(dp589
sg70
g575
sg63
(lp590
g56
(g57
g58
NtRp591
(dp592
g61
(dp593
g69
I3
ssg70
g587
sg63
(lp594
S''
asbasbasbag56
(g72
g58
NtRp595
(dp596
g61
(dp597
sg70
g451
sg63
(lp598
g56
(g77
g58
NtRp599
(dp600
g61
(dp601
g81
g82
ssg70
g595
sg63
(lp602
g417
asbag56
(g77
g58
NtRp603
(dp604
g61
(dp605
g88
g89
ssg70
g595
sg63
(lp606
S':'
asbag56
(g77
g58
NtRp607
(dp608
g61
(dp609
sg70
g595
sg63
(lp610
g56
(g57
g58
NtRp611
(dp612
g61
(dp613
g69
I3
ssg70
g607
sg63
(lp614
S''
asbasbasbasbasbasbasbag56
(g72
g58
NtRp615
(dp616
g61
(dp617
sg70
g233
sg63
(lp618
g56
(g77
g58
NtRp619
(dp620
g61
(dp621
g81
g82
ssg70
g615
sg63
(lp622
S'session_id_rdcdss'
p623
asbag56
(g77
g58
NtRp624
(dp625
g61
(dp626
g88
g89
ssg70
g615
sg63
(lp627
S':'
asbag56
(g77
g58
NtRp628
(dp629
g61
(dp630
sg70
g615
sg63
(lp631
g56
(g57
g58
NtRp632
(dp633
g61
(dp634
g69
I4
ssg70
g628
sg63
(lp635
g56
(g65
g58
NtRp636
(dp637
g61
(dp638
g69
I3
ssg70
Nsg63
(lp639
g56
(g72
g58
NtRp640
(dp641
g61
(dp642
sg70
g636
sg63
(lp643
g56
(g77
g58
NtRp644
(dp645
g61
(dp646
g81
g82
ssg70
g640
sg63
(lp647
g270
asbag56
(g77
g58
NtRp648
(dp649
g61
(dp650
g88
g89
ssg70
g640
sg63
(lp651
S':'
asbag56
(g77
g58
NtRp652
(dp653
g61
(dp654
sg70
g640
sg63
(lp655
g56
(g57
g58
NtRp656
(dp657
g61
(dp658
g69
I3
ssg70
g652
sg63
(lp659
S''
asbasbasbag56
(g72
g58
NtRp660
(dp661
g61
(dp662
sg70
g636
sg63
(lp663
g56
(g77
g58
NtRp664
(dp665
g61
(dp666
g81
g82
ssg70
g660
sg63
(lp667
g291
asbag56
(g77
g58
NtRp668
(dp669
g61
(dp670
g88
g89
ssg70
g660
sg63
(lp671
S':'
asbag56
(g77
g58
NtRp672
(dp673
g61
(dp674
sg70
g660
sg63
(lp675
g56
(g57
g58
NtRp676
(dp677
g61
(dp678
g69
I3
ssg70
g672
sg63
(lp679
S''
asbasbasbag56
(g72
g58
NtRp680
(dp681
g61
(dp682
sg70
g636
sg63
(lp683
g56
(g77
g58
NtRp684
(dp685
g61
(dp686
g81
g82
ssg70
g680
sg63
(lp687
g312
asbag56
(g77
g58
NtRp688
(dp689
g61
(dp690
g88
g89
ssg70
g680
sg63
(lp691
S':'
asbag56
(g77
g58
NtRp692
(dp693
g61
(dp694
sg70
g680
sg63
(lp695
g56
(g57
g58
NtRp696
(dp697
g61
(dp698
g69
I3
ssg70
g692
sg63
(lp699
S''
asbasbasbag56
(g72
g58
NtRp700
(dp701
g61
(dp702
sg70
g636
sg63
(lp703
g56
(g77
g58
NtRp704
(dp705
g61
(dp706
g81
g82
ssg70
g700
sg63
(lp707
g333
asbag56
(g77
g58
NtRp708
(dp709
g61
(dp710
g88
g89
ssg70
g700
sg63
(lp711
S':'
asbag56
(g77
g58
NtRp712
(dp713
g61
(dp714
sg70
g700
sg63
(lp715
g56
(g57
g58
NtRp716
(dp717
g61
(dp718
g69
I3
ssg70
g712
sg63
(lp719
S''
asbasbasbag56
(g72
g58
NtRp720
(dp721
g61
(dp722
sg70
g636
sg63
(lp723
g56
(g77
g58
NtRp724
(dp725
g61
(dp726
g81
g82
ssg70
g720
sg63
(lp727
g354
asbag56
(g77
g58
NtRp728
(dp729
g61
(dp730
g88
g89
ssg70
g720
sg63
(lp731
S':'
asbag56
(g77
g58
NtRp732
(dp733
g61
(dp734
sg70
g720
sg63
(lp735
g56
(g57
g58
NtRp736
(dp737
g61
(dp738
g69
I3
ssg70
g732
sg63
(lp739
S''
asbasbasbag56
(g72
g58
NtRp740
(dp741
g61
(dp742
sg70
g636
sg63
(lp743
g56
(g77
g58
NtRp744
(dp745
g61
(dp746
g81
g82
ssg70
g740
sg63
(lp747
g375
asbag56
(g77
g58
NtRp748
(dp749
g61
(dp750
g88
g89
ssg70
g740
sg63
(lp751
S':'
asbag56
(g77
g58
NtRp752
(dp753
g61
(dp754
sg70
g740
sg63
(lp755
g56
(g57
g58
NtRp756
(dp757
g61
(dp758
g69
I3
ssg70
g752
sg63
(lp759
S''
asbasbasbag56
(g72
g58
NtRp760
(dp761
g61
(dp762
sg70
g636
sg63
(lp763
g56
(g77
g58
NtRp764
(dp765
g61
(dp766
g81
g82
ssg70
g760
sg63
(lp767
g396
asbag56
(g77
g58
NtRp768
(dp769
g61
(dp770
g88
g89
ssg70
g760
sg63
(lp771
S':'
asbag56
(g77
g58
NtRp772
(dp773
g61
(dp774
sg70
g760
sg63
(lp775
g56
(g57
g58
NtRp776
(dp777
g61
(dp778
g69
I3
ssg70
g772
sg63
(lp779
S''
asbasbasbag56
(g72
g58
NtRp780
(dp781
g61
(dp782
sg70
g636
sg63
(lp783
g56
(g77
g58
NtRp784
(dp785
g61
(dp786
g81
g82
ssg70
g780
sg63
(lp787
g417
asbag56
(g77
g58
NtRp788
(dp789
g61
(dp790
g88
g89
ssg70
g780
sg63
(lp791
S':'
asbag56
(g77
g58
NtRp792
(dp793
g61
(dp794
sg70
g780
sg63
(lp795
g56
(g57
g58
NtRp796
(dp797
g61
(dp798
g69
I3
ssg70
g792
sg63
(lp799
S''
asbasbasbasbasbasbasbag56
(g72
g58
NtRp800
(dp801
g61
(dp802
sg70
g233
sg63
(lp803
g56
(g77
g58
NtRp804
(dp805
g61
(dp806
g81
g82
ssg70
g800
sg63
(lp807
S'session_id_welcome'
p808
asbag56
(g77
g58
NtRp809
(dp810
g61
(dp811
g88
g89
ssg70
g800
sg63
(lp812
S':'
asbag56
(g77
g58
NtRp813
(dp814
g61
(dp815
sg70
g800
sg63
(lp816
g56
(g57
g58
NtRp817
(dp818
g61
(dp819
g69
I4
ssg70
g813
sg63
(lp820
g56
(g65
g58
NtRp821
(dp822
g61
(dp823
g69
I3
ssg70
Nsg63
(lp824
g56
(g72
g58
NtRp825
(dp826
g61
(dp827
sg70
g821
sg63
(lp828
g56
(g77
g58
NtRp829
(dp830
g61
(dp831
g81
g82
ssg70
g825
sg63
(lp832
g270
asbag56
(g77
g58
NtRp833
(dp834
g61
(dp835
g88
g89
ssg70
g825
sg63
(lp836
S':'
asbag56
(g77
g58
NtRp837
(dp838
g61
(dp839
sg70
g825
sg63
(lp840
g56
(g57
g58
NtRp841
(dp842
g61
(dp843
g69
I3
ssg70
g837
sg63
(lp844
S''
asbasbasbag56
(g72
g58
NtRp845
(dp846
g61
(dp847
sg70
g821
sg63
(lp848
g56
(g77
g58
NtRp849
(dp850
g61
(dp851
g81
g82
ssg70
g845
sg63
(lp852
g291
asbag56
(g77
g58
NtRp853
(dp854
g61
(dp855
g88
g89
ssg70
g845
sg63
(lp856
S':'
asbag56
(g77
g58
NtRp857
(dp858
g61
(dp859
sg70
g845
sg63
(lp860
g56
(g57
g58
NtRp861
(dp862
g61
(dp863
g69
I3
ssg70
g857
sg63
(lp864
S''
asbasbasbag56
(g72
g58
NtRp865
(dp866
g61
(dp867
sg70
g821
sg63
(lp868
g56
(g77
g58
NtRp869
(dp870
g61
(dp871
g81
g82
ssg70
g865
sg63
(lp872
g312
asbag56
(g77
g58
NtRp873
(dp874
g61
(dp875
g88
g89
ssg70
g865
sg63
(lp876
S':'
asbag56
(g77
g58
NtRp877
(dp878
g61
(dp879
sg70
g865
sg63
(lp880
g56
(g57
g58
NtRp881
(dp882
g61
(dp883
g69
I3
ssg70
g877
sg63
(lp884
S''
asbasbasbag56
(g72
g58
NtRp885
(dp886
g61
(dp887
sg70
g821
sg63
(lp888
g56
(g77
g58
NtRp889
(dp890
g61
(dp891
g81
g82
ssg70
g885
sg63
(lp892
g333
asbag56
(g77
g58
NtRp893
(dp894
g61
(dp895
g88
g89
ssg70
g885
sg63
(lp896
S':'
asbag56
(g77
g58
NtRp897
(dp898
g61
(dp899
sg70
g885
sg63
(lp900
g56
(g57
g58
NtRp901
(dp902
g61
(dp903
g69
I3
ssg70
g897
sg63
(lp904
S''
asbasbasbag56
(g72
g58
NtRp905
(dp906
g61
(dp907
sg70
g821
sg63
(lp908
g56
(g77
g58
NtRp909
(dp910
g61
(dp911
g81
g82
ssg70
g905
sg63
(lp912
g354
asbag56
(g77
g58
NtRp913
(dp914
g61
(dp915
g88
g89
ssg70
g905
sg63
(lp916
S':'
asbag56
(g77
g58
NtRp917
(dp918
g61
(dp919
sg70
g905
sg63
(lp920
g56
(g57
g58
NtRp921
(dp922
g61
(dp923
g69
I3
ssg70
g917
sg63
(lp924
S''
asbasbasbag56
(g72
g58
NtRp925
(dp926
g61
(dp927
sg70
g821
sg63
(lp928
g56
(g77
g58
NtRp929
(dp930
g61
(dp931
g81
g82
ssg70
g925
sg63
(lp932
g375
asbag56
(g77
g58
NtRp933
(dp934
g61
(dp935
g88
g89
ssg70
g925
sg63
(lp936
S':'
asbag56
(g77
g58
NtRp937
(dp938
g61
(dp939
sg70
g925
sg63
(lp940
g56
(g57
g58
NtRp941
(dp942
g61
(dp943
g69
I3
ssg70
g937
sg63
(lp944
S''
asbasbasbag56
(g72
g58
NtRp945
(dp946
g61
(dp947
sg70
g821
sg63
(lp948
g56
(g77
g58
NtRp949
(dp950
g61
(dp951
g81
g82
ssg70
g945
sg63
(lp952
g396
asbag56
(g77
g58
NtRp953
(dp954
g61
(dp955
g88
g89
ssg70
g945
sg63
(lp956
S':'
asbag56
(g77
g58
NtRp957
(dp958
g61
(dp959
sg70
g945
sg63
(lp960
g56
(g57
g58
NtRp961
(dp962
g61
(dp963
g69
I3
ssg70
g957
sg63
(lp964
S''
asbasbasbag56
(g72
g58
NtRp965
(dp966
g61
(dp967
sg70
g821
sg63
(lp968
g56
(g77
g58
NtRp969
(dp970
g61
(dp971
g81
g82
ssg70
g965
sg63
(lp972
g417
asbag56
(g77
g58
NtRp973
(dp974
g61
(dp975
g88
g89
ssg70
g965
sg63
(lp976
S':'
asbag56
(g77
g58
NtRp977
(dp978
g61
(dp979
sg70
g965
sg63
(lp980
g56
(g57
g58
NtRp981
(dp982
g61
(dp983
g69
I3
ssg70
g977
sg63
(lp984
S''
asbasbasbasbasbasbasbasbasbasbasbag56
(g72
g58
NtRp985
(dp986
g61
(dp987
sg70
g66
sg63
(lp988
g56
(g77
g58
NtRp989
(dp990
g61
(dp991
g81
g82
ssg70
g985
sg63
(lp992
S'env'
p993
asbag56
(g77
g58
NtRp994
(dp995
g61
(dp996
g88
g89
ssg70
g985
sg63
(lp997
S':'
asbag56
(g77
g58
NtRp998
(dp999
g61
(dp1000
sg70
g985
sg63
(lp1001
g56
(g57
g58
NtRp1002
(dp1003
g61
(dp1004
g69
I5
ssg70
g998
sg63
(lp1005
g56
(g65
g58
NtRp1006
(dp1007
g61
(dp1008
g69
I4
ssg70
Nsg63
(lp1009
g56
(g72
g58
NtRp1010
(dp1011
g61
(dp1012
sg70
g1006
sg63
(lp1013
g56
(g77
g58
NtRp1014
(dp1015
g61
(dp1016
g81
g82
ssg70
g1010
sg63
(lp1017
S'app_folders'
p1018
asbag56
(g77
g58
NtRp1019
(dp1020
g61
(dp1021
g88
g89
ssg70
g1010
sg63
(lp1022
S':'
asbag56
(g77
g58
NtRp1023
(dp1024
g61
(dp1025
sg70
g1010
sg63
(lp1026
g56
(g57
g58
NtRp1027
(dp1028
g61
(dp1029
g69
I4
ssg70
g1023
sg63
(lp1030
S"set(['/home/www-data/web2py/applications/rdcdss/', '/home/www-data/web2py/applications/examples/', '/home/www-data/web2py/applications/RareDisSS_Stable/', '/home/www-data/web2py/applications/welcome/', '/home/www-data/web2py/applications/admin/', '/home/www-data/web2py/applications/RareDisSS_Devel/'])"
p1031
asbasbasbag56
(g72
g58
NtRp1032
(dp1033
g61
(dp1034
sg70
g1006
sg63
(lp1035
g56
(g77
g58
NtRp1036
(dp1037
g61
(dp1038
g81
g82
ssg70
g1032
sg63
(lp1039
S'applications_parent'
p1040
asbag56
(g77
g58
NtRp1041
(dp1042
g61
(dp1043
g88
g89
ssg70
g1032
sg63
(lp1044
S':'
asbag56
(g77
g58
NtRp1045
(dp1046
g61
(dp1047
sg70
g1032
sg63
(lp1048
g56
(g57
g58
NtRp1049
(dp1050
g61
(dp1051
g69
I4
ssg70
g1045
sg63
(lp1052
S'/home/www-data/web2py'
p1053
asbasbasbag56
(g72
g58
NtRp1054
(dp1055
g61
(dp1056
sg70
g1006
sg63
(lp1057
g56
(g77
g58
NtRp1058
(dp1059
g61
(dp1060
g81
g82
ssg70
g1054
sg63
(lp1061
S'db_sessions'
p1062
asbag56
(g77
g58
NtRp1063
(dp1064
g61
(dp1065
g88
g89
ssg70
g1054
sg63
(lp1066
S':'
asbag56
(g77
g58
NtRp1067
(dp1068
g61
(dp1069
sg70
g1054
sg63
(lp1070
g56
(g57
g58
NtRp1071
(dp1072
g61
(dp1073
g69
I4
ssg70
g1067
sg63
(lp1074
S'set([])'
p1075
asbasbasbag56
(g72
g58
NtRp1076
(dp1077
g61
(dp1078
sg70
g1006
sg63
(lp1079
g56
(g77
g58
NtRp1080
(dp1081
g61
(dp1082
g81
g82
ssg70
g1076
sg63
(lp1083
S'debugging'
p1084
asbag56
(g77
g58
NtRp1085
(dp1086
g61
(dp1087
g88
g89
ssg70
g1076
sg63
(lp1088
S':'
asbag56
(g77
g58
NtRp1089
(dp1090
g61
(dp1091
sg70
g1076
sg63
(lp1092
g56
(g57
g58
NtRp1093
(dp1094
g61
(dp1095
g69
I4
ssg70
g1089
sg63
(lp1096
g99
asbasbasbag56
(g72
g58
NtRp1097
(dp1098
g61
(dp1099
sg70
g1006
sg63
(lp1100
g56
(g77
g58
NtRp1101
(dp1102
g61
(dp1103
g81
g82
ssg70
g1097
sg63
(lp1104
S'document_root'
p1105
asbag56
(g77
g58
NtRp1106
(dp1107
g61
(dp1108
g88
g89
ssg70
g1097
sg63
(lp1109
S':'
asbag56
(g77
g58
NtRp1110
(dp1111
g61
(dp1112
sg70
g1097
sg63
(lp1113
g56
(g57
g58
NtRp1114
(dp1115
g61
(dp1116
g69
I4
ssg70
g1110
sg63
(lp1117
S'/etc/apache2/htdocs'
p1118
asbasbasbag56
(g72
g58
NtRp1119
(dp1120
g61
(dp1121
sg70
g1006
sg63
(lp1122
g56
(g77
g58
NtRp1123
(dp1124
g61
(dp1125
g81
g82
ssg70
g1119
sg63
(lp1126
S'gateway_interface'
p1127
asbag56
(g77
g58
NtRp1128
(dp1129
g61
(dp1130
g88
g89
ssg70
g1119
sg63
(lp1131
S':'
asbag56
(g77
g58
NtRp1132
(dp1133
g61
(dp1134
sg70
g1119
sg63
(lp1135
g56
(g57
g58
NtRp1136
(dp1137
g61
(dp1138
g69
I4
ssg70
g1132
sg63
(lp1139
S'CGI/1.1'
p1140
asbasbasbag56
(g72
g58
NtRp1141
(dp1142
g61
(dp1143
sg70
g1006
sg63
(lp1144
g56
(g77
g58
NtRp1145
(dp1146
g61
(dp1147
g81
g82
ssg70
g1141
sg63
(lp1148
S'gluon_parent'
p1149
asbag56
(g77
g58
NtRp1150
(dp1151
g61
(dp1152
g88
g89
ssg70
g1141
sg63
(lp1153
S':'
asbag56
(g77
g58
NtRp1154
(dp1155
g61
(dp1156
sg70
g1141
sg63
(lp1157
g56
(g57
g58
NtRp1158
(dp1159
g61
(dp1160
g69
I4
ssg70
g1154
sg63
(lp1161
g1053
asbasbasbag56
(g72
g58
NtRp1162
(dp1163
g61
(dp1164
sg70
g1006
sg63
(lp1165
g56
(g77
g58
NtRp1166
(dp1167
g61
(dp1168
g81
g82
ssg70
g1162
sg63
(lp1169
S'http_accept'
p1170
asbag56
(g77
g58
NtRp1171
(dp1172
g61
(dp1173
g88
g89
ssg70
g1162
sg63
(lp1174
S':'
asbag56
(g77
g58
NtRp1175
(dp1176
g61
(dp1177
sg70
g1162
sg63
(lp1178
g56
(g57
g58
NtRp1179
(dp1180
g61
(dp1181
g69
I4
ssg70
g1175
sg63
(lp1182
S'text/html,application/xhtml+xml,application/xml;q=0.9,*/*;q=0.8'
p1183
asbasbasbag56
(g72
g58
NtRp1184
(dp1185
g61
(dp1186
sg70
g1006
sg63
(lp1187
g56
(g77
g58
NtRp1188
(dp1189
g61
(dp1190
g81
g82
ssg70
g1184
sg63
(lp1191
S'http_accept_charset'
p1192
asbag56
(g77
g58
NtRp1193
(dp1194
g61
(dp1195
g88
g89
ssg70
g1184
sg63
(lp1196
S':'
asbag56
(g77
g58
NtRp1197
(dp1198
g61
(dp1199
sg70
g1184
sg63
(lp1200
g56
(g57
g58
NtRp1201
(dp1202
g61
(dp1203
g69
I4
ssg70
g1197
sg63
(lp1204
S'ISO-8859-1,utf-8;q=0.7,*;q=0.3'
p1205
asbasbasbag56
(g72
g58
NtRp1206
(dp1207
g61
(dp1208
sg70
g1006
sg63
(lp1209
g56
(g77
g58
NtRp1210
(dp1211
g61
(dp1212
g81
g82
ssg70
g1206
sg63
(lp1213
S'http_accept_encoding'
p1214
asbag56
(g77
g58
NtRp1215
(dp1216
g61
(dp1217
g88
g89
ssg70
g1206
sg63
(lp1218
S':'
asbag56
(g77
g58
NtRp1219
(dp1220
g61
(dp1221
sg70
g1206
sg63
(lp1222
g56
(g57
g58
NtRp1223
(dp1224
g61
(dp1225
g69
I4
ssg70
g1219
sg63
(lp1226
S'gzip,deflate,sdch'
p1227
asbasbasbag56
(g72
g58
NtRp1228
(dp1229
g61
(dp1230
sg70
g1006
sg63
(lp1231
g56
(g77
g58
NtRp1232
(dp1233
g61
(dp1234
g81
g82
ssg70
g1228
sg63
(lp1235
S'http_accept_language'
p1236
asbag56
(g77
g58
NtRp1237
(dp1238
g61
(dp1239
g88
g89
ssg70
g1228
sg63
(lp1240
S':'
asbag56
(g77
g58
NtRp1241
(dp1242
g61
(dp1243
sg70
g1228
sg63
(lp1244
g56
(g57
g58
NtRp1245
(dp1246
g61
(dp1247
g69
I4
ssg70
g1241
sg63
(lp1248
S'en-US,en;q=0.8'
p1249
asbasbasbag56
(g72
g58
NtRp1250
(dp1251
g61
(dp1252
sg70
g1006
sg63
(lp1253
g56
(g77
g58
NtRp1254
(dp1255
g61
(dp1256
g81
g82
ssg70
g1250
sg63
(lp1257
S'http_cache_control'
p1258
asbag56
(g77
g58
NtRp1259
(dp1260
g61
(dp1261
g88
g89
ssg70
g1250
sg63
(lp1262
S':'
asbag56
(g77
g58
NtRp1263
(dp1264
g61
(dp1265
sg70
g1250
sg63
(lp1266
g56
(g57
g58
NtRp1267
(dp1268
g61
(dp1269
g69
I4
ssg70
g1263
sg63
(lp1270
S'max-age=0'
p1271
asbasbasbag56
(g72
g58
NtRp1272
(dp1273
g61
(dp1274
sg70
g1006
sg63
(lp1275
g56
(g77
g58
NtRp1276
(dp1277
g61
(dp1278
g81
g82
ssg70
g1272
sg63
(lp1279
S'http_connection'
p1280
asbag56
(g77
g58
NtRp1281
(dp1282
g61
(dp1283
g88
g89
ssg70
g1272
sg63
(lp1284
S':'
asbag56
(g77
g58
NtRp1285
(dp1286
g61
(dp1287
sg70
g1272
sg63
(lp1288
g56
(g57
g58
NtRp1289
(dp1290
g61
(dp1291
g69
I4
ssg70
g1285
sg63
(lp1292
S'keep-alive'
p1293
asbasbasbag56
(g72
g58
NtRp1294
(dp1295
g61
(dp1296
sg70
g1006
sg63
(lp1297
g56
(g77
g58
NtRp1298
(dp1299
g61
(dp1300
g81
g82
ssg70
g1294
sg63
(lp1301
S'http_cookie'
p1302
asbag56
(g77
g58
NtRp1303
(dp1304
g61
(dp1305
g88
g89
ssg70
g1294
sg63
(lp1306
S':'
asbag56
(g77
g58
NtRp1307
(dp1308
g61
(dp1309
sg70
g1294
sg63
(lp1310
g56
(g57
g58
NtRp1311
(dp1312
g61
(dp1313
g69
I4
ssg70
g1307
sg63
(lp1314
S'__utmz=231008458.1308780762.2.2.utmcsr=blog.ovi.com|utmccn=(referral)|utmcmd=referral|utmcct=/2011/06/17/architecture-buffs-win-an-n8-thanks-to-3d-maps/; __utma=231008458.31146925.1301686846.1308784518.1308821596.4; __utmz=123610009.1308848100.1.1.utmcsr=(direct)|utmccn=(direct)|utmcmd=(none); __utma=123610009.1990170896.1308848100.1308848100.1308848100.1; session_id_welcome=89.123.2.193-656c74cb-a5a1-41e4-ac1a-2010553e1f38; session_id_raredisss_devel=89.123.2.193-209ddbd2-47ad-4cdf-8ea3-23e3682363fd; session_id_admin=89.123.2.193-c73a459b-d1a2-42c0-b456-303b7fd610ac; session_id_rdcdss=89.123.2.193-4e1de357-5b7c-4409-92bc-12a58f0742b6'
p1315
asbasbasbag56
(g72
g58
NtRp1316
(dp1317
g61
(dp1318
sg70
g1006
sg63
(lp1319
g56
(g77
g58
NtRp1320
(dp1321
g61
(dp1322
g81
g82
ssg70
g1316
sg63
(lp1323
S'http_host'
p1324
asbag56
(g77
g58
NtRp1325
(dp1326
g61
(dp1327
g88
g89
ssg70
g1316
sg63
(lp1328
S':'
asbag56
(g77
g58
NtRp1329
(dp1330
g61
(dp1331
sg70
g1316
sg63
(lp1332
g56
(g57
g58
NtRp1333
(dp1334
g61
(dp1335
g69
I4
ssg70
g1329
sg63
(lp1336
S'costanza.dragusin.ro'
p1337
asbasbasbag56
(g72
g58
NtRp1338
(dp1339
g61
(dp1340
sg70
g1006
sg63
(lp1341
g56
(g77
g58
NtRp1342
(dp1343
g61
(dp1344
g81
g82
ssg70
g1338
sg63
(lp1345
S'http_user_agent'
p1346
asbag56
(g77
g58
NtRp1347
(dp1348
g61
(dp1349
g88
g89
ssg70
g1338
sg63
(lp1350
S':'
asbag56
(g77
g58
NtRp1351
(dp1352
g61
(dp1353
sg70
g1338
sg63
(lp1354
g56
(g57
g58
NtRp1355
(dp1356
g61
(dp1357
g69
I4
ssg70
g1351
sg63
(lp1358
S'Mozilla/5.0 (Macintosh; Intel Mac OS X 10_6_8) AppleWebKit/534.30 (KHTML, like Gecko) Chrome/12.0.742.112 Safari/534.30'
p1359
asbasbasbag56
(g72
g58
NtRp1360
(dp1361
g61
(dp1362
sg70
g1006
sg63
(lp1363
g56
(g77
g58
NtRp1364
(dp1365
g61
(dp1366
g81
g82
ssg70
g1360
sg63
(lp1367
S'https'
p1368
asbag56
(g77
g58
NtRp1369
(dp1370
g61
(dp1371
g88
g89
ssg70
g1360
sg63
(lp1372
S':'
asbag56
(g77
g58
NtRp1373
(dp1374
g61
(dp1375
sg70
g1360
sg63
(lp1376
g56
(g57
g58
NtRp1377
(dp1378
g61
(dp1379
g69
I4
ssg70
g1373
sg63
(lp1380
S'1'
asbasbasbag56
(g72
g58
NtRp1381
(dp1382
g61
(dp1383
sg70
g1006
sg63
(lp1384
g56
(g77
g58
NtRp1385
(dp1386
g61
(dp1387
g81
g82
ssg70
g1381
sg63
(lp1388
S'mod_wsgi_application_group'
p1389
asbag56
(g77
g58
NtRp1390
(dp1391
g61
(dp1392
g88
g89
ssg70
g1381
sg63
(lp1393
S':'
asbag56
(g77
g58
NtRp1394
(dp1395
g61
(dp1396
sg70
g1381
sg63
(lp1397
g56
(g57
g58
NtRp1398
(dp1399
g61
(dp1400
g69
I4
ssg70
g1394
sg63
(lp1401
S'109.169.46.204|'
p1402
asbasbasbag56
(g72
g58
NtRp1403
(dp1404
g61
(dp1405
sg70
g1006
sg63
(lp1406
g56
(g77
g58
NtRp1407
(dp1408
g61
(dp1409
g81
g82
ssg70
g1403
sg63
(lp1410
S'mod_wsgi_callable_object'
p1411
asbag56
(g77
g58
NtRp1412
(dp1413
g61
(dp1414
g88
g89
ssg70
g1403
sg63
(lp1415
S':'
asbag56
(g77
g58
NtRp1416
(dp1417
g61
(dp1418
sg70
g1403
sg63
(lp1419
g56
(g57
g58
NtRp1420
(dp1421
g61
(dp1422
g69
I4
ssg70
g1416
sg63
(lp1423
S'application'
p1424
asbasbasbag56
(g72
g58
NtRp1425
(dp1426
g61
(dp1427
sg70
g1006
sg63
(lp1428
g56
(g77
g58
NtRp1429
(dp1430
g61
(dp1431
g81
g82
ssg70
g1425
sg63
(lp1432
S'mod_wsgi_handler_script'
p1433
asbag56
(g77
g58
NtRp1434
(dp1435
g61
(dp1436
g88
g89
ssg70
g1425
sg63
(lp1437
S':'
asbag56
(g77
g58
NtRp1438
(dp1439
g61
(dp1440
sg70
g1425
sg63
(lp1441
g56
(g57
g58
NtRp1442
(dp1443
g61
(dp1444
g69
I4
ssg70
g1438
sg63
(lp1445
S''
asbasbasbag56
(g72
g58
NtRp1446
(dp1447
g61
(dp1448
sg70
g1006
sg63
(lp1449
g56
(g77
g58
NtRp1450
(dp1451
g61
(dp1452
g81
g82
ssg70
g1446
sg63
(lp1453
S'mod_wsgi_input_chunked'
p1454
asbag56
(g77
g58
NtRp1455
(dp1456
g61
(dp1457
g88
g89
ssg70
g1446
sg63
(lp1458
S':'
asbag56
(g77
g58
NtRp1459
(dp1460
g61
(dp1461
sg70
g1446
sg63
(lp1462
g56
(g57
g58
NtRp1463
(dp1464
g61
(dp1465
g69
I4
ssg70
g1459
sg63
(lp1466
S'0'
asbasbasbag56
(g72
g58
NtRp1467
(dp1468
g61
(dp1469
sg70
g1006
sg63
(lp1470
g56
(g77
g58
NtRp1471
(dp1472
g61
(dp1473
g81
g82
ssg70
g1467
sg63
(lp1474
S'mod_wsgi_listener_host'
p1475
asbag56
(g77
g58
NtRp1476
(dp1477
g61
(dp1478
g88
g89
ssg70
g1467
sg63
(lp1479
S':'
asbag56
(g77
g58
NtRp1480
(dp1481
g61
(dp1482
sg70
g1467
sg63
(lp1483
g56
(g57
g58
NtRp1484
(dp1485
g61
(dp1486
g69
I4
ssg70
g1480
sg63
(lp1487
S''
asbasbasbag56
(g72
g58
NtRp1488
(dp1489
g61
(dp1490
sg70
g1006
sg63
(lp1491
g56
(g77
g58
NtRp1492
(dp1493
g61
(dp1494
g81
g82
ssg70
g1488
sg63
(lp1495
S'mod_wsgi_listener_port'
p1496
asbag56
(g77
g58
NtRp1497
(dp1498
g61
(dp1499
g88
g89
ssg70
g1488
sg63
(lp1500
S':'
asbag56
(g77
g58
NtRp1501
(dp1502
g61
(dp1503
sg70
g1488
sg63
(lp1504
g56
(g57
g58
NtRp1505
(dp1506
g61
(dp1507
g69
I4
ssg70
g1501
sg63
(lp1508
S'443'
p1509
asbasbasbag56
(g72
g58
NtRp1510
(dp1511
g61
(dp1512
sg70
g1006
sg63
(lp1513
g56
(g77
g58
NtRp1514
(dp1515
g61
(dp1516
g81
g82
ssg70
g1510
sg63
(lp1517
S'mod_wsgi_process_group'
p1518
asbag56
(g77
g58
NtRp1519
(dp1520
g61
(dp1521
g88
g89
ssg70
g1510
sg63
(lp1522
S':'
asbag56
(g77
g58
NtRp1523
(dp1524
g61
(dp1525
sg70
g1510
sg63
(lp1526
g56
(g57
g58
NtRp1527
(dp1528
g61
(dp1529
g69
I4
ssg70
g1523
sg63
(lp1530
S'web2py'
p1531
asbasbasbag56
(g72
g58
NtRp1532
(dp1533
g61
(dp1534
sg70
g1006
sg63
(lp1535
g56
(g77
g58
NtRp1536
(dp1537
g61
(dp1538
g81
g82
ssg70
g1532
sg63
(lp1539
S'mod_wsgi_request_handler'
p1540
asbag56
(g77
g58
NtRp1541
(dp1542
g61
(dp1543
g88
g89
ssg70
g1532
sg63
(lp1544
S':'
asbag56
(g77
g58
NtRp1545
(dp1546
g61
(dp1547
sg70
g1532
sg63
(lp1548
g56
(g57
g58
NtRp1549
(dp1550
g61
(dp1551
g69
I4
ssg70
g1545
sg63
(lp1552
S'wsgi-script'
p1553
asbasbasbag56
(g72
g58
NtRp1554
(dp1555
g61
(dp1556
sg70
g1006
sg63
(lp1557
g56
(g77
g58
NtRp1558
(dp1559
g61
(dp1560
g81
g82
ssg70
g1554
sg63
(lp1561
S'mod_wsgi_script_reloading'
p1562
asbag56
(g77
g58
NtRp1563
(dp1564
g61
(dp1565
g88
g89
ssg70
g1554
sg63
(lp1566
S':'
asbag56
(g77
g58
NtRp1567
(dp1568
g61
(dp1569
sg70
g1554
sg63
(lp1570
g56
(g57
g58
NtRp1571
(dp1572
g61
(dp1573
g69
I4
ssg70
g1567
sg63
(lp1574
S'1'
asbasbasbag56
(g72
g58
NtRp1575
(dp1576
g61
(dp1577
sg70
g1006
sg63
(lp1578
g56
(g77
g58
NtRp1579
(dp1580
g61
(dp1581
g81
g82
ssg70
g1575
sg63
(lp1582
S'mod_wsgi_version'
p1583
asbag56
(g77
g58
NtRp1584
(dp1585
g61
(dp1586
g88
g89
ssg70
g1575
sg63
(lp1587
S':'
asbag56
(g77
g58
NtRp1588
(dp1589
g61
(dp1590
sg70
g1575
sg63
(lp1591
g56
(g57
g58
NtRp1592
(dp1593
g61
(dp1594
g69
I4
ssg70
g1588
sg63
(lp1595
g56
(g65
g58
NtRp1596
(dp1597
g61
(dp1598
g69
I3
ssg70
Nsg63
(lp1599
g56
(g72
g58
NtRp1600
(dp1601
g61
(dp1602
sg70
g1596
sg63
(lp1603
g56
(g77
g58
NtRp1604
(dp1605
g61
(dp1606
sg70
g1600
sg63
(lp1607
g56
(g57
g58
NtRp1608
(dp1609
g61
(dp1610
g69
I3
ssg70
g1604
sg63
(lp1611
S'3'
asbasbasbag56
(g72
g58
NtRp1612
(dp1613
g61
(dp1614
sg70
g1596
sg63
(lp1615
g56
(g77
g58
NtRp1616
(dp1617
g61
(dp1618
sg70
g1612
sg63
(lp1619
g56
(g57
g58
NtRp1620
(dp1621
g61
(dp1622
g69
I3
ssg70
g1616
sg63
(lp1623
S'2'
asbasbasbasbasbasbasbag56
(g72
g58
NtRp1624
(dp1625
g61
(dp1626
sg70
g1006
sg63
(lp1627
g56
(g77
g58
NtRp1628
(dp1629
g61
(dp1630
g81
g82
ssg70
g1624
sg63
(lp1631
S'path_info'
p1632
asbag56
(g77
g58
NtRp1633
(dp1634
g61
(dp1635
g88
g89
ssg70
g1624
sg63
(lp1636
S':'
asbag56
(g77
g58
NtRp1637
(dp1638
g61
(dp1639
sg70
g1624
sg63
(lp1640
g56
(g57
g58
NtRp1641
(dp1642
g61
(dp1643
g69
I4
ssg70
g1637
sg63
(lp1644
S'/rdcdss/default/index.xml'
p1645
asbasbasbag56
(g72
g58
NtRp1646
(dp1647
g61
(dp1648
sg70
g1006
sg63
(lp1649
g56
(g77
g58
NtRp1650
(dp1651
g61
(dp1652
g81
g82
ssg70
g1646
sg63
(lp1653
S'path_translated'
p1654
asbag56
(g77
g58
NtRp1655
(dp1656
g61
(dp1657
g88
g89
ssg70
g1646
sg63
(lp1658
S':'
asbag56
(g77
g58
NtRp1659
(dp1660
g61
(dp1661
sg70
g1646
sg63
(lp1662
g56
(g57
g58
NtRp1663
(dp1664
g61
(dp1665
g69
I4
ssg70
g1659
sg63
(lp1666
S'/home/www-data/web2py/wsgihandler.py/rdcdss/default/index.xml'
p1667
asbasbasbag56
(g72
g58
NtRp1668
(dp1669
g61
(dp1670
sg70
g1006
sg63
(lp1671
g56
(g77
g58
NtRp1672
(dp1673
g61
(dp1674
g81
g82
ssg70
g1668
sg63
(lp1675
S'query_string'
p1676
asbag56
(g77
g58
NtRp1677
(dp1678
g61
(dp1679
g88
g89
ssg70
g1668
sg63
(lp1680
S':'
asbag56
(g77
g58
NtRp1681
(dp1682
g61
(dp1683
sg70
g1668
sg63
(lp1684
g56
(g57
g58
NtRp1685
(dp1686
g61
(dp1687
g69
I4
ssg70
g1681
sg63
(lp1688
S'q=anemia%2C+low+red+blood+cells+count%2C+infection'
p1689
asbasbasbag56
(g72
g58
NtRp1690
(dp1691
g61
(dp1692
sg70
g1006
sg63
(lp1693
g56
(g77
g58
NtRp1694
(dp1695
g61
(dp1696
g81
g82
ssg70
g1690
sg63
(lp1697
S'remote_addr'
p1698
asbag56
(g77
g58
NtRp1699
(dp1700
g61
(dp1701
g88
g89
ssg70
g1690
sg63
(lp1702
S':'
asbag56
(g77
g58
NtRp1703
(dp1704
g61
(dp1705
sg70
g1690
sg63
(lp1706
g56
(g57
g58
NtRp1707
(dp1708
g61
(dp1709
g69
I4
ssg70
g1703
sg63
(lp1710
g189
asbasbasbag56
(g72
g58
NtRp1711
(dp1712
g61
(dp1713
sg70
g1006
sg63
(lp1714
g56
(g77
g58
NtRp1715
(dp1716
g61
(dp1717
g81
g82
ssg70
g1711
sg63
(lp1718
S'remote_port'
p1719
asbag56
(g77
g58
NtRp1720
(dp1721
g61
(dp1722
g88
g89
ssg70
g1711
sg63
(lp1723
S':'
asbag56
(g77
g58
NtRp1724
(dp1725
g61
(dp1726
sg70
g1711
sg63
(lp1727
g56
(g57
g58
NtRp1728
(dp1729
g61
(dp1730
g69
I4
ssg70
g1724
sg63
(lp1731
S'62175'
p1732
asbasbasbag56
(g72
g58
NtRp1733
(dp1734
g61
(dp1735
sg70
g1006
sg63
(lp1736
g56
(g77
g58
NtRp1737
(dp1738
g61
(dp1739
g81
g82
ssg70
g1733
sg63
(lp1740
S'request_method'
p1741
asbag56
(g77
g58
NtRp1742
(dp1743
g61
(dp1744
g88
g89
ssg70
g1733
sg63
(lp1745
S':'
asbag56
(g77
g58
NtRp1746
(dp1747
g61
(dp1748
sg70
g1733
sg63
(lp1749
g56
(g57
g58
NtRp1750
(dp1751
g61
(dp1752
g69
I4
ssg70
g1746
sg63
(lp1753
S'GET'
p1754
asbasbasbag56
(g72
g58
NtRp1755
(dp1756
g61
(dp1757
sg70
g1006
sg63
(lp1758
g56
(g77
g58
NtRp1759
(dp1760
g61
(dp1761
g81
g82
ssg70
g1755
sg63
(lp1762
S'request_uri'
p1763
asbag56
(g77
g58
NtRp1764
(dp1765
g61
(dp1766
g88
g89
ssg70
g1755
sg63
(lp1767
S':'
asbag56
(g77
g58
NtRp1768
(dp1769
g61
(dp1770
sg70
g1755
sg63
(lp1771
g56
(g57
g58
NtRp1772
(dp1773
g61
(dp1774
g69
I4
ssg70
g1768
sg63
(lp1775
S'/rdcdss/default/index.xml?q=anemia%2C+low+red+blood+cells+count%2C+infection'
p1776
asbasbasbag56
(g72
g58
NtRp1777
(dp1778
g61
(dp1779
sg70
g1006
sg63
(lp1780
g56
(g77
g58
NtRp1781
(dp1782
g61
(dp1783
g81
g82
ssg70
g1777
sg63
(lp1784
S'script_filename'
p1785
asbag56
(g77
g58
NtRp1786
(dp1787
g61
(dp1788
g88
g89
ssg70
g1777
sg63
(lp1789
S':'
asbag56
(g77
g58
NtRp1790
(dp1791
g61
(dp1792
sg70
g1777
sg63
(lp1793
g56
(g57
g58
NtRp1794
(dp1795
g61
(dp1796
g69
I4
ssg70
g1790
sg63
(lp1797
S'/home/www-data/web2py/wsgihandler.py'
p1798
asbasbasbag56
(g72
g58
NtRp1799
(dp1800
g61
(dp1801
sg70
g1006
sg63
(lp1802
g56
(g77
g58
NtRp1803
(dp1804
g61
(dp1805
g81
g82
ssg70
g1799
sg63
(lp1806
S'script_name'
p1807
asbag56
(g77
g58
NtRp1808
(dp1809
g61
(dp1810
g88
g89
ssg70
g1799
sg63
(lp1811
S':'
asbag56
(g77
g58
NtRp1812
(dp1813
g61
(dp1814
sg70
g1799
sg63
(lp1815
g56
(g57
g58
NtRp1816
(dp1817
g61
(dp1818
g69
I4
ssg70
g1812
sg63
(lp1819
S''
asbasbasbag56
(g72
g58
NtRp1820
(dp1821
g61
(dp1822
sg70
g1006
sg63
(lp1823
g56
(g77
g58
NtRp1824
(dp1825
g61
(dp1826
g81
g82
ssg70
g1820
sg63
(lp1827
S'server_addr'
p1828
asbag56
(g77
g58
NtRp1829
(dp1830
g61
(dp1831
g88
g89
ssg70
g1820
sg63
(lp1832
S':'
asbag56
(g77
g58
NtRp1833
(dp1834
g61
(dp1835
sg70
g1820
sg63
(lp1836
g56
(g57
g58
NtRp1837
(dp1838
g61
(dp1839
g69
I4
ssg70
g1833
sg63
(lp1840
S'109.169.46.204'
p1841
asbasbasbag56
(g72
g58
NtRp1842
(dp1843
g61
(dp1844
sg70
g1006
sg63
(lp1845
g56
(g77
g58
NtRp1846
(dp1847
g61
(dp1848
g81
g82
ssg70
g1842
sg63
(lp1849
S'server_admin'
p1850
asbag56
(g77
g58
NtRp1851
(dp1852
g61
(dp1853
g88
g89
ssg70
g1842
sg63
(lp1854
S':'
asbag56
(g77
g58
NtRp1855
(dp1856
g61
(dp1857
sg70
g1842
sg63
(lp1858
g56
(g57
g58
NtRp1859
(dp1860
g61
(dp1861
g69
I4
ssg70
g1855
sg63
(lp1862
S'[no address given]'
p1863
asbasbasbag56
(g72
g58
NtRp1864
(dp1865
g61
(dp1866
sg70
g1006
sg63
(lp1867
g56
(g77
g58
NtRp1868
(dp1869
g61
(dp1870
g81
g82
ssg70
g1864
sg63
(lp1871
S'server_name'
p1872
asbag56
(g77
g58
NtRp1873
(dp1874
g61
(dp1875
g88
g89
ssg70
g1864
sg63
(lp1876
S':'
asbag56
(g77
g58
NtRp1877
(dp1878
g61
(dp1879
sg70
g1864
sg63
(lp1880
g56
(g57
g58
NtRp1881
(dp1882
g61
(dp1883
g69
I4
ssg70
g1877
sg63
(lp1884
S'costanza.dragusin.ro'
p1885
asbasbasbag56
(g72
g58
NtRp1886
(dp1887
g61
(dp1888
sg70
g1006
sg63
(lp1889
g56
(g77
g58
NtRp1890
(dp1891
g61
(dp1892
g81
g82
ssg70
g1886
sg63
(lp1893
S'server_port'
p1894
asbag56
(g77
g58
NtRp1895
(dp1896
g61
(dp1897
g88
g89
ssg70
g1886
sg63
(lp1898
S':'
asbag56
(g77
g58
NtRp1899
(dp1900
g61
(dp1901
sg70
g1886
sg63
(lp1902
g56
(g57
g58
NtRp1903
(dp1904
g61
(dp1905
g69
I4
ssg70
g1899
sg63
(lp1906
S'443'
p1907
asbasbasbag56
(g72
g58
NtRp1908
(dp1909
g61
(dp1910
sg70
g1006
sg63
(lp1911
g56
(g77
g58
NtRp1912
(dp1913
g61
(dp1914
g81
g82
ssg70
g1908
sg63
(lp1915
S'server_protocol'
p1916
asbag56
(g77
g58
NtRp1917
(dp1918
g61
(dp1919
g88
g89
ssg70
g1908
sg63
(lp1920
S':'
asbag56
(g77
g58
NtRp1921
(dp1922
g61
(dp1923
sg70
g1908
sg63
(lp1924
g56
(g57
g58
NtRp1925
(dp1926
g61
(dp1927
g69
I4
ssg70
g1921
sg63
(lp1928
S'HTTP/1.1'
p1929
asbasbasbag56
(g72
g58
NtRp1930
(dp1931
g61
(dp1932
sg70
g1006
sg63
(lp1933
g56
(g77
g58
NtRp1934
(dp1935
g61
(dp1936
g81
g82
ssg70
g1930
sg63
(lp1937
S'server_signature'
p1938
asbag56
(g77
g58
NtRp1939
(dp1940
g61
(dp1941
g88
g89
ssg70
g1930
sg63
(lp1942
S':'
asbag56
(g77
g58
NtRp1943
(dp1944
g61
(dp1945
sg70
g1930
sg63
(lp1946
g56
(g57
g58
NtRp1947
(dp1948
g61
(dp1949
g69
I4
ssg70
g1943
sg63
(lp1950
S'<address>Apache/2.2.16 (Ubuntu) Server at costanza.dragusin.ro Port 443</address>\n'
p1951
asbasbasbag56
(g72
g58
NtRp1952
(dp1953
g61
(dp1954
sg70
g1006
sg63
(lp1955
g56
(g77
g58
NtRp1956
(dp1957
g61
(dp1958
g81
g82
ssg70
g1952
sg63
(lp1959
S'server_software'
p1960
asbag56
(g77
g58
NtRp1961
(dp1962
g61
(dp1963
g88
g89
ssg70
g1952
sg63
(lp1964
S':'
asbag56
(g77
g58
NtRp1965
(dp1966
g61
(dp1967
sg70
g1952
sg63
(lp1968
g56
(g57
g58
NtRp1969
(dp1970
g61
(dp1971
g69
I4
ssg70
g1965
sg63
(lp1972
S'Apache/2.2.16 (Ubuntu)'
p1973
asbasbasbag56
(g72
g58
NtRp1974
(dp1975
g61
(dp1976
sg70
g1006
sg63
(lp1977
g56
(g77
g58
NtRp1978
(dp1979
g61
(dp1980
g81
g82
ssg70
g1974
sg63
(lp1981
S'ssl_tls_sni'
p1982
asbag56
(g77
g58
NtRp1983
(dp1984
g61
(dp1985
g88
g89
ssg70
g1974
sg63
(lp1986
S':'
asbag56
(g77
g58
NtRp1987
(dp1988
g61
(dp1989
sg70
g1974
sg63
(lp1990
g56
(g57
g58
NtRp1991
(dp1992
g61
(dp1993
g69
I4
ssg70
g1987
sg63
(lp1994
S'costanza.dragusin.ro'
p1995
asbasbasbag56
(g72
g58
NtRp1996
(dp1997
g61
(dp1998
sg70
g1006
sg63
(lp1999
g56
(g77
g58
NtRp2000
(dp2001
g61
(dp2002
g81
g82
ssg70
g1996
sg63
(lp2003
S'web2py_path'
p2004
asbag56
(g77
g58
NtRp2005
(dp2006
g61
(dp2007
g88
g89
ssg70
g1996
sg63
(lp2008
S':'
asbag56
(g77
g58
NtRp2009
(dp2010
g61
(dp2011
sg70
g1996
sg63
(lp2012
g56
(g57
g58
NtRp2013
(dp2014
g61
(dp2015
g69
I4
ssg70
g2009
sg63
(lp2016
g1053
asbasbasbag56
(g72
g58
NtRp2017
(dp2018
g61
(dp2019
sg70
g1006
sg63
(lp2020
g56
(g77
g58
NtRp2021
(dp2022
g61
(dp2023
g81
g82
ssg70
g2017
sg63
(lp2024
S'web2py_version'
p2025
asbag56
(g77
g58
NtRp2026
(dp2027
g61
(dp2028
g88
g89
ssg70
g2017
sg63
(lp2029
S':'
asbag56
(g77
g58
NtRp2030
(dp2031
g61
(dp2032
sg70
g2017
sg63
(lp2033
g56
(g57
g58
NtRp2034
(dp2035
g61
(dp2036
g69
I4
ssg70
g2030
sg63
(lp2037
S'Version 1.95.1 (2011-04-25 15:04:14)\n'
p2038
asbasbasbag56
(g72
g58
NtRp2039
(dp2040
g61
(dp2041
sg70
g1006
sg63
(lp2042
g56
(g77
g58
NtRp2043
(dp2044
g61
(dp2045
g81
g82
ssg70
g2039
sg63
(lp2046
S'wsgi_errors'
p2047
asbag56
(g77
g58
NtRp2048
(dp2049
g61
(dp2050
g88
g89
ssg70
g2039
sg63
(lp2051
S':'
asbag56
(g77
g58
NtRp2052
(dp2053
g61
(dp2054
sg70
g2039
sg63
(lp2055
g56
(g57
g58
NtRp2056
(dp2057
g61
(dp2058
g69
I4
ssg70
g2052
sg63
(lp2059
S'<mod_wsgi.Log object at 0x2b9bdb81f0f0>'
p2060
asbasbasbag56
(g72
g58
NtRp2061
(dp2062
g61
(dp2063
sg70
g1006
sg63
(lp2064
g56
(g77
g58
NtRp2065
(dp2066
g61
(dp2067
g81
g82
ssg70
g2061
sg63
(lp2068
S'wsgi_file_wrapper'
p2069
asbag56
(g77
g58
NtRp2070
(dp2071
g61
(dp2072
g88
g89
ssg70
g2061
sg63
(lp2073
S':'
asbag56
(g77
g58
NtRp2074
(dp2075
g61
(dp2076
sg70
g2061
sg63
(lp2077
g56
(g57
g58
NtRp2078
(dp2079
g61
(dp2080
g69
I4
ssg70
g2074
sg63
(lp2081
S'<built-in method file_wrapper of mod_wsgi.Adapter object at 0x2b9bdb65bc60>'
p2082
asbasbasbag56
(g72
g58
NtRp2083
(dp2084
g61
(dp2085
sg70
g1006
sg63
(lp2086
g56
(g77
g58
NtRp2087
(dp2088
g61
(dp2089
g81
g82
ssg70
g2083
sg63
(lp2090
S'wsgi_input'
p2091
asbag56
(g77
g58
NtRp2092
(dp2093
g61
(dp2094
g88
g89
ssg70
g2083
sg63
(lp2095
S':'
asbag56
(g77
g58
NtRp2096
(dp2097
g61
(dp2098
sg70
g2083
sg63
(lp2099
g56
(g57
g58
NtRp2100
(dp2101
g61
(dp2102
g69
I4
ssg70
g2096
sg63
(lp2103
S'<mod_wsgi.Input object at 0x2b9bdb81f170>'
p2104
asbasbasbag56
(g72
g58
NtRp2105
(dp2106
g61
(dp2107
sg70
g1006
sg63
(lp2108
g56
(g77
g58
NtRp2109
(dp2110
g61
(dp2111
g81
g82
ssg70
g2105
sg63
(lp2112
S'wsgi_multiprocess'
p2113
asbag56
(g77
g58
NtRp2114
(dp2115
g61
(dp2116
g88
g89
ssg70
g2105
sg63
(lp2117
S':'
asbag56
(g77
g58
NtRp2118
(dp2119
g61
(dp2120
sg70
g2105
sg63
(lp2121
g56
(g57
g58
NtRp2122
(dp2123
g61
(dp2124
g69
I4
ssg70
g2118
sg63
(lp2125
g99
asbasbasbag56
(g72
g58
NtRp2126
(dp2127
g61
(dp2128
sg70
g1006
sg63
(lp2129
g56
(g77
g58
NtRp2130
(dp2131
g61
(dp2132
g81
g82
ssg70
g2126
sg63
(lp2133
S'wsgi_multithread'
p2134
asbag56
(g77
g58
NtRp2135
(dp2136
g61
(dp2137
g88
g89
ssg70
g2126
sg63
(lp2138
S':'
asbag56
(g77
g58
NtRp2139
(dp2140
g61
(dp2141
sg70
g2126
sg63
(lp2142
g56
(g57
g58
NtRp2143
(dp2144
g61
(dp2145
g69
I4
ssg70
g2139
sg63
(lp2146
S'True'
p2147
asbasbasbag56
(g72
g58
NtRp2148
(dp2149
g61
(dp2150
sg70
g1006
sg63
(lp2151
g56
(g77
g58
NtRp2152
(dp2153
g61
(dp2154
g81
g82
ssg70
g2148
sg63
(lp2155
S'wsgi_run_once'
p2156
asbag56
(g77
g58
NtRp2157
(dp2158
g61
(dp2159
g88
g89
ssg70
g2148
sg63
(lp2160
S':'
asbag56
(g77
g58
NtRp2161
(dp2162
g61
(dp2163
sg70
g2148
sg63
(lp2164
g56
(g57
g58
NtRp2165
(dp2166
g61
(dp2167
g69
I4
ssg70
g2161
sg63
(lp2168
g99
asbasbasbag56
(g72
g58
NtRp2169
(dp2170
g61
(dp2171
sg70
g1006
sg63
(lp2172
g56
(g77
g58
NtRp2173
(dp2174
g61
(dp2175
g81
g82
ssg70
g2169
sg63
(lp2176
S'wsgi_url_scheme'
p2177
asbag56
(g77
g58
NtRp2178
(dp2179
g61
(dp2180
g88
g89
ssg70
g2169
sg63
(lp2181
S':'
asbag56
(g77
g58
NtRp2182
(dp2183
g61
(dp2184
sg70
g2169
sg63
(lp2185
g56
(g57
g58
NtRp2186
(dp2187
g61
(dp2188
g69
I4
ssg70
g2182
sg63
(lp2189
S'https'
p2190
asbasbasbag56
(g72
g58
NtRp2191
(dp2192
g61
(dp2193
sg70
g1006
sg63
(lp2194
g56
(g77
g58
NtRp2195
(dp2196
g61
(dp2197
g81
g82
ssg70
g2191
sg63
(lp2198
S'wsgi_version'
p2199
asbag56
(g77
g58
NtRp2200
(dp2201
g61
(dp2202
g88
g89
ssg70
g2191
sg63
(lp2203
S':'
asbag56
(g77
g58
NtRp2204
(dp2205
g61
(dp2206
sg70
g2191
sg63
(lp2207
g56
(g57
g58
NtRp2208
(dp2209
g61
(dp2210
g69
I4
ssg70
g2204
sg63
(lp2211
g56
(g65
g58
NtRp2212
(dp2213
g61
(dp2214
g69
I3
ssg70
Nsg63
(lp2215
g56
(g72
g58
NtRp2216
(dp2217
g61
(dp2218
sg70
g2212
sg63
(lp2219
g56
(g77
g58
NtRp2220
(dp2221
g61
(dp2222
sg70
g2216
sg63
(lp2223
g56
(g57
g58
NtRp2224
(dp2225
g61
(dp2226
g69
I3
ssg70
g2220
sg63
(lp2227
S'1'
asbasbasbag56
(g72
g58
NtRp2228
(dp2229
g61
(dp2230
sg70
g2212
sg63
(lp2231
g56
(g77
g58
NtRp2232
(dp2233
g61
(dp2234
sg70
g2228
sg63
(lp2235
g56
(g57
g58
NtRp2236
(dp2237
g61
(dp2238
g69
I3
ssg70
g2232
sg63
(lp2239
S'1'
asbasbasbasbasbasbasbasbasbasbasbag56
(g72
g58
NtRp2240
(dp2241
g61
(dp2242
sg70
g66
sg63
(lp2243
g56
(g77
g58
NtRp2244
(dp2245
g61
(dp2246
g81
g82
ssg70
g2240
sg63
(lp2247
S'extension'
p2248
asbag56
(g77
g58
NtRp2249
(dp2250
g61
(dp2251
g88
g89
ssg70
g2240
sg63
(lp2252
S':'
asbag56
(g77
g58
NtRp2253
(dp2254
g61
(dp2255
sg70
g2240
sg63
(lp2256
g56
(g57
g58
NtRp2257
(dp2258
g61
(dp2259
g69
I5
ssg70
g2253
sg63
(lp2260
S'xml'
p2261
asbasbasbag56
(g72
g58
NtRp2262
(dp2263
g61
(dp2264
sg70
g66
sg63
(lp2265
g56
(g77
g58
NtRp2266
(dp2267
g61
(dp2268
g81
g82
ssg70
g2262
sg63
(lp2269
S'folder'
p2270
asbag56
(g77
g58
NtRp2271
(dp2272
g61
(dp2273
g88
g89
ssg70
g2262
sg63
(lp2274
S':'
asbag56
(g77
g58
NtRp2275
(dp2276
g61
(dp2277
sg70
g2262
sg63
(lp2278
g56
(g57
g58
NtRp2279
(dp2280
g61
(dp2281
g69
I5
ssg70
g2275
sg63
(lp2282
S'/home/www-data/web2py/applications/rdcdss/'
p2283
asbasbasbag56
(g72
g58
NtRp2284
(dp2285
g61
(dp2286
sg70
g66
sg63
(lp2287
g56
(g77
g58
NtRp2288
(dp2289
g61
(dp2290
g81
g82
ssg70
g2284
sg63
(lp2291
S'function'
p2292
asbag56
(g77
g58
NtRp2293
(dp2294
g61
(dp2295
g88
g89
ssg70
g2284
sg63
(lp2296
S':'
asbag56
(g77
g58
NtRp2297
(dp2298
g61
(dp2299
sg70
g2284
sg63
(lp2300
g56
(g57
g58
NtRp2301
(dp2302
g61
(dp2303
g69
I5
ssg70
g2297
sg63
(lp2304
S'index'
p2305
asbasbasbag56
(g72
g58
NtRp2306
(dp2307
g61
(dp2308
sg70
g66
sg63
(lp2309
g56
(g77
g58
NtRp2310
(dp2311
g61
(dp2312
g81
g82
ssg70
g2306
sg63
(lp2313
S'get_vars'
p2314
asbag56
(g77
g58
NtRp2315
(dp2316
g61
(dp2317
g88
g89
ssg70
g2306
sg63
(lp2318
S':'
asbag56
(g77
g58
NtRp2319
(dp2320
g61
(dp2321
sg70
g2306
sg63
(lp2322
g56
(g57
g58
NtRp2323
(dp2324
g61
(dp2325
g69
I5
ssg70
g2319
sg63
(lp2326
g56
(g65
g58
NtRp2327
(dp2328
g61
(dp2329
g69
I4
ssg70
Nsg63
(lp2330
g56
(g72
g58
NtRp2331
(dp2332
g61
(dp2333
sg70
g2327
sg63
(lp2334
g56
(g77
g58
NtRp2335
(dp2336
g61
(dp2337
g81
g82
ssg70
g2331
sg63
(lp2338
S'q'
asbag56
(g77
g58
NtRp2339
(dp2340
g61
(dp2341
g88
g89
ssg70
g2331
sg63
(lp2342
S':'
asbag56
(g77
g58
NtRp2343
(dp2344
g61
(dp2345
sg70
g2331
sg63
(lp2346
g56
(g57
g58
NtRp2347
(dp2348
g61
(dp2349
g69
I4
ssg70
g2343
sg63
(lp2350
S'anemia, low red blood cells count, infection'
p2351
asbasbasbasbasbasbasbag56
(g72
g58
NtRp2352
(dp2353
g61
(dp2354
sg70
g66
sg63
(lp2355
g56
(g77
g58
NtRp2356
(dp2357
g61
(dp2358
g81
g82
ssg70
g2352
sg63
(lp2359
S'is_restful'
p2360
asbag56
(g77
g58
NtRp2361
(dp2362
g61
(dp2363
g88
g89
ssg70
g2352
sg63
(lp2364
S':'
asbag56
(g77
g58
NtRp2365
(dp2366
g61
(dp2367
sg70
g2352
sg63
(lp2368
g56
(g57
g58
NtRp2369
(dp2370
g61
(dp2371
g69
I5
ssg70
g2365
sg63
(lp2372
g99
asbasbasbag56
(g72
g58
NtRp2373
(dp2374
g61
(dp2375
sg70
g66
sg63
(lp2376
g56
(g77
g58
NtRp2377
(dp2378
g61
(dp2379
g81
g82
ssg70
g2373
sg63
(lp2380
S'now'
p2381
asbag56
(g77
g58
NtRp2382
(dp2383
g61
(dp2384
g88
g89
ssg70
g2373
sg63
(lp2385
S':'
asbag56
(g77
g58
NtRp2386
(dp2387
g61
(dp2388
sg70
g2373
sg63
(lp2389
g56
(g57
g58
NtRp2390
(dp2391
g61
(dp2392
g69
I5
ssg70
g2386
sg63
(lp2393
S'datetime.datetime(2011, 6, 30, 17, 18, 43, 543159)'
p2394
asbasbasbag56
(g72
g58
NtRp2395
(dp2396
g61
(dp2397
sg70
g66
sg63
(lp2398
g56
(g77
g58
NtRp2399
(dp2400
g61
(dp2401
g81
g82
ssg70
g2395
sg63
(lp2402
S'post_vars'
p2403
asbag56
(g77
g58
NtRp2404
(dp2405
g61
(dp2406
g88
g89
ssg70
g2395
sg63
(lp2407
S':'
asbag56
(g77
g58
NtRp2408
(dp2409
g61
(dp2410
sg70
g2395
sg63
(lp2411
g56
(g57
g58
NtRp2412
(dp2413
g61
(dp2414
g69
I5
ssg70
g2408
sg63
(lp2415
g56
(g65
g58
NtRp2416
(dp2417
g61
(dp2418
g69
I4
ssg70
Nsg63
(lp2419
sbasbasbasbag56
(g72
g58
NtRp2420
(dp2421
g61
(dp2422
sg70
g66
sg63
(lp2423
g56
(g77
g58
NtRp2424
(dp2425
g61
(dp2426
g81
g82
ssg70
g2420
sg63
(lp2427
S'raw_extension'
p2428
asbag56
(g77
g58
NtRp2429
(dp2430
g61
(dp2431
g88
g89
ssg70
g2420
sg63
(lp2432
S':'
asbag56
(g77
g58
NtRp2433
(dp2434
g61
(dp2435
sg70
g2420
sg63
(lp2436
g56
(g57
g58
NtRp2437
(dp2438
g61
(dp2439
g69
I5
ssg70
g2433
sg63
(lp2440
g2261
asbasbasbag56
(g72
g58
NtRp2441
(dp2442
g61
(dp2443
sg70
g66
sg63
(lp2444
g56
(g77
g58
NtRp2445
(dp2446
g61
(dp2447
g81
g82
ssg70
g2441
sg63
(lp2448
S'url'
p2449
asbag56
(g77
g58
NtRp2450
(dp2451
g61
(dp2452
g88
g89
ssg70
g2441
sg63
(lp2453
S':'
asbag56
(g77
g58
NtRp2454
(dp2455
g61
(dp2456
sg70
g2441
sg63
(lp2457
g56
(g57
g58
NtRp2458
(dp2459
g61
(dp2460
g69
I5
ssg70
g2454
sg63
(lp2461
S'/rdcdss/default/index.xml'
p2462
asbasbasbag56
(g72
g58
NtRp2463
(dp2464
g61
(dp2465
sg70
g66
sg63
(lp2466
g56
(g77
g58
NtRp2467
(dp2468
g61
(dp2469
g81
g82
ssg70
g2463
sg63
(lp2470
S'uuid'
p2471
asbag56
(g77
g58
NtRp2472
(dp2473
g61
(dp2474
g88
g89
ssg70
g2463
sg63
(lp2475
S':'
asbag56
(g77
g58
NtRp2476
(dp2477
g61
(dp2478
sg70
g2463
sg63
(lp2479
g56
(g57
g58
NtRp2480
(dp2481
g61
(dp2482
g69
I5
ssg70
g2476
sg63
(lp2483
S'rdcdss/89.123.2.193.2011-06-30.17-18-43.d5826e3f-3125-4619-9e2d-ff6faf34ec99'
p2484
asbasbasbag56
(g72
g58
NtRp2485
(dp2486
g61
(dp2487
sg70
g66
sg63
(lp2488
g56
(g77
g58
NtRp2489
(dp2490
g61
(dp2491
g81
g82
ssg70
g2485
sg63
(lp2492
S'vars'
p2493
asbag56
(g77
g58
NtRp2494
(dp2495
g61
(dp2496
g88
g89
ssg70
g2485
sg63
(lp2497
S':'
asbag56
(g77
g58
NtRp2498
(dp2499
g61
(dp2500
sg70
g2485
sg63
(lp2501
g56
(g57
g58
NtRp2502
(dp2503
g61
(dp2504
g69
I5
ssg70
g2498
sg63
(lp2505
g56
(g65
g58
NtRp2506
(dp2507
g61
(dp2508
g69
I4
ssg70
Nsg63
(lp2509
g56
(g72
g58
NtRp2510
(dp2511
g61
(dp2512
sg70
g2506
sg63
(lp2513
g56
(g77
g58
NtRp2514
(dp2515
g61
(dp2516
g81
g82
ssg70
g2510
sg63
(lp2517
S'q'
asbag56
(g77
g58
NtRp2518
(dp2519
g61
(dp2520
g88
g89
ssg70
g2510
sg63
(lp2521
S':'
asbag56
(g77
g58
NtRp2522
(dp2523
g61
(dp2524
sg70
g2510
sg63
(lp2525
g56
(g57
g58
NtRp2526
(dp2527
g61
(dp2528
g69
I4
ssg70
g2522
sg63
(lp2529
g2351
asbasbasbasbasbasbasbag56
(g72
g58
NtRp2530
(dp2531
g61
(dp2532
sg70
g66
sg63
(lp2533
g56
(g77
g58
NtRp2534
(dp2535
g61
(dp2536
g81
g82
ssg70
g2530
sg63
(lp2537
S'wsgi'
p2538
asbag56
(g77
g58
NtRp2539
(dp2540
g61
(dp2541
g88
g89
ssg70
g2530
sg63
(lp2542
S':'
asbag56
(g77
g58
NtRp2543
(dp2544
g61
(dp2545
sg70
g2530
sg63
(lp2546
g56
(g57
g58
NtRp2547
(dp2548
g61
(dp2549
g69
I5
ssg70
g2543
sg63
(lp2550
g56
(g65
g58
NtRp2551
(dp2552
g61
(dp2553
g69
I4
ssg70
Nsg63
(lp2554
g56
(g72
g58
NtRp2555
(dp2556
g61
(dp2557
sg70
g2551
sg63
(lp2558
g56
(g77
g58
NtRp2559
(dp2560
g61
(dp2561
g81
g82
ssg70
g2555
sg63
(lp2562
S'environ'
p2563
asbag56
(g77
g58
NtRp2564
(dp2565
g61
(dp2566
g88
g89
ssg70
g2555
sg63
(lp2567
S':'
asbag56
(g77
g58
NtRp2568
(dp2569
g61
(dp2570
sg70
g2555
sg63
(lp2571
g56
(g57
g58
NtRp2572
(dp2573
g61
(dp2574
g69
I4
ssg70
g2568
sg63
(lp2575
g56
(g65
g58
NtRp2576
(dp2577
g61
(dp2578
g69
I3
ssg70
Nsg63
(lp2579
g56
(g72
g58
NtRp2580
(dp2581
g61
(dp2582
sg70
g2576
sg63
(lp2583
g56
(g77
g58
NtRp2584
(dp2585
g61
(dp2586
g81
g82
ssg70
g2580
sg63
(lp2587
S'DOCUMENT_ROOT'
p2588
asbag56
(g77
g58
NtRp2589
(dp2590
g61
(dp2591
g88
g89
ssg70
g2580
sg63
(lp2592
S':'
asbag56
(g77
g58
NtRp2593
(dp2594
g61
(dp2595
sg70
g2580
sg63
(lp2596
g56
(g57
g58
NtRp2597
(dp2598
g61
(dp2599
g69
I3
ssg70
g2593
sg63
(lp2600
g1118
asbasbasbag56
(g72
g58
NtRp2601
(dp2602
g61
(dp2603
sg70
g2576
sg63
(lp2604
g56
(g77
g58
NtRp2605
(dp2606
g61
(dp2607
g81
g82
ssg70
g2601
sg63
(lp2608
S'GATEWAY_INTERFACE'
p2609
asbag56
(g77
g58
NtRp2610
(dp2611
g61
(dp2612
g88
g89
ssg70
g2601
sg63
(lp2613
S':'
asbag56
(g77
g58
NtRp2614
(dp2615
g61
(dp2616
sg70
g2601
sg63
(lp2617
g56
(g57
g58
NtRp2618
(dp2619
g61
(dp2620
g69
I3
ssg70
g2614
sg63
(lp2621
g1140
asbasbasbag56
(g72
g58
NtRp2622
(dp2623
g61
(dp2624
sg70
g2576
sg63
(lp2625
g56
(g77
g58
NtRp2626
(dp2627
g61
(dp2628
g81
g82
ssg70
g2622
sg63
(lp2629
S'HTTPS'
p2630
asbag56
(g77
g58
NtRp2631
(dp2632
g61
(dp2633
g88
g89
ssg70
g2622
sg63
(lp2634
S':'
asbag56
(g77
g58
NtRp2635
(dp2636
g61
(dp2637
sg70
g2622
sg63
(lp2638
g56
(g57
g58
NtRp2639
(dp2640
g61
(dp2641
g69
I3
ssg70
g2635
sg63
(lp2642
S'1'
asbasbasbag56
(g72
g58
NtRp2643
(dp2644
g61
(dp2645
sg70
g2576
sg63
(lp2646
g56
(g77
g58
NtRp2647
(dp2648
g61
(dp2649
g81
g82
ssg70
g2643
sg63
(lp2650
S'HTTP_ACCEPT'
p2651
asbag56
(g77
g58
NtRp2652
(dp2653
g61
(dp2654
g88
g89
ssg70
g2643
sg63
(lp2655
S':'
asbag56
(g77
g58
NtRp2656
(dp2657
g61
(dp2658
sg70
g2643
sg63
(lp2659
g56
(g57
g58
NtRp2660
(dp2661
g61
(dp2662
g69
I3
ssg70
g2656
sg63
(lp2663
g1183
asbasbasbag56
(g72
g58
NtRp2664
(dp2665
g61
(dp2666
sg70
g2576
sg63
(lp2667
g56
(g77
g58
NtRp2668
(dp2669
g61
(dp2670
g81
g82
ssg70
g2664
sg63
(lp2671
S'HTTP_ACCEPT_CHARSET'
p2672
asbag56
(g77
g58
NtRp2673
(dp2674
g61
(dp2675
g88
g89
ssg70
g2664
sg63
(lp2676
S':'
asbag56
(g77
g58
NtRp2677
(dp2678
g61
(dp2679
sg70
g2664
sg63
(lp2680
g56
(g57
g58
NtRp2681
(dp2682
g61
(dp2683
g69
I3
ssg70
g2677
sg63
(lp2684
g1205
asbasbasbag56
(g72
g58
NtRp2685
(dp2686
g61
(dp2687
sg70
g2576
sg63
(lp2688
g56
(g77
g58
NtRp2689
(dp2690
g61
(dp2691
g81
g82
ssg70
g2685
sg63
(lp2692
S'HTTP_ACCEPT_ENCODING'
p2693
asbag56
(g77
g58
NtRp2694
(dp2695
g61
(dp2696
g88
g89
ssg70
g2685
sg63
(lp2697
S':'
asbag56
(g77
g58
NtRp2698
(dp2699
g61
(dp2700
sg70
g2685
sg63
(lp2701
g56
(g57
g58
NtRp2702
(dp2703
g61
(dp2704
g69
I3
ssg70
g2698
sg63
(lp2705
g1227
asbasbasbag56
(g72
g58
NtRp2706
(dp2707
g61
(dp2708
sg70
g2576
sg63
(lp2709
g56
(g77
g58
NtRp2710
(dp2711
g61
(dp2712
g81
g82
ssg70
g2706
sg63
(lp2713
S'HTTP_ACCEPT_LANGUAGE'
p2714
asbag56
(g77
g58
NtRp2715
(dp2716
g61
(dp2717
g88
g89
ssg70
g2706
sg63
(lp2718
S':'
asbag56
(g77
g58
NtRp2719
(dp2720
g61
(dp2721
sg70
g2706
sg63
(lp2722
g56
(g57
g58
NtRp2723
(dp2724
g61
(dp2725
g69
I3
ssg70
g2719
sg63
(lp2726
g1249
asbasbasbag56
(g72
g58
NtRp2727
(dp2728
g61
(dp2729
sg70
g2576
sg63
(lp2730
g56
(g77
g58
NtRp2731
(dp2732
g61
(dp2733
g81
g82
ssg70
g2727
sg63
(lp2734
S'HTTP_CACHE_CONTROL'
p2735
asbag56
(g77
g58
NtRp2736
(dp2737
g61
(dp2738
g88
g89
ssg70
g2727
sg63
(lp2739
S':'
asbag56
(g77
g58
NtRp2740
(dp2741
g61
(dp2742
sg70
g2727
sg63
(lp2743
g56
(g57
g58
NtRp2744
(dp2745
g61
(dp2746
g69
I3
ssg70
g2740
sg63
(lp2747
g1271
asbasbasbag56
(g72
g58
NtRp2748
(dp2749
g61
(dp2750
sg70
g2576
sg63
(lp2751
g56
(g77
g58
NtRp2752
(dp2753
g61
(dp2754
g81
g82
ssg70
g2748
sg63
(lp2755
S'HTTP_CONNECTION'
p2756
asbag56
(g77
g58
NtRp2757
(dp2758
g61
(dp2759
g88
g89
ssg70
g2748
sg63
(lp2760
S':'
asbag56
(g77
g58
NtRp2761
(dp2762
g61
(dp2763
sg70
g2748
sg63
(lp2764
g56
(g57
g58
NtRp2765
(dp2766
g61
(dp2767
g69
I3
ssg70
g2761
sg63
(lp2768
g1293
asbasbasbag56
(g72
g58
NtRp2769
(dp2770
g61
(dp2771
sg70
g2576
sg63
(lp2772
g56
(g77
g58
NtRp2773
(dp2774
g61
(dp2775
g81
g82
ssg70
g2769
sg63
(lp2776
S'HTTP_COOKIE'
p2777
asbag56
(g77
g58
NtRp2778
(dp2779
g61
(dp2780
g88
g89
ssg70
g2769
sg63
(lp2781
S':'
asbag56
(g77
g58
NtRp2782
(dp2783
g61
(dp2784
sg70
g2769
sg63
(lp2785
g56
(g57
g58
NtRp2786
(dp2787
g61
(dp2788
g69
I3
ssg70
g2782
sg63
(lp2789
g1315
asbasbasbag56
(g72
g58
NtRp2790
(dp2791
g61
(dp2792
sg70
g2576
sg63
(lp2793
g56
(g77
g58
NtRp2794
(dp2795
g61
(dp2796
g81
g82
ssg70
g2790
sg63
(lp2797
S'HTTP_HOST'
p2798
asbag56
(g77
g58
NtRp2799
(dp2800
g61
(dp2801
g88
g89
ssg70
g2790
sg63
(lp2802
S':'
asbag56
(g77
g58
NtRp2803
(dp2804
g61
(dp2805
sg70
g2790
sg63
(lp2806
g56
(g57
g58
NtRp2807
(dp2808
g61
(dp2809
g69
I3
ssg70
g2803
sg63
(lp2810
g1337
asbasbasbag56
(g72
g58
NtRp2811
(dp2812
g61
(dp2813
sg70
g2576
sg63
(lp2814
g56
(g77
g58
NtRp2815
(dp2816
g61
(dp2817
g81
g82
ssg70
g2811
sg63
(lp2818
S'HTTP_USER_AGENT'
p2819
asbag56
(g77
g58
NtRp2820
(dp2821
g61
(dp2822
g88
g89
ssg70
g2811
sg63
(lp2823
S':'
asbag56
(g77
g58
NtRp2824
(dp2825
g61
(dp2826
sg70
g2811
sg63
(lp2827
g56
(g57
g58
NtRp2828
(dp2829
g61
(dp2830
g69
I3
ssg70
g2824
sg63
(lp2831
g1359
asbasbasbag56
(g72
g58
NtRp2832
(dp2833
g61
(dp2834
sg70
g2576
sg63
(lp2835
g56
(g77
g58
NtRp2836
(dp2837
g61
(dp2838
g81
g82
ssg70
g2832
sg63
(lp2839
S'PATH_INFO'
p2840
asbag56
(g77
g58
NtRp2841
(dp2842
g61
(dp2843
g88
g89
ssg70
g2832
sg63
(lp2844
S':'
asbag56
(g77
g58
NtRp2845
(dp2846
g61
(dp2847
sg70
g2832
sg63
(lp2848
g56
(g57
g58
NtRp2849
(dp2850
g61
(dp2851
g69
I3
ssg70
g2845
sg63
(lp2852
g1645
asbasbasbag56
(g72
g58
NtRp2853
(dp2854
g61
(dp2855
sg70
g2576
sg63
(lp2856
g56
(g77
g58
NtRp2857
(dp2858
g61
(dp2859
g81
g82
ssg70
g2853
sg63
(lp2860
S'PATH_TRANSLATED'
p2861
asbag56
(g77
g58
NtRp2862
(dp2863
g61
(dp2864
g88
g89
ssg70
g2853
sg63
(lp2865
S':'
asbag56
(g77
g58
NtRp2866
(dp2867
g61
(dp2868
sg70
g2853
sg63
(lp2869
g56
(g57
g58
NtRp2870
(dp2871
g61
(dp2872
g69
I3
ssg70
g2866
sg63
(lp2873
g1667
asbasbasbag56
(g72
g58
NtRp2874
(dp2875
g61
(dp2876
sg70
g2576
sg63
(lp2877
g56
(g77
g58
NtRp2878
(dp2879
g61
(dp2880
g81
g82
ssg70
g2874
sg63
(lp2881
S'QUERY_STRING'
p2882
asbag56
(g77
g58
NtRp2883
(dp2884
g61
(dp2885
g88
g89
ssg70
g2874
sg63
(lp2886
S':'
asbag56
(g77
g58
NtRp2887
(dp2888
g61
(dp2889
sg70
g2874
sg63
(lp2890
g56
(g57
g58
NtRp2891
(dp2892
g61
(dp2893
g69
I3
ssg70
g2887
sg63
(lp2894
g1689
asbasbasbag56
(g72
g58
NtRp2895
(dp2896
g61
(dp2897
sg70
g2576
sg63
(lp2898
g56
(g77
g58
NtRp2899
(dp2900
g61
(dp2901
g81
g82
ssg70
g2895
sg63
(lp2902
S'REMOTE_ADDR'
p2903
asbag56
(g77
g58
NtRp2904
(dp2905
g61
(dp2906
g88
g89
ssg70
g2895
sg63
(lp2907
S':'
asbag56
(g77
g58
NtRp2908
(dp2909
g61
(dp2910
sg70
g2895
sg63
(lp2911
g56
(g57
g58
NtRp2912
(dp2913
g61
(dp2914
g69
I3
ssg70
g2908
sg63
(lp2915
g189
asbasbasbag56
(g72
g58
NtRp2916
(dp2917
g61
(dp2918
sg70
g2576
sg63
(lp2919
g56
(g77
g58
NtRp2920
(dp2921
g61
(dp2922
g81
g82
ssg70
g2916
sg63
(lp2923
S'REMOTE_PORT'
p2924
asbag56
(g77
g58
NtRp2925
(dp2926
g61
(dp2927
g88
g89
ssg70
g2916
sg63
(lp2928
S':'
asbag56
(g77
g58
NtRp2929
(dp2930
g61
(dp2931
sg70
g2916
sg63
(lp2932
g56
(g57
g58
NtRp2933
(dp2934
g61
(dp2935
g69
I3
ssg70
g2929
sg63
(lp2936
g1732
asbasbasbag56
(g72
g58
NtRp2937
(dp2938
g61
(dp2939
sg70
g2576
sg63
(lp2940
g56
(g77
g58
NtRp2941
(dp2942
g61
(dp2943
g81
g82
ssg70
g2937
sg63
(lp2944
S'REQUEST_METHOD'
p2945
asbag56
(g77
g58
NtRp2946
(dp2947
g61
(dp2948
g88
g89
ssg70
g2937
sg63
(lp2949
S':'
asbag56
(g77
g58
NtRp2950
(dp2951
g61
(dp2952
sg70
g2937
sg63
(lp2953
g56
(g57
g58
NtRp2954
(dp2955
g61
(dp2956
g69
I3
ssg70
g2950
sg63
(lp2957
g1754
asbasbasbag56
(g72
g58
NtRp2958
(dp2959
g61
(dp2960
sg70
g2576
sg63
(lp2961
g56
(g77
g58
NtRp2962
(dp2963
g61
(dp2964
g81
g82
ssg70
g2958
sg63
(lp2965
S'REQUEST_URI'
p2966
asbag56
(g77
g58
NtRp2967
(dp2968
g61
(dp2969
g88
g89
ssg70
g2958
sg63
(lp2970
S':'
asbag56
(g77
g58
NtRp2971
(dp2972
g61
(dp2973
sg70
g2958
sg63
(lp2974
g56
(g57
g58
NtRp2975
(dp2976
g61
(dp2977
g69
I3
ssg70
g2971
sg63
(lp2978
g1776
asbasbasbag56
(g72
g58
NtRp2979
(dp2980
g61
(dp2981
sg70
g2576
sg63
(lp2982
g56
(g77
g58
NtRp2983
(dp2984
g61
(dp2985
g81
g82
ssg70
g2979
sg63
(lp2986
S'SCRIPT_FILENAME'
p2987
asbag56
(g77
g58
NtRp2988
(dp2989
g61
(dp2990
g88
g89
ssg70
g2979
sg63
(lp2991
S':'
asbag56
(g77
g58
NtRp2992
(dp2993
g61
(dp2994
sg70
g2979
sg63
(lp2995
g56
(g57
g58
NtRp2996
(dp2997
g61
(dp2998
g69
I3
ssg70
g2992
sg63
(lp2999
g1798
asbasbasbag56
(g72
g58
NtRp3000
(dp3001
g61
(dp3002
sg70
g2576
sg63
(lp3003
g56
(g77
g58
NtRp3004
(dp3005
g61
(dp3006
g81
g82
ssg70
g3000
sg63
(lp3007
S'SCRIPT_NAME'
p3008
asbag56
(g77
g58
NtRp3009
(dp3010
g61
(dp3011
g88
g89
ssg70
g3000
sg63
(lp3012
S':'
asbag56
(g77
g58
NtRp3013
(dp3014
g61
(dp3015
sg70
g3000
sg63
(lp3016
g56
(g57
g58
NtRp3017
(dp3018
g61
(dp3019
g69
I3
ssg70
g3013
sg63
(lp3020
S''
asbasbasbag56
(g72
g58
NtRp3021
(dp3022
g61
(dp3023
sg70
g2576
sg63
(lp3024
g56
(g77
g58
NtRp3025
(dp3026
g61
(dp3027
g81
g82
ssg70
g3021
sg63
(lp3028
S'SERVER_ADDR'
p3029
asbag56
(g77
g58
NtRp3030
(dp3031
g61
(dp3032
g88
g89
ssg70
g3021
sg63
(lp3033
S':'
asbag56
(g77
g58
NtRp3034
(dp3035
g61
(dp3036
sg70
g3021
sg63
(lp3037
g56
(g57
g58
NtRp3038
(dp3039
g61
(dp3040
g69
I3
ssg70
g3034
sg63
(lp3041
g1841
asbasbasbag56
(g72
g58
NtRp3042
(dp3043
g61
(dp3044
sg70
g2576
sg63
(lp3045
g56
(g77
g58
NtRp3046
(dp3047
g61
(dp3048
g81
g82
ssg70
g3042
sg63
(lp3049
S'SERVER_ADMIN'
p3050
asbag56
(g77
g58
NtRp3051
(dp3052
g61
(dp3053
g88
g89
ssg70
g3042
sg63
(lp3054
S':'
asbag56
(g77
g58
NtRp3055
(dp3056
g61
(dp3057
sg70
g3042
sg63
(lp3058
g56
(g57
g58
NtRp3059
(dp3060
g61
(dp3061
g69
I3
ssg70
g3055
sg63
(lp3062
g1863
asbasbasbag56
(g72
g58
NtRp3063
(dp3064
g61
(dp3065
sg70
g2576
sg63
(lp3066
g56
(g77
g58
NtRp3067
(dp3068
g61
(dp3069
g81
g82
ssg70
g3063
sg63
(lp3070
S'SERVER_NAME'
p3071
asbag56
(g77
g58
NtRp3072
(dp3073
g61
(dp3074
g88
g89
ssg70
g3063
sg63
(lp3075
S':'
asbag56
(g77
g58
NtRp3076
(dp3077
g61
(dp3078
sg70
g3063
sg63
(lp3079
g56
(g57
g58
NtRp3080
(dp3081
g61
(dp3082
g69
I3
ssg70
g3076
sg63
(lp3083
g1885
asbasbasbag56
(g72
g58
NtRp3084
(dp3085
g61
(dp3086
sg70
g2576
sg63
(lp3087
g56
(g77
g58
NtRp3088
(dp3089
g61
(dp3090
g81
g82
ssg70
g3084
sg63
(lp3091
S'SERVER_PORT'
p3092
asbag56
(g77
g58
NtRp3093
(dp3094
g61
(dp3095
g88
g89
ssg70
g3084
sg63
(lp3096
S':'
asbag56
(g77
g58
NtRp3097
(dp3098
g61
(dp3099
sg70
g3084
sg63
(lp3100
g56
(g57
g58
NtRp3101
(dp3102
g61
(dp3103
g69
I3
ssg70
g3097
sg63
(lp3104
g1907
asbasbasbag56
(g72
g58
NtRp3105
(dp3106
g61
(dp3107
sg70
g2576
sg63
(lp3108
g56
(g77
g58
NtRp3109
(dp3110
g61
(dp3111
g81
g82
ssg70
g3105
sg63
(lp3112
S'SERVER_PROTOCOL'
p3113
asbag56
(g77
g58
NtRp3114
(dp3115
g61
(dp3116
g88
g89
ssg70
g3105
sg63
(lp3117
S':'
asbag56
(g77
g58
NtRp3118
(dp3119
g61
(dp3120
sg70
g3105
sg63
(lp3121
g56
(g57
g58
NtRp3122
(dp3123
g61
(dp3124
g69
I3
ssg70
g3118
sg63
(lp3125
g1929
asbasbasbag56
(g72
g58
NtRp3126
(dp3127
g61
(dp3128
sg70
g2576
sg63
(lp3129
g56
(g77
g58
NtRp3130
(dp3131
g61
(dp3132
g81
g82
ssg70
g3126
sg63
(lp3133
S'SERVER_SIGNATURE'
p3134
asbag56
(g77
g58
NtRp3135
(dp3136
g61
(dp3137
g88
g89
ssg70
g3126
sg63
(lp3138
S':'
asbag56
(g77
g58
NtRp3139
(dp3140
g61
(dp3141
sg70
g3126
sg63
(lp3142
g56
(g57
g58
NtRp3143
(dp3144
g61
(dp3145
g69
I3
ssg70
g3139
sg63
(lp3146
g1951
asbasbasbag56
(g72
g58
NtRp3147
(dp3148
g61
(dp3149
sg70
g2576
sg63
(lp3150
g56
(g77
g58
NtRp3151
(dp3152
g61
(dp3153
g81
g82
ssg70
g3147
sg63
(lp3154
S'SERVER_SOFTWARE'
p3155
asbag56
(g77
g58
NtRp3156
(dp3157
g61
(dp3158
g88
g89
ssg70
g3147
sg63
(lp3159
S':'
asbag56
(g77
g58
NtRp3160
(dp3161
g61
(dp3162
sg70
g3147
sg63
(lp3163
g56
(g57
g58
NtRp3164
(dp3165
g61
(dp3166
g69
I3
ssg70
g3160
sg63
(lp3167
g1973
asbasbasbag56
(g72
g58
NtRp3168
(dp3169
g61
(dp3170
sg70
g2576
sg63
(lp3171
g56
(g77
g58
NtRp3172
(dp3173
g61
(dp3174
g81
g82
ssg70
g3168
sg63
(lp3175
S'SSL_TLS_SNI'
p3176
asbag56
(g77
g58
NtRp3177
(dp3178
g61
(dp3179
g88
g89
ssg70
g3168
sg63
(lp3180
S':'
asbag56
(g77
g58
NtRp3181
(dp3182
g61
(dp3183
sg70
g3168
sg63
(lp3184
g56
(g57
g58
NtRp3185
(dp3186
g61
(dp3187
g69
I3
ssg70
g3181
sg63
(lp3188
g1995
asbasbasbag56
(g72
g58
NtRp3189
(dp3190
g61
(dp3191
sg70
g2576
sg63
(lp3192
g56
(g77
g58
NtRp3193
(dp3194
g61
(dp3195
g81
g82
ssg70
g3189
sg63
(lp3196
S'mod_wsgi.application_group'
p3197
asbag56
(g77
g58
NtRp3198
(dp3199
g61
(dp3200
g88
g89
ssg70
g3189
sg63
(lp3201
S':'
asbag56
(g77
g58
NtRp3202
(dp3203
g61
(dp3204
sg70
g3189
sg63
(lp3205
g56
(g57
g58
NtRp3206
(dp3207
g61
(dp3208
g69
I3
ssg70
g3202
sg63
(lp3209
g1402
asbasbasbag56
(g72
g58
NtRp3210
(dp3211
g61
(dp3212
sg70
g2576
sg63
(lp3213
g56
(g77
g58
NtRp3214
(dp3215
g61
(dp3216
g81
g82
ssg70
g3210
sg63
(lp3217
S'mod_wsgi.callable_object'
p3218
asbag56
(g77
g58
NtRp3219
(dp3220
g61
(dp3221
g88
g89
ssg70
g3210
sg63
(lp3222
S':'
asbag56
(g77
g58
NtRp3223
(dp3224
g61
(dp3225
sg70
g3210
sg63
(lp3226
g56
(g57
g58
NtRp3227
(dp3228
g61
(dp3229
g69
I3
ssg70
g3223
sg63
(lp3230
g1424
asbasbasbag56
(g72
g58
NtRp3231
(dp3232
g61
(dp3233
sg70
g2576
sg63
(lp3234
g56
(g77
g58
NtRp3235
(dp3236
g61
(dp3237
g81
g82
ssg70
g3231
sg63
(lp3238
S'mod_wsgi.handler_script'
p3239
asbag56
(g77
g58
NtRp3240
(dp3241
g61
(dp3242
g88
g89
ssg70
g3231
sg63
(lp3243
S':'
asbag56
(g77
g58
NtRp3244
(dp3245
g61
(dp3246
sg70
g3231
sg63
(lp3247
g56
(g57
g58
NtRp3248
(dp3249
g61
(dp3250
g69
I3
ssg70
g3244
sg63
(lp3251
S''
asbasbasbag56
(g72
g58
NtRp3252
(dp3253
g61
(dp3254
sg70
g2576
sg63
(lp3255
g56
(g77
g58
NtRp3256
(dp3257
g61
(dp3258
g81
g82
ssg70
g3252
sg63
(lp3259
S'mod_wsgi.input_chunked'
p3260
asbag56
(g77
g58
NtRp3261
(dp3262
g61
(dp3263
g88
g89
ssg70
g3252
sg63
(lp3264
S':'
asbag56
(g77
g58
NtRp3265
(dp3266
g61
(dp3267
sg70
g3252
sg63
(lp3268
g56
(g57
g58
NtRp3269
(dp3270
g61
(dp3271
g69
I3
ssg70
g3265
sg63
(lp3272
S'0'
asbasbasbag56
(g72
g58
NtRp3273
(dp3274
g61
(dp3275
sg70
g2576
sg63
(lp3276
g56
(g77
g58
NtRp3277
(dp3278
g61
(dp3279
g81
g82
ssg70
g3273
sg63
(lp3280
S'mod_wsgi.listener_host'
p3281
asbag56
(g77
g58
NtRp3282
(dp3283
g61
(dp3284
g88
g89
ssg70
g3273
sg63
(lp3285
S':'
asbag56
(g77
g58
NtRp3286
(dp3287
g61
(dp3288
sg70
g3273
sg63
(lp3289
g56
(g57
g58
NtRp3290
(dp3291
g61
(dp3292
g69
I3
ssg70
g3286
sg63
(lp3293
S''
asbasbasbag56
(g72
g58
NtRp3294
(dp3295
g61
(dp3296
sg70
g2576
sg63
(lp3297
g56
(g77
g58
NtRp3298
(dp3299
g61
(dp3300
g81
g82
ssg70
g3294
sg63
(lp3301
S'mod_wsgi.listener_port'
p3302
asbag56
(g77
g58
NtRp3303
(dp3304
g61
(dp3305
g88
g89
ssg70
g3294
sg63
(lp3306
S':'
asbag56
(g77
g58
NtRp3307
(dp3308
g61
(dp3309
sg70
g3294
sg63
(lp3310
g56
(g57
g58
NtRp3311
(dp3312
g61
(dp3313
g69
I3
ssg70
g3307
sg63
(lp3314
g1509
asbasbasbag56
(g72
g58
NtRp3315
(dp3316
g61
(dp3317
sg70
g2576
sg63
(lp3318
g56
(g77
g58
NtRp3319
(dp3320
g61
(dp3321
g81
g82
ssg70
g3315
sg63
(lp3322
S'mod_wsgi.process_group'
p3323
asbag56
(g77
g58
NtRp3324
(dp3325
g61
(dp3326
g88
g89
ssg70
g3315
sg63
(lp3327
S':'
asbag56
(g77
g58
NtRp3328
(dp3329
g61
(dp3330
sg70
g3315
sg63
(lp3331
g56
(g57
g58
NtRp3332
(dp3333
g61
(dp3334
g69
I3
ssg70
g3328
sg63
(lp3335
g1531
asbasbasbag56
(g72
g58
NtRp3336
(dp3337
g61
(dp3338
sg70
g2576
sg63
(lp3339
g56
(g77
g58
NtRp3340
(dp3341
g61
(dp3342
g81
g82
ssg70
g3336
sg63
(lp3343
S'mod_wsgi.request_handler'
p3344
asbag56
(g77
g58
NtRp3345
(dp3346
g61
(dp3347
g88
g89
ssg70
g3336
sg63
(lp3348
S':'
asbag56
(g77
g58
NtRp3349
(dp3350
g61
(dp3351
sg70
g3336
sg63
(lp3352
g56
(g57
g58
NtRp3353
(dp3354
g61
(dp3355
g69
I3
ssg70
g3349
sg63
(lp3356
g1553
asbasbasbag56
(g72
g58
NtRp3357
(dp3358
g61
(dp3359
sg70
g2576
sg63
(lp3360
g56
(g77
g58
NtRp3361
(dp3362
g61
(dp3363
g81
g82
ssg70
g3357
sg63
(lp3364
S'mod_wsgi.script_reloading'
p3365
asbag56
(g77
g58
NtRp3366
(dp3367
g61
(dp3368
g88
g89
ssg70
g3357
sg63
(lp3369
S':'
asbag56
(g77
g58
NtRp3370
(dp3371
g61
(dp3372
sg70
g3357
sg63
(lp3373
g56
(g57
g58
NtRp3374
(dp3375
g61
(dp3376
g69
I3
ssg70
g3370
sg63
(lp3377
S'1'
asbasbasbag56
(g72
g58
NtRp3378
(dp3379
g61
(dp3380
sg70
g2576
sg63
(lp3381
g56
(g77
g58
NtRp3382
(dp3383
g61
(dp3384
g81
g82
ssg70
g3378
sg63
(lp3385
S'mod_wsgi.version'
p3386
asbag56
(g77
g58
NtRp3387
(dp3388
g61
(dp3389
g88
g89
ssg70
g3378
sg63
(lp3390
S':'
asbag56
(g77
g58
NtRp3391
(dp3392
g61
(dp3393
sg70
g3378
sg63
(lp3394
g56
(g57
g58
NtRp3395
(dp3396
g61
(dp3397
g69
I3
ssg70
g3391
sg63
(lp3398
g56
(g65
g58
NtRp3399
(dp3400
g61
(dp3401
g69
I2
ssg70
Nsg63
(lp3402
g56
(g72
g58
NtRp3403
(dp3404
g61
(dp3405
sg70
g3399
sg63
(lp3406
g56
(g77
g58
NtRp3407
(dp3408
g61
(dp3409
sg70
g3403
sg63
(lp3410
g56
(g57
g58
NtRp3411
(dp3412
g61
(dp3413
g69
I2
ssg70
g3407
sg63
(lp3414
S'3'
asbasbasbag56
(g72
g58
NtRp3415
(dp3416
g61
(dp3417
sg70
g3399
sg63
(lp3418
g56
(g77
g58
NtRp3419
(dp3420
g61
(dp3421
sg70
g3415
sg63
(lp3422
g56
(g57
g58
NtRp3423
(dp3424
g61
(dp3425
g69
I2
ssg70
g3419
sg63
(lp3426
S'2'
asbasbasbasbasbasbasbag56
(g72
g58
NtRp3427
(dp3428
g61
(dp3429
sg70
g2576
sg63
(lp3430
g56
(g77
g58
NtRp3431
(dp3432
g61
(dp3433
g81
g82
ssg70
g3427
sg63
(lp3434
S'wsgi.errors'
p3435
asbag56
(g77
g58
NtRp3436
(dp3437
g61
(dp3438
g88
g89
ssg70
g3427
sg63
(lp3439
S':'
asbag56
(g77
g58
NtRp3440
(dp3441
g61
(dp3442
sg70
g3427
sg63
(lp3443
g56
(g57
g58
NtRp3444
(dp3445
g61
(dp3446
g69
I3
ssg70
g3440
sg63
(lp3447
S'<mod_wsgi.Log object at 0x2b9bdb81f0f0>'
p3448
asbasbasbag56
(g72
g58
NtRp3449
(dp3450
g61
(dp3451
sg70
g2576
sg63
(lp3452
g56
(g77
g58
NtRp3453
(dp3454
g61
(dp3455
g81
g82
ssg70
g3449
sg63
(lp3456
S'wsgi.file_wrapper'
p3457
asbag56
(g77
g58
NtRp3458
(dp3459
g61
(dp3460
g88
g89
ssg70
g3449
sg63
(lp3461
S':'
asbag56
(g77
g58
NtRp3462
(dp3463
g61
(dp3464
sg70
g3449
sg63
(lp3465
g56
(g57
g58
NtRp3466
(dp3467
g61
(dp3468
g69
I3
ssg70
g3462
sg63
(lp3469
S'<built-in method file_wrapper of mod_wsgi.Adapter object at 0x2b9bdb65bc60>'
p3470
asbasbasbag56
(g72
g58
NtRp3471
(dp3472
g61
(dp3473
sg70
g2576
sg63
(lp3474
g56
(g77
g58
NtRp3475
(dp3476
g61
(dp3477
g81
g82
ssg70
g3471
sg63
(lp3478
S'wsgi.input'
p3479
asbag56
(g77
g58
NtRp3480
(dp3481
g61
(dp3482
g88
g89
ssg70
g3471
sg63
(lp3483
S':'
asbag56
(g77
g58
NtRp3484
(dp3485
g61
(dp3486
sg70
g3471
sg63
(lp3487
g56
(g57
g58
NtRp3488
(dp3489
g61
(dp3490
g69
I3
ssg70
g3484
sg63
(lp3491
S'<cStringIO.StringO object at 0x2b9be0ad8ca8>'
p3492
asbasbasbag56
(g72
g58
NtRp3493
(dp3494
g61
(dp3495
sg70
g2576
sg63
(lp3496
g56
(g77
g58
NtRp3497
(dp3498
g61
(dp3499
g81
g82
ssg70
g3493
sg63
(lp3500
S'wsgi.multiprocess'
p3501
asbag56
(g77
g58
NtRp3502
(dp3503
g61
(dp3504
g88
g89
ssg70
g3493
sg63
(lp3505
S':'
asbag56
(g77
g58
NtRp3506
(dp3507
g61
(dp3508
sg70
g3493
sg63
(lp3509
g56
(g57
g58
NtRp3510
(dp3511
g61
(dp3512
g69
I3
ssg70
g3506
sg63
(lp3513
g99
asbasbasbag56
(g72
g58
NtRp3514
(dp3515
g61
(dp3516
sg70
g2576
sg63
(lp3517
g56
(g77
g58
NtRp3518
(dp3519
g61
(dp3520
g81
g82
ssg70
g3514
sg63
(lp3521
S'wsgi.multithread'
p3522
asbag56
(g77
g58
NtRp3523
(dp3524
g61
(dp3525
g88
g89
ssg70
g3514
sg63
(lp3526
S':'
asbag56
(g77
g58
NtRp3527
(dp3528
g61
(dp3529
sg70
g3514
sg63
(lp3530
g56
(g57
g58
NtRp3531
(dp3532
g61
(dp3533
g69
I3
ssg70
g3527
sg63
(lp3534
g2147
asbasbasbag56
(g72
g58
NtRp3535
(dp3536
g61
(dp3537
sg70
g2576
sg63
(lp3538
g56
(g77
g58
NtRp3539
(dp3540
g61
(dp3541
g81
g82
ssg70
g3535
sg63
(lp3542
S'wsgi.run_once'
p3543
asbag56
(g77
g58
NtRp3544
(dp3545
g61
(dp3546
g88
g89
ssg70
g3535
sg63
(lp3547
S':'
asbag56
(g77
g58
NtRp3548
(dp3549
g61
(dp3550
sg70
g3535
sg63
(lp3551
g56
(g57
g58
NtRp3552
(dp3553
g61
(dp3554
g69
I3
ssg70
g3548
sg63
(lp3555
g99
asbasbasbag56
(g72
g58
NtRp3556
(dp3557
g61
(dp3558
sg70
g2576
sg63
(lp3559
g56
(g77
g58
NtRp3560
(dp3561
g61
(dp3562
g81
g82
ssg70
g3556
sg63
(lp3563
S'wsgi.url_scheme'
p3564
asbag56
(g77
g58
NtRp3565
(dp3566
g61
(dp3567
g88
g89
ssg70
g3556
sg63
(lp3568
S':'
asbag56
(g77
g58
NtRp3569
(dp3570
g61
(dp3571
sg70
g3556
sg63
(lp3572
g56
(g57
g58
NtRp3573
(dp3574
g61
(dp3575
g69
I3
ssg70
g3569
sg63
(lp3576
g2190
asbasbasbag56
(g72
g58
NtRp3577
(dp3578
g61
(dp3579
sg70
g2576
sg63
(lp3580
g56
(g77
g58
NtRp3581
(dp3582
g61
(dp3583
g81
g82
ssg70
g3577
sg63
(lp3584
S'wsgi.version'
p3585
asbag56
(g77
g58
NtRp3586
(dp3587
g61
(dp3588
g88
g89
ssg70
g3577
sg63
(lp3589
S':'
asbag56
(g77
g58
NtRp3590
(dp3591
g61
(dp3592
sg70
g3577
sg63
(lp3593
g56
(g57
g58
NtRp3594
(dp3595
g61
(dp3596
g69
I3
ssg70
g3590
sg63
(lp3597
S'1'
asbasbasbasbasbasbasbasbasbasbasbasbasbsS'frames'
p3598
(lp3599
(dp3600
S'file'
p3601
S'/home/www-data/web2py/gluon/restricted.py'
p3602
sS'dump'
p3603
(dp3604
S'environment'
p3605
S"{'A': <class 'gluon.html.A'>, 'Auth': <class 'gluon.tools.Auth'>, 'B': <class 'gluon.html.B'>, 'BEAUTIFY': <class 'gluon.html.BEAUTIFY'>, 'BODY': <class 'gluon.html.BODY'>, 'BR': <class 'gluon.html.BR'>, 'CENTER': <class 'gluon.html.CENTER'>, 'CLEANUP': <class 'gluon.validators.CLEANUP'>, 'CODE': <class 'gluon.html.CODE'>, 'CRYPT': <class 'gluon.validators.CRYPT'>, ...}"
p3606
sS'ccode'
p3607
S'<code object <module> at 0x2b9bdb821990, file "/...ications/rdcdss/controllers/default.py", line 11>'
p3608
ssS'lnum'
p3609
I181
sS'lines'
p3610
(dp3611
I176
S'    try:'
p3612
sI177
S'        if type(code) == types.CodeType:'
p3613
sI178
S'            ccode = code'
p3614
sI179
S'        else:'
p3615
sI180
S'            ccode = compile2(code,layer)'
p3616
sI181
S'        exec ccode in environment'
p3617
sI182
S'    except HTTP:'
p3618
sI183
S'        raise'
p3619
sI184
S'    except Exception:'
p3620
sI185
S'        # XXX Show exception in Wing IDE if running in debugger'
p3621
ssS'call'
p3622
S"(code='# -*- coding: utf-8 -*- \\n# this file is released...ervice()\\n\\nresponse._vars=response._caller(index)\\n', environment={'A': <class 'gluon.html.A'>, 'Auth': <class 'gluon.tools.Auth'>, 'B': <class 'gluon.html.B'>, 'BEAUTIFY': <class 'gluon.html.BEAUTIFY'>, 'BODY': <class 'gluon.html.BODY'>, 'BR': <class 'gluon.html.BR'>, 'CENTER': <class 'gluon.html.CENTER'>, 'CLEANUP': <class 'gluon.validators.CLEANUP'>, 'CODE': <class 'gluon.html.CODE'>, 'CRYPT': <class 'gluon.validators.CRYPT'>, ...}, layer='/home/www-data/web2py/applications/rdcdss/controllers/default.py')"
p3623
sS'func'
p3624
S'restricted'
p3625
sa(dp3626
g3601
S'/home/www-data/web2py/applications/rdcdss/controllers/default.py'
p3627
sg3603
(dp3628
sg3609
I238
sg3610
(dp3629
I227
S''
sI228
S'def call():'
p3630
sI229
S'    """'
p3631
sI230
S'    exposes services. for example:'
p3632
sI231
S'    http://..../[app]/default/call/jsonrpc'
p3633
sI232
S'    decorate with @services.jsonrpc the functions to expose'
p3634
sI233
S'    supports xml, json, xmlrpc, jsonrpc, amfrpc, rss, csv'
p3635
sI234
S'    """'
p3636
sI235
S'    session.forget()'
p3637
sI236
S'    return service()'
p3638
ssg3622
S'()'
p3639
sg3624
S'<module>'
p3640
sa(dp3641
g3601
S'/home/www-data/web2py/gluon/globals.py'
p3642
sg3603
(dp3643
S'self'
p3644
S'undefined'
p3645
sS'f'
S'<function index>'
p3646
ssg3609
I133
sg3610
(dp3647
I128
S"        self.flash = ''           # used by the default view layout"
p3648
sI129
S'        self.meta = Storage()     # used by web2py_ajax.html'
p3649
sI130
S'        self.menu = []            # used by the default view layout'
p3650
sI131
S'        self.files = []           # used by web2py_ajax.html'
p3651
sI132
S'        self._vars = None'
p3652
sI133
S'        self._caller = lambda f: f()'
p3653
sI134
S'        self._view_environment = None'
p3654
sI135
S'        self._custom_commit = None'
p3655
sI136
S'        self._custom_rollback = None'
p3656
sI137
S''
ssg3622
S'(f=<function index>)'
p3657
sg3624
S'<lambda>'
p3658
sa(dp3659
g3601
S'/home/www-data/web2py/applications/rdcdss/controllers/default.py'
p3660
sg3603
(dp3661
S'global session'
p3662
S"<Storage {'query': '', 'data': {'documentix': {'...hashstring': '718f311c5303efaa5826ea571cd47a33'}>"
p3663
sS'row.f_snippet'
p3664
S"'Sickle Cell Anemia Sickle Cell Disease Wednesday... and swelling in the hands and feet due to blo...'"
p3665
sS'row.f_url'
p3666
S"'http://www.madisonsfoundation.org/index.php/comp...tion,com_mpower/Itemid,49/diseaseID,89/index.html'"
p3667
sS'row.f_rank'
p3668
S"'1'"
p3669
sS'row.f_title'
p3670
S"'Sickle Cell Anemia'"
p3671
sS'session.data'
p3672
S"{'documentix': {'query': 'anemia, low red blood cells count, infection', 'raregenet': None, 'session_id': '89.123.2.193-4e1de357-5b7c-4409-92bc-12a58f0742b6'}}"
p3673
sS'row'
p3674
S"<Row {'f_title': 'Sickle Cell Anemia', 'f_url': ... <lambda> at 0x2b9bdb81b050>, 'f_docno': '5451'}>"
p3675
ssg3609
I56
sg3610
(dp3676
I51
S'        db.t_result.truncate()'
p3677
sI52
S"        db.t_result.import_from_csv_file(open(os.getcwd()+'/results/'+hashstring,'r'))"
p3678
sI53
S'        rows = []'
p3679
sI54
S'        session.data["documentix"]={"query":query,"raregenet":checked, "session_id":response.session_id}'
p3680
sI55
S'        for row in db().select(db.t_result.ALL):'
p3681
sI56
S'            session.data["document"]["results"]={"result_"+row.f_rank:{"title":row.f_title,"url":row.f_url,"snippet":row.f_snippet}}'
p3682
sI57
S'            rows.append(row)'
p3683
sI58
S'        session.hashstring = hashstring'
p3684
sI59
S'        session.query = query'
p3685
sI60
S'        db.t_resdis.truncate()'
p3686
ssg3622
S'()'
p3687
sg3624
S'index'
p3688
sasS'pyver'
p3689
S'Python 2.6.6: /usr/bin/python'
p3690
sS'session'
p3691
g56
(g57
g58
NtRp3692
(dp3693
g61
(dp3694
sg63
(lp3695
g56
(g65
g58
NtRp3696
(dp3697
g61
(dp3698
g69
I5
ssg70
Nsg63
(lp3699
g56
(g72
g58
NtRp3700
(dp3701
g61
(dp3702
sg70
g3696
sg63
(lp3703
g56
(g77
g58
NtRp3704
(dp3705
g61
(dp3706
g81
g82
ssg70
g3700
sg63
(lp3707
S'data'
p3708
asbag56
(g77
g58
NtRp3709
(dp3710
g61
(dp3711
g88
g89
ssg70
g3700
sg63
(lp3712
S':'
asbag56
(g77
g58
NtRp3713
(dp3714
g61
(dp3715
sg70
g3700
sg63
(lp3716
g56
(g57
g58
NtRp3717
(dp3718
g61
(dp3719
g69
I5
ssg70
g3713
sg63
(lp3720
g56
(g65
g58
NtRp3721
(dp3722
g61
(dp3723
g69
I4
ssg70
Nsg63
(lp3724
g56
(g72
g58
NtRp3725
(dp3726
g61
(dp3727
sg70
g3721
sg63
(lp3728
g56
(g77
g58
NtRp3729
(dp3730
g61
(dp3731
g81
g82
ssg70
g3725
sg63
(lp3732
S'documentix'
p3733
asbag56
(g77
g58
NtRp3734
(dp3735
g61
(dp3736
g88
g89
ssg70
g3725
sg63
(lp3737
S':'
asbag56
(g77
g58
NtRp3738
(dp3739
g61
(dp3740
sg70
g3725
sg63
(lp3741
g56
(g57
g58
NtRp3742
(dp3743
g61
(dp3744
g69
I4
ssg70
g3738
sg63
(lp3745
g56
(g65
g58
NtRp3746
(dp3747
g61
(dp3748
g69
I3
ssg70
Nsg63
(lp3749
g56
(g72
g58
NtRp3750
(dp3751
g61
(dp3752
sg70
g3746
sg63
(lp3753
g56
(g77
g58
NtRp3754
(dp3755
g61
(dp3756
g81
g82
ssg70
g3750
sg63
(lp3757
S'query'
p3758
asbag56
(g77
g58
NtRp3759
(dp3760
g61
(dp3761
g88
g89
ssg70
g3750
sg63
(lp3762
S':'
asbag56
(g77
g58
NtRp3763
(dp3764
g61
(dp3765
sg70
g3750
sg63
(lp3766
g56
(g57
g58
NtRp3767
(dp3768
g61
(dp3769
g69
I3
ssg70
g3763
sg63
(lp3770
g2351
asbasbasbag56
(g72
g58
NtRp3771
(dp3772
g61
(dp3773
sg70
g3746
sg63
(lp3774
g56
(g77
g58
NtRp3775
(dp3776
g61
(dp3777
g81
g82
ssg70
g3771
sg63
(lp3778
S'raregenet'
p3779
asbag56
(g77
g58
NtRp3780
(dp3781
g61
(dp3782
g88
g89
ssg70
g3771
sg63
(lp3783
S':'
asbag56
(g77
g58
NtRp3784
(dp3785
g61
(dp3786
sg70
g3771
sg63
(lp3787
g56
(g57
g58
NtRp3788
(dp3789
g61
(dp3790
g69
I3
ssg70
g3784
sg63
(lp3791
S'None'
p3792
asbasbasbag56
(g72
g58
NtRp3793
(dp3794
g61
(dp3795
sg70
g3746
sg63
(lp3796
g56
(g77
g58
NtRp3797
(dp3798
g61
(dp3799
g81
g82
ssg70
g3793
sg63
(lp3800
S'session_id'
p3801
asbag56
(g77
g58
NtRp3802
(dp3803
g61
(dp3804
g88
g89
ssg70
g3793
sg63
(lp3805
S':'
asbag56
(g77
g58
NtRp3806
(dp3807
g61
(dp3808
sg70
g3793
sg63
(lp3809
g56
(g57
g58
NtRp3810
(dp3811
g61
(dp3812
g69
I3
ssg70
g3806
sg63
(lp3813
S'89.123.2.193-4e1de357-5b7c-4409-92bc-12a58f0742b6'
p3814
asbasbasbasbasbasbasbasbasbasbasbag56
(g72
g58
NtRp3815
(dp3816
g61
(dp3817
sg70
g3696
sg63
(lp3818
g56
(g77
g58
NtRp3819
(dp3820
g61
(dp3821
g81
g82
ssg70
g3815
sg63
(lp3822
S'hashstring'
p3823
asbag56
(g77
g58
NtRp3824
(dp3825
g61
(dp3826
g88
g89
ssg70
g3815
sg63
(lp3827
S':'
asbag56
(g77
g58
NtRp3828
(dp3829
g61
(dp3830
sg70
g3815
sg63
(lp3831
g56
(g57
g58
NtRp3832
(dp3833
g61
(dp3834
g69
I5
ssg70
g3828
sg63
(lp3835
S'718f311c5303efaa5826ea571cd47a33'
p3836
asbasbasbag56
(g72
g58
NtRp3837
(dp3838
g61
(dp3839
sg70
g3696
sg63
(lp3840
g56
(g77
g58
NtRp3841
(dp3842
g61
(dp3843
g81
g82
ssg70
g3837
sg63
(lp3844
S'query'
p3845
asbag56
(g77
g58
NtRp3846
(dp3847
g61
(dp3848
g88
g89
ssg70
g3837
sg63
(lp3849
S':'
asbag56
(g77
g58
NtRp3850
(dp3851
g61
(dp3852
sg70
g3837
sg63
(lp3853
g56
(g57
g58
NtRp3854
(dp3855
g61
(dp3856
g69
I5
ssg70
g3850
sg63
(lp3857
S''
asbasbasbasbasbsS'etype'
p3858
S"<type 'exceptions.KeyError'>"
p3859
sS'date'
p3860
S'Thu Jun 30 17:18:45 2011'
p3861
sS'response'
p3862
g56
(g57
g58
NtRp3863
(dp3864
g61
(dp3865
sg63
(lp3866
g56
(g65
g58
NtRp3867
(dp3868
g61
(dp3869
g69
I5
ssg70
Nsg63
(lp3870
g56
(g72
g58
NtRp3871
(dp3872
g61
(dp3873
sg70
g3867
sg63
(lp3874
g56
(g77
g58
NtRp3875
(dp3876
g61
(dp3877
g81
g82
ssg70
g3871
sg63
(lp3878
g154
asbag56
(g77
g58
NtRp3879
(dp3880
g61
(dp3881
g88
g89
ssg70
g3871
sg63
(lp3882
S':'
asbag56
(g77
g58
NtRp3883
(dp3884
g61
(dp3885
sg70
g3871
sg63
(lp3886
g56
(g57
g58
NtRp3887
(dp3888
g61
(dp3889
g69
I5
ssg70
g3883
sg63
(lp3890
S'<cStringIO.StringO object at 0x2b9be0ad86f8>'
p3891
asbasbasbag56
(g72
g58
NtRp3892
(dp3893
g61
(dp3894
sg70
g3867
sg63
(lp3895
g56
(g77
g58
NtRp3896
(dp3897
g61
(dp3898
g81
g82
ssg70
g3892
sg63
(lp3899
g220
asbag56
(g77
g58
NtRp3900
(dp3901
g61
(dp3902
g88
g89
ssg70
g3892
sg63
(lp3903
S':'
asbag56
(g77
g58
NtRp3904
(dp3905
g61
(dp3906
sg70
g3892
sg63
(lp3907
g56
(g57
g58
NtRp3908
(dp3909
g61
(dp3910
g69
I5
ssg70
g3904
sg63
(lp3911
g56
(g65
g58
NtRp3912
(dp3913
g61
(dp3914
g69
I4
ssg70
Nsg63
(lp3915
g56
(g72
g58
NtRp3916
(dp3917
g61
(dp3918
sg70
g3912
sg63
(lp3919
g56
(g77
g58
NtRp3920
(dp3921
g61
(dp3922
g81
g82
ssg70
g3916
sg63
(lp3923
S'session_id_rdcdss'
p3924
asbag56
(g77
g58
NtRp3925
(dp3926
g61
(dp3927
g88
g89
ssg70
g3916
sg63
(lp3928
S':'
asbag56
(g77
g58
NtRp3929
(dp3930
g61
(dp3931
sg70
g3916
sg63
(lp3932
g56
(g57
g58
NtRp3933
(dp3934
g61
(dp3935
g69
I4
ssg70
g3929
sg63
(lp3936
g56
(g65
g58
NtRp3937
(dp3938
g61
(dp3939
g69
I3
ssg70
Nsg63
(lp3940
g56
(g72
g58
NtRp3941
(dp3942
g61
(dp3943
sg70
g3937
sg63
(lp3944
g56
(g77
g58
NtRp3945
(dp3946
g61
(dp3947
g81
g82
ssg70
g3941
sg63
(lp3948
g270
asbag56
(g77
g58
NtRp3949
(dp3950
g61
(dp3951
g88
g89
ssg70
g3941
sg63
(lp3952
S':'
asbag56
(g77
g58
NtRp3953
(dp3954
g61
(dp3955
sg70
g3941
sg63
(lp3956
g56
(g57
g58
NtRp3957
(dp3958
g61
(dp3959
g69
I3
ssg70
g3953
sg63
(lp3960
S''
asbasbasbag56
(g72
g58
NtRp3961
(dp3962
g61
(dp3963
sg70
g3937
sg63
(lp3964
g56
(g77
g58
NtRp3965
(dp3966
g61
(dp3967
g81
g82
ssg70
g3961
sg63
(lp3968
g291
asbag56
(g77
g58
NtRp3969
(dp3970
g61
(dp3971
g88
g89
ssg70
g3961
sg63
(lp3972
S':'
asbag56
(g77
g58
NtRp3973
(dp3974
g61
(dp3975
sg70
g3961
sg63
(lp3976
g56
(g57
g58
NtRp3977
(dp3978
g61
(dp3979
g69
I3
ssg70
g3973
sg63
(lp3980
S''
asbasbasbag56
(g72
g58
NtRp3981
(dp3982
g61
(dp3983
sg70
g3937
sg63
(lp3984
g56
(g77
g58
NtRp3985
(dp3986
g61
(dp3987
g81
g82
ssg70
g3981
sg63
(lp3988
g312
asbag56
(g77
g58
NtRp3989
(dp3990
g61
(dp3991
g88
g89
ssg70
g3981
sg63
(lp3992
S':'
asbag56
(g77
g58
NtRp3993
(dp3994
g61
(dp3995
sg70
g3981
sg63
(lp3996
g56
(g57
g58
NtRp3997
(dp3998
g61
(dp3999
g69
I3
ssg70
g3993
sg63
(lp4000
S''
asbasbasbag56
(g72
g58
NtRp4001
(dp4002
g61
(dp4003
sg70
g3937
sg63
(lp4004
g56
(g77
g58
NtRp4005
(dp4006
g61
(dp4007
g81
g82
ssg70
g4001
sg63
(lp4008
g333
asbag56
(g77
g58
NtRp4009
(dp4010
g61
(dp4011
g88
g89
ssg70
g4001
sg63
(lp4012
S':'
asbag56
(g77
g58
NtRp4013
(dp4014
g61
(dp4015
sg70
g4001
sg63
(lp4016
g56
(g57
g58
NtRp4017
(dp4018
g61
(dp4019
g69
I3
ssg70
g4013
sg63
(lp4020
S''
asbasbasbag56
(g72
g58
NtRp4021
(dp4022
g61
(dp4023
sg70
g3937
sg63
(lp4024
g56
(g77
g58
NtRp4025
(dp4026
g61
(dp4027
g81
g82
ssg70
g4021
sg63
(lp4028
g354
asbag56
(g77
g58
NtRp4029
(dp4030
g61
(dp4031
g88
g89
ssg70
g4021
sg63
(lp4032
S':'
asbag56
(g77
g58
NtRp4033
(dp4034
g61
(dp4035
sg70
g4021
sg63
(lp4036
g56
(g57
g58
NtRp4037
(dp4038
g61
(dp4039
g69
I3
ssg70
g4033
sg63
(lp4040
S''
asbasbasbag56
(g72
g58
NtRp4041
(dp4042
g61
(dp4043
sg70
g3937
sg63
(lp4044
g56
(g77
g58
NtRp4045
(dp4046
g61
(dp4047
g81
g82
ssg70
g4041
sg63
(lp4048
g375
asbag56
(g77
g58
NtRp4049
(dp4050
g61
(dp4051
g88
g89
ssg70
g4041
sg63
(lp4052
S':'
asbag56
(g77
g58
NtRp4053
(dp4054
g61
(dp4055
sg70
g4041
sg63
(lp4056
g56
(g57
g58
NtRp4057
(dp4058
g61
(dp4059
g69
I3
ssg70
g4053
sg63
(lp4060
S'/'
asbasbasbag56
(g72
g58
NtRp4061
(dp4062
g61
(dp4063
sg70
g3937
sg63
(lp4064
g56
(g77
g58
NtRp4065
(dp4066
g61
(dp4067
g81
g82
ssg70
g4061
sg63
(lp4068
g396
asbag56
(g77
g58
NtRp4069
(dp4070
g61
(dp4071
g88
g89
ssg70
g4061
sg63
(lp4072
S':'
asbag56
(g77
g58
NtRp4073
(dp4074
g61
(dp4075
sg70
g4061
sg63
(lp4076
g56
(g57
g58
NtRp4077
(dp4078
g61
(dp4079
g69
I3
ssg70
g4073
sg63
(lp4080
S''
asbasbasbag56
(g72
g58
NtRp4081
(dp4082
g61
(dp4083
sg70
g3937
sg63
(lp4084
g56
(g77
g58
NtRp4085
(dp4086
g61
(dp4087
g81
g82
ssg70
g4081
sg63
(lp4088
g417
asbag56
(g77
g58
NtRp4089
(dp4090
g61
(dp4091
g88
g89
ssg70
g4081
sg63
(lp4092
S':'
asbag56
(g77
g58
NtRp4093
(dp4094
g61
(dp4095
sg70
g4081
sg63
(lp4096
g56
(g57
g58
NtRp4097
(dp4098
g61
(dp4099
g69
I3
ssg70
g4093
sg63
(lp4100
S''
asbasbasbasbasbasbasbasbasbasbasbag56
(g72
g58
NtRp4101
(dp4102
g61
(dp4103
sg70
g3867
sg63
(lp4104
g56
(g77
g58
NtRp4105
(dp4106
g61
(dp4107
g81
g82
ssg70
g4101
sg63
(lp4108
S'files'
p4109
asbag56
(g77
g58
NtRp4110
(dp4111
g61
(dp4112
g88
g89
ssg70
g4101
sg63
(lp4113
S':'
asbag56
(g77
g58
NtRp4114
(dp4115
g61
(dp4116
sg70
g4101
sg63
(lp4117
g56
(g57
g58
NtRp4118
(dp4119
g61
(dp4120
g69
I5
ssg70
g4114
sg63
(lp4121
g56
(g65
g58
NtRp4122
(dp4123
g61
(dp4124
g69
I4
ssg70
Nsg63
(lp4125
sbasbasbasbag56
(g72
g58
NtRp4126
(dp4127
g61
(dp4128
sg70
g3867
sg63
(lp4129
g56
(g77
g58
NtRp4130
(dp4131
g61
(dp4132
g81
g82
ssg70
g4126
sg63
(lp4133
S'flash'
p4134
asbag56
(g77
g58
NtRp4135
(dp4136
g61
(dp4137
g88
g89
ssg70
g4126
sg63
(lp4138
S':'
asbag56
(g77
g58
NtRp4139
(dp4140
g61
(dp4141
sg70
g4126
sg63
(lp4142
g56
(g57
g58
NtRp4143
(dp4144
g61
(dp4145
g69
I5
ssg70
g4139
sg63
(lp4146
S''
asbasbasbag56
(g72
g58
NtRp4147
(dp4148
g61
(dp4149
sg70
g3867
sg63
(lp4150
g56
(g77
g58
NtRp4151
(dp4152
g61
(dp4153
g81
g82
ssg70
g4147
sg63
(lp4154
S'headers'
p4155
asbag56
(g77
g58
NtRp4156
(dp4157
g61
(dp4158
g88
g89
ssg70
g4147
sg63
(lp4159
S':'
asbag56
(g77
g58
NtRp4160
(dp4161
g61
(dp4162
sg70
g4147
sg63
(lp4163
g56
(g57
g58
NtRp4164
(dp4165
g61
(dp4166
g69
I5
ssg70
g4160
sg63
(lp4167
g56
(g65
g58
NtRp4168
(dp4169
g61
(dp4170
g69
I4
ssg70
Nsg63
(lp4171
g56
(g72
g58
NtRp4172
(dp4173
g61
(dp4174
sg70
g4168
sg63
(lp4175
g56
(g77
g58
NtRp4176
(dp4177
g61
(dp4178
g81
g82
ssg70
g4172
sg63
(lp4179
S'Cache-Control'
p4180
asbag56
(g77
g58
NtRp4181
(dp4182
g61
(dp4183
g88
g89
ssg70
g4172
sg63
(lp4184
S':'
asbag56
(g77
g58
NtRp4185
(dp4186
g61
(dp4187
sg70
g4172
sg63
(lp4188
g56
(g57
g58
NtRp4189
(dp4190
g61
(dp4191
g69
I4
ssg70
g4185
sg63
(lp4192
S'no-store, no-cache, must-revalidate, post-check=0, pre-check=0'
p4193
asbasbasbag56
(g72
g58
NtRp4194
(dp4195
g61
(dp4196
sg70
g4168
sg63
(lp4197
g56
(g77
g58
NtRp4198
(dp4199
g61
(dp4200
g81
g82
ssg70
g4194
sg63
(lp4201
S'Content-Type'
p4202
asbag56
(g77
g58
NtRp4203
(dp4204
g61
(dp4205
g88
g89
ssg70
g4194
sg63
(lp4206
S':'
asbag56
(g77
g58
NtRp4207
(dp4208
g61
(dp4209
sg70
g4194
sg63
(lp4210
g56
(g57
g58
NtRp4211
(dp4212
g61
(dp4213
g69
I4
ssg70
g4207
sg63
(lp4214
S'application/xml'
p4215
asbasbasbag56
(g72
g58
NtRp4216
(dp4217
g61
(dp4218
sg70
g4168
sg63
(lp4219
g56
(g77
g58
NtRp4220
(dp4221
g61
(dp4222
g81
g82
ssg70
g4216
sg63
(lp4223
S'Expires'
p4224
asbag56
(g77
g58
NtRp4225
(dp4226
g61
(dp4227
g88
g89
ssg70
g4216
sg63
(lp4228
S':'
asbag56
(g77
g58
NtRp4229
(dp4230
g61
(dp4231
sg70
g4216
sg63
(lp4232
g56
(g57
g58
NtRp4233
(dp4234
g61
(dp4235
g69
I4
ssg70
g4229
sg63
(lp4236
S'Thu, 30 Jun 2011 13:18:43 GMT'
p4237
asbasbasbag56
(g72
g58
NtRp4238
(dp4239
g61
(dp4240
sg70
g4168
sg63
(lp4241
g56
(g77
g58
NtRp4242
(dp4243
g61
(dp4244
g81
g82
ssg70
g4238
sg63
(lp4245
S'Pragma'
p4246
asbag56
(g77
g58
NtRp4247
(dp4248
g61
(dp4249
g88
g89
ssg70
g4238
sg63
(lp4250
S':'
asbag56
(g77
g58
NtRp4251
(dp4252
g61
(dp4253
sg70
g4238
sg63
(lp4254
g56
(g57
g58
NtRp4255
(dp4256
g61
(dp4257
g69
I4
ssg70
g4251
sg63
(lp4258
S'no-cache'
p4259
asbasbasbasbasbasbasbag56
(g72
g58
NtRp4260
(dp4261
g61
(dp4262
sg70
g3867
sg63
(lp4263
g56
(g77
g58
NtRp4264
(dp4265
g61
(dp4266
g81
g82
ssg70
g4260
sg63
(lp4267
S'menu'
p4268
asbag56
(g77
g58
NtRp4269
(dp4270
g61
(dp4271
g88
g89
ssg70
g4260
sg63
(lp4272
S':'
asbag56
(g77
g58
NtRp4273
(dp4274
g61
(dp4275
sg70
g4260
sg63
(lp4276
g56
(g57
g58
NtRp4277
(dp4278
g61
(dp4279
g69
I5
ssg70
g4273
sg63
(lp4280
g56
(g65
g58
NtRp4281
(dp4282
g61
(dp4283
g69
I4
ssg70
Nsg63
(lp4284
g56
(g72
g58
NtRp4285
(dp4286
g61
(dp4287
sg70
g4281
sg63
(lp4288
g56
(g77
g58
NtRp4289
(dp4290
g61
(dp4291
sg70
g4285
sg63
(lp4292
g56
(g57
g58
NtRp4293
(dp4294
g61
(dp4295
g69
I4
ssg70
g4289
sg63
(lp4296
g56
(g65
g58
NtRp4297
(dp4298
g61
(dp4299
g69
I3
ssg70
Nsg63
(lp4300
g56
(g72
g58
NtRp4301
(dp4302
g61
(dp4303
sg70
g4297
sg63
(lp4304
g56
(g77
g58
NtRp4305
(dp4306
g61
(dp4307
sg70
g4301
sg63
(lp4308
g56
(g57
g58
NtRp4309
(dp4310
g61
(dp4311
g69
I3
ssg70
g4305
sg63
(lp4312
cgluon.languages
lazyT_unpickle
p4313
(S's\x04\x00\x00\x00Home'
tRp4314
asbasbasbag56
(g72
g58
NtRp4315
(dp4316
g61
(dp4317
sg70
g4297
sg63
(lp4318
g56
(g77
g58
NtRp4319
(dp4320
g61
(dp4321
sg70
g4315
sg63
(lp4322
g56
(g57
g58
NtRp4323
(dp4324
g61
(dp4325
g69
I3
ssg70
g4319
sg63
(lp4326
g99
asbasbasbag56
(g72
g58
NtRp4327
(dp4328
g61
(dp4329
sg70
g4297
sg63
(lp4330
g56
(g77
g58
NtRp4331
(dp4332
g61
(dp4333
sg70
g4327
sg63
(lp4334
g56
(g57
g58
NtRp4335
(dp4336
g61
(dp4337
g69
I3
ssg70
g4331
sg63
(lp4338
S'/rdcdss/default/index'
p4339
asbasbasbag56
(g72
g58
NtRp4340
(dp4341
g61
(dp4342
sg70
g4297
sg63
(lp4343
g56
(g77
g58
NtRp4344
(dp4345
g61
(dp4346
sg70
g4340
sg63
(lp4347
g56
(g57
g58
NtRp4348
(dp4349
g61
(dp4350
g69
I3
ssg70
g4344
sg63
(lp4351
g56
(g65
g58
NtRp4352
(dp4353
g61
(dp4354
g69
I2
ssg70
Nsg63
(lp4355
sbasbasbasbasbasbasbasbag56
(g72
g58
NtRp4356
(dp4357
g61
(dp4358
sg70
g4281
sg63
(lp4359
g56
(g77
g58
NtRp4360
(dp4361
g61
(dp4362
sg70
g4356
sg63
(lp4363
g56
(g57
g58
NtRp4364
(dp4365
g61
(dp4366
g69
I4
ssg70
g4360
sg63
(lp4367
g56
(g65
g58
NtRp4368
(dp4369
g61
(dp4370
g69
I3
ssg70
Nsg63
(lp4371
g56
(g72
g58
NtRp4372
(dp4373
g61
(dp4374
sg70
g4368
sg63
(lp4375
g56
(g77
g58
NtRp4376
(dp4377
g61
(dp4378
sg70
g4372
sg63
(lp4379
g56
(g57
g58
NtRp4380
(dp4381
g61
(dp4382
g69
I3
ssg70
g4376
sg63
(lp4383
g4313
(S's\x08\x00\x00\x00This App'
tRp4384
asbasbasbag56
(g72
g58
NtRp4385
(dp4386
g61
(dp4387
sg70
g4368
sg63
(lp4388
g56
(g77
g58
NtRp4389
(dp4390
g61
(dp4391
sg70
g4385
sg63
(lp4392
g56
(g57
g58
NtRp4393
(dp4394
g61
(dp4395
g69
I3
ssg70
g4389
sg63
(lp4396
g99
asbasbasbag56
(g72
g58
NtRp4397
(dp4398
g61
(dp4399
sg70
g4368
sg63
(lp4400
g56
(g77
g58
NtRp4401
(dp4402
g61
(dp4403
sg70
g4397
sg63
(lp4404
g56
(g57
g58
NtRp4405
(dp4406
g61
(dp4407
g69
I3
ssg70
g4401
sg63
(lp4408
S'/admin/default/design/rdcdss'
p4409
asbasbasbag56
(g72
g58
NtRp4410
(dp4411
g61
(dp4412
sg70
g4368
sg63
(lp4413
g56
(g77
g58
NtRp4414
(dp4415
g61
(dp4416
sg70
g4410
sg63
(lp4417
g56
(g57
g58
NtRp4418
(dp4419
g61
(dp4420
g69
I3
ssg70
g4414
sg63
(lp4421
g56
(g65
g58
NtRp4422
(dp4423
g61
(dp4424
g69
I2
ssg70
Nsg63
(lp4425
g56
(g72
g58
NtRp4426
(dp4427
g61
(dp4428
sg70
g4422
sg63
(lp4429
g56
(g77
g58
NtRp4430
(dp4431
g61
(dp4432
sg70
g4426
sg63
(lp4433
g56
(g57
g58
NtRp4434
(dp4435
g61
(dp4436
g69
I2
ssg70
g4430
sg63
(lp4437
g56
(g65
g58
NtRp4438
(dp4439
g61
(dp4440
g69
I1
ssg70
Nsg63
(lp4441
g56
(g72
g58
NtRp4442
(dp4443
g61
(dp4444
sg70
g4438
sg63
(lp4445
g56
(g77
g58
NtRp4446
(dp4447
g61
(dp4448
sg70
g4442
sg63
(lp4449
g56
(g57
g58
NtRp4450
(dp4451
g61
(dp4452
g69
I1
ssg70
g4446
sg63
(lp4453
g4313
(S's\n\x00\x00\x00Controller'
tRp4454
asbasbasbag56
(g72
g58
NtRp4455
(dp4456
g61
(dp4457
sg70
g4438
sg63
(lp4458
g56
(g77
g58
NtRp4459
(dp4460
g61
(dp4461
sg70
g4455
sg63
(lp4462
g56
(g57
g58
NtRp4463
(dp4464
g61
(dp4465
g69
I1
ssg70
g4459
sg63
(lp4466
I00
asbasbasbag56
(g72
g58
NtRp4467
(dp4468
g61
(dp4469
sg70
g4438
sg63
(lp4470
g56
(g77
g58
NtRp4471
(dp4472
g61
(dp4473
sg70
g4467
sg63
(lp4474
g56
(g57
g58
NtRp4475
(dp4476
g61
(dp4477
g69
I1
ssg70
g4471
sg63
(lp4478
S'/admin/default/edit/rdcdss/controllers/default.py'
p4479
asbasbasbasbasbasbasbag56
(g72
g58
NtRp4480
(dp4481
g61
(dp4482
sg70
g4422
sg63
(lp4483
g56
(g77
g58
NtRp4484
(dp4485
g61
(dp4486
sg70
g4480
sg63
(lp4487
g56
(g57
g58
NtRp4488
(dp4489
g61
(dp4490
g69
I2
ssg70
g4484
sg63
(lp4491
g56
(g65
g58
NtRp4492
(dp4493
g61
(dp4494
g69
I1
ssg70
Nsg63
(lp4495
g56
(g72
g58
NtRp4496
(dp4497
g61
(dp4498
sg70
g4492
sg63
(lp4499
g56
(g77
g58
NtRp4500
(dp4501
g61
(dp4502
sg70
g4496
sg63
(lp4503
g56
(g57
g58
NtRp4504
(dp4505
g61
(dp4506
g69
I1
ssg70
g4500
sg63
(lp4507
g4313
(S's\x04\x00\x00\x00View'
tRp4508
asbasbasbag56
(g72
g58
NtRp4509
(dp4510
g61
(dp4511
sg70
g4492
sg63
(lp4512
g56
(g77
g58
NtRp4513
(dp4514
g61
(dp4515
sg70
g4509
sg63
(lp4516
g56
(g57
g58
NtRp4517
(dp4518
g61
(dp4519
g69
I1
ssg70
g4513
sg63
(lp4520
I00
asbasbasbag56
(g72
g58
NtRp4521
(dp4522
g61
(dp4523
sg70
g4492
sg63
(lp4524
g56
(g77
g58
NtRp4525
(dp4526
g61
(dp4527
sg70
g4521
sg63
(lp4528
g56
(g57
g58
NtRp4529
(dp4530
g61
(dp4531
g69
I1
ssg70
g4525
sg63
(lp4532
S'/admin/default/edit/rdcdss/views/default/index.xml'
p4533
asbasbasbasbasbasbasbag56
(g72
g58
NtRp4534
(dp4535
g61
(dp4536
sg70
g4422
sg63
(lp4537
g56
(g77
g58
NtRp4538
(dp4539
g61
(dp4540
sg70
g4534
sg63
(lp4541
g56
(g57
g58
NtRp4542
(dp4543
g61
(dp4544
g69
I2
ssg70
g4538
sg63
(lp4545
g56
(g65
g58
NtRp4546
(dp4547
g61
(dp4548
g69
I1
ssg70
Nsg63
(lp4549
g56
(g72
g58
NtRp4550
(dp4551
g61
(dp4552
sg70
g4546
sg63
(lp4553
g56
(g77
g58
NtRp4554
(dp4555
g61
(dp4556
sg70
g4550
sg63
(lp4557
g56
(g57
g58
NtRp4558
(dp4559
g61
(dp4560
g69
I1
ssg70
g4554
sg63
(lp4561
g4313
(S's\x06\x00\x00\x00Layout'
tRp4562
asbasbasbag56
(g72
g58
NtRp4563
(dp4564
g61
(dp4565
sg70
g4546
sg63
(lp4566
g56
(g77
g58
NtRp4567
(dp4568
g61
(dp4569
sg70
g4563
sg63
(lp4570
g56
(g57
g58
NtRp4571
(dp4572
g61
(dp4573
g69
I1
ssg70
g4567
sg63
(lp4574
I00
asbasbasbag56
(g72
g58
NtRp4575
(dp4576
g61
(dp4577
sg70
g4546
sg63
(lp4578
g56
(g77
g58
NtRp4579
(dp4580
g61
(dp4581
sg70
g4575
sg63
(lp4582
g56
(g57
g58
NtRp4583
(dp4584
g61
(dp4585
g69
I1
ssg70
g4579
sg63
(lp4586
S'/admin/default/edit/rdcdss/views/layout.html'
p4587
asbasbasbasbasbasbasbag56
(g72
g58
NtRp4588
(dp4589
g61
(dp4590
sg70
g4422
sg63
(lp4591
g56
(g77
g58
NtRp4592
(dp4593
g61
(dp4594
sg70
g4588
sg63
(lp4595
g56
(g57
g58
NtRp4596
(dp4597
g61
(dp4598
g69
I2
ssg70
g4592
sg63
(lp4599
g56
(g65
g58
NtRp4600
(dp4601
g61
(dp4602
g69
I1
ssg70
Nsg63
(lp4603
g56
(g72
g58
NtRp4604
(dp4605
g61
(dp4606
sg70
g4600
sg63
(lp4607
g56
(g77
g58
NtRp4608
(dp4609
g61
(dp4610
sg70
g4604
sg63
(lp4611
g56
(g57
g58
NtRp4612
(dp4613
g61
(dp4614
g69
I1
ssg70
g4608
sg63
(lp4615
g4313
(S's\n\x00\x00\x00Stylesheet'
tRp4616
asbasbasbag56
(g72
g58
NtRp4617
(dp4618
g61
(dp4619
sg70
g4600
sg63
(lp4620
g56
(g77
g58
NtRp4621
(dp4622
g61
(dp4623
sg70
g4617
sg63
(lp4624
g56
(g57
g58
NtRp4625
(dp4626
g61
(dp4627
g69
I1
ssg70
g4621
sg63
(lp4628
I00
asbasbasbag56
(g72
g58
NtRp4629
(dp4630
g61
(dp4631
sg70
g4600
sg63
(lp4632
g56
(g77
g58
NtRp4633
(dp4634
g61
(dp4635
sg70
g4629
sg63
(lp4636
g56
(g57
g58
NtRp4637
(dp4638
g61
(dp4639
g69
I1
ssg70
g4633
sg63
(lp4640
S'/admin/default/edit/rdcdss/static/base.css'
p4641
asbasbasbasbasbasbasbag56
(g72
g58
NtRp4642
(dp4643
g61
(dp4644
sg70
g4422
sg63
(lp4645
g56
(g77
g58
NtRp4646
(dp4647
g61
(dp4648
sg70
g4642
sg63
(lp4649
g56
(g57
g58
NtRp4650
(dp4651
g61
(dp4652
g69
I2
ssg70
g4646
sg63
(lp4653
g56
(g65
g58
NtRp4654
(dp4655
g61
(dp4656
g69
I1
ssg70
Nsg63
(lp4657
g56
(g72
g58
NtRp4658
(dp4659
g61
(dp4660
sg70
g4654
sg63
(lp4661
g56
(g77
g58
NtRp4662
(dp4663
g61
(dp4664
sg70
g4658
sg63
(lp4665
g56
(g57
g58
NtRp4666
(dp4667
g61
(dp4668
g69
I1
ssg70
g4662
sg63
(lp4669
g4313
(S's\x08\x00\x00\x00DB Model'
tRp4670
asbasbasbag56
(g72
g58
NtRp4671
(dp4672
g61
(dp4673
sg70
g4654
sg63
(lp4674
g56
(g77
g58
NtRp4675
(dp4676
g61
(dp4677
sg70
g4671
sg63
(lp4678
g56
(g57
g58
NtRp4679
(dp4680
g61
(dp4681
g69
I1
ssg70
g4675
sg63
(lp4682
I00
asbasbasbag56
(g72
g58
NtRp4683
(dp4684
g61
(dp4685
sg70
g4654
sg63
(lp4686
g56
(g77
g58
NtRp4687
(dp4688
g61
(dp4689
sg70
g4683
sg63
(lp4690
g56
(g57
g58
NtRp4691
(dp4692
g61
(dp4693
g69
I1
ssg70
g4687
sg63
(lp4694
S'/admin/default/edit/rdcdss/models/db.py'
p4695
asbasbasbasbasbasbasbag56
(g72
g58
NtRp4696
(dp4697
g61
(dp4698
sg70
g4422
sg63
(lp4699
g56
(g77
g58
NtRp4700
(dp4701
g61
(dp4702
sg70
g4696
sg63
(lp4703
g56
(g57
g58
NtRp4704
(dp4705
g61
(dp4706
g69
I2
ssg70
g4700
sg63
(lp4707
g56
(g65
g58
NtRp4708
(dp4709
g61
(dp4710
g69
I1
ssg70
Nsg63
(lp4711
g56
(g72
g58
NtRp4712
(dp4713
g61
(dp4714
sg70
g4708
sg63
(lp4715
g56
(g77
g58
NtRp4716
(dp4717
g61
(dp4718
sg70
g4712
sg63
(lp4719
g56
(g57
g58
NtRp4720
(dp4721
g61
(dp4722
g69
I1
ssg70
g4716
sg63
(lp4723
g4313
(S's\n\x00\x00\x00Menu Model'
tRp4724
asbasbasbag56
(g72
g58
NtRp4725
(dp4726
g61
(dp4727
sg70
g4708
sg63
(lp4728
g56
(g77
g58
NtRp4729
(dp4730
g61
(dp4731
sg70
g4725
sg63
(lp4732
g56
(g57
g58
NtRp4733
(dp4734
g61
(dp4735
g69
I1
ssg70
g4729
sg63
(lp4736
I00
asbasbasbag56
(g72
g58
NtRp4737
(dp4738
g61
(dp4739
sg70
g4708
sg63
(lp4740
g56
(g77
g58
NtRp4741
(dp4742
g61
(dp4743
sg70
g4737
sg63
(lp4744
g56
(g57
g58
NtRp4745
(dp4746
g61
(dp4747
g69
I1
ssg70
g4741
sg63
(lp4748
S'/admin/default/edit/rdcdss/models/menu.py'
p4749
asbasbasbasbasbasbasbag56
(g72
g58
NtRp4750
(dp4751
g61
(dp4752
sg70
g4422
sg63
(lp4753
g56
(g77
g58
NtRp4754
(dp4755
g61
(dp4756
sg70
g4750
sg63
(lp4757
g56
(g57
g58
NtRp4758
(dp4759
g61
(dp4760
g69
I2
ssg70
g4754
sg63
(lp4761
g56
(g65
g58
NtRp4762
(dp4763
g61
(dp4764
g69
I1
ssg70
Nsg63
(lp4765
g56
(g72
g58
NtRp4766
(dp4767
g61
(dp4768
sg70
g4762
sg63
(lp4769
g56
(g77
g58
NtRp4770
(dp4771
g61
(dp4772
sg70
g4766
sg63
(lp4773
g56
(g57
g58
NtRp4774
(dp4775
g61
(dp4776
g69
I1
ssg70
g4770
sg63
(lp4777
g4313
(S's\x08\x00\x00\x00Database'
tRp4778
asbasbasbag56
(g72
g58
NtRp4779
(dp4780
g61
(dp4781
sg70
g4762
sg63
(lp4782
g56
(g77
g58
NtRp4783
(dp4784
g61
(dp4785
sg70
g4779
sg63
(lp4786
g56
(g57
g58
NtRp4787
(dp4788
g61
(dp4789
g69
I1
ssg70
g4783
sg63
(lp4790
I00
asbasbasbag56
(g72
g58
NtRp4791
(dp4792
g61
(dp4793
sg70
g4762
sg63
(lp4794
g56
(g77
g58
NtRp4795
(dp4796
g61
(dp4797
sg70
g4791
sg63
(lp4798
g56
(g57
g58
NtRp4799
(dp4800
g61
(dp4801
g69
I1
ssg70
g4795
sg63
(lp4802
S'/rdcdss/appadmin/index'
p4803
asbasbasbasbasbasbasbag56
(g72
g58
NtRp4804
(dp4805
g61
(dp4806
sg70
g4422
sg63
(lp4807
g56
(g77
g58
NtRp4808
(dp4809
g61
(dp4810
sg70
g4804
sg63
(lp4811
g56
(g57
g58
NtRp4812
(dp4813
g61
(dp4814
g69
I2
ssg70
g4808
sg63
(lp4815
g56
(g65
g58
NtRp4816
(dp4817
g61
(dp4818
g69
I1
ssg70
Nsg63
(lp4819
g56
(g72
g58
NtRp4820
(dp4821
g61
(dp4822
sg70
g4816
sg63
(lp4823
g56
(g77
g58
NtRp4824
(dp4825
g61
(dp4826
sg70
g4820
sg63
(lp4827
g56
(g57
g58
NtRp4828
(dp4829
g61
(dp4830
g69
I1
ssg70
g4824
sg63
(lp4831
g4313
(S's\x06\x00\x00\x00Errors'
tRp4832
asbasbasbag56
(g72
g58
NtRp4833
(dp4834
g61
(dp4835
sg70
g4816
sg63
(lp4836
g56
(g77
g58
NtRp4837
(dp4838
g61
(dp4839
sg70
g4833
sg63
(lp4840
g56
(g57
g58
NtRp4841
(dp4842
g61
(dp4843
g69
I1
ssg70
g4837
sg63
(lp4844
I00
asbasbasbag56
(g72
g58
NtRp4845
(dp4846
g61
(dp4847
sg70
g4816
sg63
(lp4848
g56
(g77
g58
NtRp4849
(dp4850
g61
(dp4851
sg70
g4845
sg63
(lp4852
g56
(g57
g58
NtRp4853
(dp4854
g61
(dp4855
g69
I1
ssg70
g4849
sg63
(lp4856
S'/admin/default/errors/rdcdss'
p4857
asbasbasbasbasbasbasbag56
(g72
g58
NtRp4858
(dp4859
g61
(dp4860
sg70
g4422
sg63
(lp4861
g56
(g77
g58
NtRp4862
(dp4863
g61
(dp4864
sg70
g4858
sg63
(lp4865
g56
(g57
g58
NtRp4866
(dp4867
g61
(dp4868
g69
I2
ssg70
g4862
sg63
(lp4869
g56
(g65
g58
NtRp4870
(dp4871
g61
(dp4872
g69
I1
ssg70
Nsg63
(lp4873
g56
(g72
g58
NtRp4874
(dp4875
g61
(dp4876
sg70
g4870
sg63
(lp4877
g56
(g77
g58
NtRp4878
(dp4879
g61
(dp4880
sg70
g4874
sg63
(lp4881
g56
(g57
g58
NtRp4882
(dp4883
g61
(dp4884
g69
I1
ssg70
g4878
sg63
(lp4885
g4313
(S's\x05\x00\x00\x00About'
tRp4886
asbasbasbag56
(g72
g58
NtRp4887
(dp4888
g61
(dp4889
sg70
g4870
sg63
(lp4890
g56
(g77
g58
NtRp4891
(dp4892
g61
(dp4893
sg70
g4887
sg63
(lp4894
g56
(g57
g58
NtRp4895
(dp4896
g61
(dp4897
g69
I1
ssg70
g4891
sg63
(lp4898
I00
asbasbasbag56
(g72
g58
NtRp4899
(dp4900
g61
(dp4901
sg70
g4870
sg63
(lp4902
g56
(g77
g58
NtRp4903
(dp4904
g61
(dp4905
sg70
g4899
sg63
(lp4906
g56
(g57
g58
NtRp4907
(dp4908
g61
(dp4909
g69
I1
ssg70
g4903
sg63
(lp4910
S'/admin/default/about/rdcdss'
p4911
asbasbasbasbasbasbasbasbasbasbasbasbasbasbasbag56
(g72
g58
NtRp4912
(dp4913
g61
(dp4914
sg70
g4281
sg63
(lp4915
g56
(g77
g58
NtRp4916
(dp4917
g61
(dp4918
sg70
g4912
sg63
(lp4919
g56
(g57
g58
NtRp4920
(dp4921
g61
(dp4922
g69
I4
ssg70
g4916
sg63
(lp4923
g56
(g65
g58
NtRp4924
(dp4925
g61
(dp4926
g69
I3
ssg70
Nsg63
(lp4927
g56
(g72
g58
NtRp4928
(dp4929
g61
(dp4930
sg70
g4924
sg63
(lp4931
g56
(g77
g58
NtRp4932
(dp4933
g61
(dp4934
sg70
g4928
sg63
(lp4935
g56
(g57
g58
NtRp4936
(dp4937
g61
(dp4938
g69
I3
ssg70
g4932
sg63
(lp4939
g4313
(S's\t\x00\x00\x00Resources'
tRp4940
asbasbasbag56
(g72
g58
NtRp4941
(dp4942
g61
(dp4943
sg70
g4924
sg63
(lp4944
g56
(g77
g58
NtRp4945
(dp4946
g61
(dp4947
sg70
g4941
sg63
(lp4948
g56
(g57
g58
NtRp4949
(dp4950
g61
(dp4951
g69
I3
ssg70
g4945
sg63
(lp4952
g99
asbasbasbag56
(g72
g58
NtRp4953
(dp4954
g61
(dp4955
sg70
g4924
sg63
(lp4956
g56
(g77
g58
NtRp4957
(dp4958
g61
(dp4959
sg70
g4953
sg63
(lp4960
g56
(g57
g58
NtRp4961
(dp4962
g61
(dp4963
g69
I3
ssg70
g4957
sg63
(lp4964
S'None'
p4965
asbasbasbag56
(g72
g58
NtRp4966
(dp4967
g61
(dp4968
sg70
g4924
sg63
(lp4969
g56
(g77
g58
NtRp4970
(dp4971
g61
(dp4972
sg70
g4966
sg63
(lp4973
g56
(g57
g58
NtRp4974
(dp4975
g61
(dp4976
g69
I3
ssg70
g4970
sg63
(lp4977
g56
(g65
g58
NtRp4978
(dp4979
g61
(dp4980
g69
I2
ssg70
Nsg63
(lp4981
g56
(g72
g58
NtRp4982
(dp4983
g61
(dp4984
sg70
g4978
sg63
(lp4985
g56
(g77
g58
NtRp4986
(dp4987
g61
(dp4988
sg70
g4982
sg63
(lp4989
g56
(g57
g58
NtRp4990
(dp4991
g61
(dp4992
g69
I2
ssg70
g4986
sg63
(lp4993
g56
(g65
g58
NtRp4994
(dp4995
g61
(dp4996
g69
I1
ssg70
Nsg63
(lp4997
g56
(g72
g58
NtRp4998
(dp4999
g61
(dp5000
sg70
g4994
sg63
(lp5001
g56
(g77
g58
NtRp5002
(dp5003
g61
(dp5004
sg70
g4998
sg63
(lp5005
g56
(g57
g58
NtRp5006
(dp5007
g61
(dp5008
g69
I1
ssg70
g5002
sg63
(lp5009
g4313
(S's\r\x00\x00\x00Documentation'
tRp5010
asbasbasbag56
(g72
g58
NtRp5011
(dp5012
g61
(dp5013
sg70
g4994
sg63
(lp5014
g56
(g77
g58
NtRp5015
(dp5016
g61
(dp5017
sg70
g5011
sg63
(lp5018
g56
(g57
g58
NtRp5019
(dp5020
g61
(dp5021
g69
I1
ssg70
g5015
sg63
(lp5022
I00
asbasbasbag56
(g72
g58
NtRp5023
(dp5024
g61
(dp5025
sg70
g4994
sg63
(lp5026
g56
(g77
g58
NtRp5027
(dp5028
g61
(dp5029
sg70
g5023
sg63
(lp5030
g56
(g57
g58
NtRp5031
(dp5032
g61
(dp5033
g69
I1
ssg70
g5027
sg63
(lp5034
S'http://www.web2py.com/book'
p5035
asbasbasbag56
(g72
g58
NtRp5036
(dp5037
g61
(dp5038
sg70
g4994
sg63
(lp5039
g56
(g77
g58
NtRp5040
(dp5041
g61
(dp5042
sg70
g5036
sg63
(lp5043
g56
(g57
g58
NtRp5044
(dp5045
g61
(dp5046
g69
I1
ssg70
g5040
sg63
(lp5047
(lp5048
(g4313
(S's\x07\x00\x00\x00Preface'
tRp5049
I00
S'http://www.web2py.com/book/default/chapter/00'
tp5050
a(g4313
(S's\x0c\x00\x00\x00Introduction'
tRp5051
I00
S'http://www.web2py.com/book/default/chapter/01'
tp5052
a(g4313
(S's\x06\x00\x00\x00Python'
tRp5053
I00
S'http://www.web2py.com/book/default/chapter/02'
tp5054
a(g4313
(S's\x08\x00\x00\x00Overview'
tRp5055
I00
S'http://www.web2py.com/book/default/chapter/03'
tp5056
a(g4313
(S's\x08\x00\x00\x00The Core'
tRp5057
I00
S'http://www.web2py.com/book/default/chapter/04'
tp5058
a(g4313
(S's\t\x00\x00\x00The Views'
tRp5059
I00
S'http://www.web2py.com/book/default/chapter/05'
tp5060
a(g4313
(S's\x08\x00\x00\x00Database'
tRp5061
I00
S'http://www.web2py.com/book/default/chapter/06'
tp5062
a(g4313
(S's\x14\x00\x00\x00Forms and Validators'
tRp5063
I00
S'http://www.web2py.com/book/default/chapter/07'
tp5064
a(g4313
(S's\x0e\x00\x00\x00Access Control'
tRp5065
I00
S'http://www.web2py.com/book/default/chapter/08'
tp5066
a(g4313
(S's\x08\x00\x00\x00Services'
tRp5067
I00
S'http://www.web2py.com/book/default/chapter/09'
tp5068
a(g4313
(S's\x0c\x00\x00\x00Ajax Recipes'
tRp5069
I00
S'http://www.web2py.com/book/default/chapter/10'
tp5070
a(g4313
(S's\x12\x00\x00\x00Deployment Recipes'
tRp5071
I00
S'http://www.web2py.com/book/default/chapter/11'
tp5072
a(g4313
(S's\r\x00\x00\x00Other Recipes'
tRp5073
I00
S'http://www.web2py.com/book/default/chapter/12'
tp5074
a(g4313
(S's\r\x00\x00\x00Buy this book'
tRp5075
I00
S'http://stores.lulu.com/web2py'
tp5076
aasbasbasbasbasbasbasbag56
(g72
g58
NtRp5077
(dp5078
g61
(dp5079
sg70
g4978
sg63
(lp5080
g56
(g77
g58
NtRp5081
(dp5082
g61
(dp5083
sg70
g5077
sg63
(lp5084
g56
(g57
g58
NtRp5085
(dp5086
g61
(dp5087
g69
I2
ssg70
g5081
sg63
(lp5088
g56
(g65
g58
NtRp5089
(dp5090
g61
(dp5091
g69
I1
ssg70
Nsg63
(lp5092
g56
(g72
g58
NtRp5093
(dp5094
g61
(dp5095
sg70
g5089
sg63
(lp5096
g56
(g77
g58
NtRp5097
(dp5098
g61
(dp5099
sg70
g5093
sg63
(lp5100
g56
(g57
g58
NtRp5101
(dp5102
g61
(dp5103
g69
I1
ssg70
g5097
sg63
(lp5104
g4313
(S's\t\x00\x00\x00Community'
tRp5105
asbasbasbag56
(g72
g58
NtRp5106
(dp5107
g61
(dp5108
sg70
g5089
sg63
(lp5109
g56
(g77
g58
NtRp5110
(dp5111
g61
(dp5112
sg70
g5106
sg63
(lp5113
g56
(g57
g58
NtRp5114
(dp5115
g61
(dp5116
g69
I1
ssg70
g5110
sg63
(lp5117
I00
asbasbasbag56
(g72
g58
NtRp5118
(dp5119
g61
(dp5120
sg70
g5089
sg63
(lp5121
g56
(g77
g58
NtRp5122
(dp5123
g61
(dp5124
sg70
g5118
sg63
(lp5125
g56
(g57
g58
NtRp5126
(dp5127
g61
(dp5128
g69
I1
ssg70
g5122
sg63
(lp5129
Nasbasbasbag56
(g72
g58
NtRp5130
(dp5131
g61
(dp5132
sg70
g5089
sg63
(lp5133
g56
(g77
g58
NtRp5134
(dp5135
g61
(dp5136
sg70
g5130
sg63
(lp5137
g56
(g57
g58
NtRp5138
(dp5139
g61
(dp5140
g69
I1
ssg70
g5134
sg63
(lp5141
(lp5142
(g4313
(S's\x06\x00\x00\x00Groups'
tRp5143
I00
S'http://www.web2py.com/examples/default/usergroups'
tp5144
a(g4313
(S's\x07\x00\x00\x00Twitter'
tRp5145
I00
S'http://twitter.com/web2py'
tp5146
a(g4313
(S's\t\x00\x00\x00Live chat'
tRp5147
I00
S'http://mibbit.com/?channel=%23web2py&server=irc.mibbit.net'
tp5148
a(g4313
(S's\n\x00\x00\x00User Voice'
tRp5149
I00
S'http://web2py.uservoice.com/'
tp5150
aasbasbasbasbasbasbasbag56
(g72
g58
NtRp5151
(dp5152
g61
(dp5153
sg70
g4978
sg63
(lp5154
g56
(g77
g58
NtRp5155
(dp5156
g61
(dp5157
sg70
g5151
sg63
(lp5158
g56
(g57
g58
NtRp5159
(dp5160
g61
(dp5161
g69
I2
ssg70
g5155
sg63
(lp5162
g56
(g65
g58
NtRp5163
(dp5164
g61
(dp5165
g69
I1
ssg70
Nsg63
(lp5166
g56
(g72
g58
NtRp5167
(dp5168
g61
(dp5169
sg70
g5163
sg63
(lp5170
g56
(g77
g58
NtRp5171
(dp5172
g61
(dp5173
sg70
g5167
sg63
(lp5174
g56
(g57
g58
NtRp5175
(dp5176
g61
(dp5177
g69
I1
ssg70
g5171
sg63
(lp5178
g4313
(S's\x06\x00\x00\x00Web2py'
tRp5179
asbasbasbag56
(g72
g58
NtRp5180
(dp5181
g61
(dp5182
sg70
g5163
sg63
(lp5183
g56
(g77
g58
NtRp5184
(dp5185
g61
(dp5186
sg70
g5180
sg63
(lp5187
g56
(g57
g58
NtRp5188
(dp5189
g61
(dp5190
g69
I1
ssg70
g5184
sg63
(lp5191
I00
asbasbasbag56
(g72
g58
NtRp5192
(dp5193
g61
(dp5194
sg70
g5163
sg63
(lp5195
g56
(g77
g58
NtRp5196
(dp5197
g61
(dp5198
sg70
g5192
sg63
(lp5199
g56
(g57
g58
NtRp5200
(dp5201
g61
(dp5202
g69
I1
ssg70
g5196
sg63
(lp5203
S'http://www.web2py.com'
p5204
asbasbasbag56
(g72
g58
NtRp5205
(dp5206
g61
(dp5207
sg70
g5163
sg63
(lp5208
g56
(g77
g58
NtRp5209
(dp5210
g61
(dp5211
sg70
g5205
sg63
(lp5212
g56
(g57
g58
NtRp5213
(dp5214
g61
(dp5215
g69
I1
ssg70
g5209
sg63
(lp5216
(lp5217
(g4313
(S's\x08\x00\x00\x00Download'
tRp5218
I00
S'http://www.web2py.com/examples/default/download'
tp5219
a(g4313
(S's\x07\x00\x00\x00Support'
tRp5220
I00
S'http://www.web2py.com/examples/default/support'
tp5221
a(g4313
(S's\x0e\x00\x00\x00Quick Examples'
tRp5222
I00
S'http://web2py.com/examples/default/examples'
tp5223
a(g4313
(S's\x03\x00\x00\x00FAQ'
tRp5224
I00
S'http://web2py.com/AlterEgo'
tp5225
a(g4313
(S's\x11\x00\x00\x00Free Applications'
tRp5226
I00
S'http://web2py.com/appliances'
tp5227
a(g4313
(S's\x07\x00\x00\x00Plugins'
tRp5228
I00
S'http://web2py.com/plugins'
tp5229
a(g4313
(S's\x07\x00\x00\x00Recipes'
tRp5230
I00
S'http://web2pyslices.com/'
tp5231
a(g4313
(S's\x04\x00\x00\x00Demo'
tRp5232
I00
S'http://web2py.com/demo_admin'
tp5233
a(g4313
(S's\x08\x00\x00\x00Semantic'
tRp5234
I00
S'http://web2py.com/semantic'
tp5235
a(g4313
(S's\x07\x00\x00\x00Layouts'
tRp5236
I00
S'http://web2py.com/layouts'
tp5237
a(g4313
(S's\x06\x00\x00\x00Videos'
tRp5238
I00
S'http://www.web2py.com/examples/default/videos/'
tp5239
aasbasbasbasbasbasbasbasbasbasbasbasbasbasbasbasbasbasbasbag56
(g72
g58
NtRp5240
(dp5241
g61
(dp5242
sg70
g3867
sg63
(lp5243
g56
(g77
g58
NtRp5244
(dp5245
g61
(dp5246
g81
g82
ssg70
g5240
sg63
(lp5247
S'meta'
p5248
asbag56
(g77
g58
NtRp5249
(dp5250
g61
(dp5251
g88
g89
ssg70
g5240
sg63
(lp5252
S':'
asbag56
(g77
g58
NtRp5253
(dp5254
g61
(dp5255
sg70
g5240
sg63
(lp5256
g56
(g57
g58
NtRp5257
(dp5258
g61
(dp5259
g69
I5
ssg70
g5253
sg63
(lp5260
g56
(g65
g58
NtRp5261
(dp5262
g61
(dp5263
g69
I4
ssg70
Nsg63
(lp5264
g56
(g72
g58
NtRp5265
(dp5266
g61
(dp5267
sg70
g5261
sg63
(lp5268
g56
(g77
g58
NtRp5269
(dp5270
g61
(dp5271
g81
g82
ssg70
g5265
sg63
(lp5272
S'author'
p5273
asbag56
(g77
g58
NtRp5274
(dp5275
g61
(dp5276
g88
g89
ssg70
g5265
sg63
(lp5277
S':'
asbag56
(g77
g58
NtRp5278
(dp5279
g61
(dp5280
sg70
g5265
sg63
(lp5281
g56
(g57
g58
NtRp5282
(dp5283
g61
(dp5284
g69
I4
ssg70
g5278
sg63
(lp5285
S'you'
p5286
asbasbasbag56
(g72
g58
NtRp5287
(dp5288
g61
(dp5289
sg70
g5261
sg63
(lp5290
g56
(g77
g58
NtRp5291
(dp5292
g61
(dp5293
g81
g82
ssg70
g5287
sg63
(lp5294
S'copyright'
p5295
asbag56
(g77
g58
NtRp5296
(dp5297
g61
(dp5298
g88
g89
ssg70
g5287
sg63
(lp5299
S':'
asbag56
(g77
g58
NtRp5300
(dp5301
g61
(dp5302
sg70
g5287
sg63
(lp5303
g56
(g57
g58
NtRp5304
(dp5305
g61
(dp5306
g69
I4
ssg70
g5300
sg63
(lp5307
S'Copyright 2007-2010'
p5308
asbasbasbag56
(g72
g58
NtRp5309
(dp5310
g61
(dp5311
sg70
g5261
sg63
(lp5312
g56
(g77
g58
NtRp5313
(dp5314
g61
(dp5315
g81
g82
ssg70
g5309
sg63
(lp5316
S'description'
p5317
asbag56
(g77
g58
NtRp5318
(dp5319
g61
(dp5320
g88
g89
ssg70
g5309
sg63
(lp5321
S':'
asbag56
(g77
g58
NtRp5322
(dp5323
g61
(dp5324
sg70
g5309
sg63
(lp5325
g56
(g57
g58
NtRp5326
(dp5327
g61
(dp5328
g69
I4
ssg70
g5322
sg63
(lp5329
S'Free and open source full-stack enterprise framework for agile development of fast, scalable, secure and portable database-driven web-based applications. Written and programmable in Python'
p5330
asbasbasbag56
(g72
g58
NtRp5331
(dp5332
g61
(dp5333
sg70
g5261
sg63
(lp5334
g56
(g77
g58
NtRp5335
(dp5336
g61
(dp5337
g81
g82
ssg70
g5331
sg63
(lp5338
S'generator'
p5339
asbag56
(g77
g58
NtRp5340
(dp5341
g61
(dp5342
g88
g89
ssg70
g5331
sg63
(lp5343
S':'
asbag56
(g77
g58
NtRp5344
(dp5345
g61
(dp5346
sg70
g5331
sg63
(lp5347
g56
(g57
g58
NtRp5348
(dp5349
g61
(dp5350
g69
I4
ssg70
g5344
sg63
(lp5351
S'Web2py Enterprise Framework'
p5352
asbasbasbag56
(g72
g58
NtRp5353
(dp5354
g61
(dp5355
sg70
g5261
sg63
(lp5356
g56
(g77
g58
NtRp5357
(dp5358
g61
(dp5359
g81
g82
ssg70
g5353
sg63
(lp5360
S'keywords'
p5361
asbag56
(g77
g58
NtRp5362
(dp5363
g61
(dp5364
g88
g89
ssg70
g5353
sg63
(lp5365
S':'
asbag56
(g77
g58
NtRp5366
(dp5367
g61
(dp5368
sg70
g5353
sg63
(lp5369
g56
(g57
g58
NtRp5370
(dp5371
g61
(dp5372
g69
I4
ssg70
g5366
sg63
(lp5373
S'web2py, python, framework'
p5374
asbasbasbasbasbasbasbag56
(g72
g58
NtRp5375
(dp5376
g61
(dp5377
sg70
g3867
sg63
(lp5378
g56
(g77
g58
NtRp5379
(dp5380
g61
(dp5381
g81
g82
ssg70
g5375
sg63
(lp5382
S'postprocessing'
p5383
asbag56
(g77
g58
NtRp5384
(dp5385
g61
(dp5386
g88
g89
ssg70
g5375
sg63
(lp5387
S':'
asbag56
(g77
g58
NtRp5388
(dp5389
g61
(dp5390
sg70
g5375
sg63
(lp5391
g56
(g57
g58
NtRp5392
(dp5393
g61
(dp5394
g69
I5
ssg70
g5388
sg63
(lp5395
g56
(g65
g58
NtRp5396
(dp5397
g61
(dp5398
g69
I4
ssg70
Nsg63
(lp5399
sbasbasbasbag56
(g72
g58
NtRp5400
(dp5401
g61
(dp5402
sg70
g3867
sg63
(lp5403
g56
(g77
g58
NtRp5404
(dp5405
g61
(dp5406
g81
g82
ssg70
g5400
sg63
(lp5407
S'session_file'
p5408
asbag56
(g77
g58
NtRp5409
(dp5410
g61
(dp5411
g88
g89
ssg70
g5400
sg63
(lp5412
S':'
asbag56
(g77
g58
NtRp5413
(dp5414
g61
(dp5415
sg70
g5400
sg63
(lp5416
g56
(g57
g58
NtRp5417
(dp5418
g61
(dp5419
g69
I5
ssg70
g5413
sg63
(lp5420
S"<open file '/home/www-data/web2py/applications/rdcdss/sessions/89.123.2.193-4e1de357-5b7c-4409-92bc-12a58f0742b6', mode 'rb+' at 0x2b9bdb72c420>"
p5421
asbasbasbag56
(g72
g58
NtRp5422
(dp5423
g61
(dp5424
sg70
g3867
sg63
(lp5425
g56
(g77
g58
NtRp5426
(dp5427
g61
(dp5428
g81
g82
ssg70
g5422
sg63
(lp5429
S'session_filename'
p5430
asbag56
(g77
g58
NtRp5431
(dp5432
g61
(dp5433
g88
g89
ssg70
g5422
sg63
(lp5434
S':'
asbag56
(g77
g58
NtRp5435
(dp5436
g61
(dp5437
sg70
g5422
sg63
(lp5438
g56
(g57
g58
NtRp5439
(dp5440
g61
(dp5441
g69
I5
ssg70
g5435
sg63
(lp5442
S'/home/www-data/web2py/applications/rdcdss/sessions/89.123.2.193-4e1de357-5b7c-4409-92bc-12a58f0742b6'
p5443
asbasbasbag56
(g72
g58
NtRp5444
(dp5445
g61
(dp5446
sg70
g3867
sg63
(lp5447
g56
(g77
g58
NtRp5448
(dp5449
g61
(dp5450
g81
g82
ssg70
g5444
sg63
(lp5451
g3801
asbag56
(g77
g58
NtRp5452
(dp5453
g61
(dp5454
g88
g89
ssg70
g5444
sg63
(lp5455
S':'
asbag56
(g77
g58
NtRp5456
(dp5457
g61
(dp5458
sg70
g5444
sg63
(lp5459
g56
(g57
g58
NtRp5460
(dp5461
g61
(dp5462
g69
I5
ssg70
g5456
sg63
(lp5463
g3814
asbasbasbag56
(g72
g58
NtRp5464
(dp5465
g61
(dp5466
sg70
g3867
sg63
(lp5467
g56
(g77
g58
NtRp5468
(dp5469
g61
(dp5470
g81
g82
ssg70
g5464
sg63
(lp5471
S'session_id_name'
p5472
asbag56
(g77
g58
NtRp5473
(dp5474
g61
(dp5475
g88
g89
ssg70
g5464
sg63
(lp5476
S':'
asbag56
(g77
g58
NtRp5477
(dp5478
g61
(dp5479
sg70
g5464
sg63
(lp5480
g56
(g57
g58
NtRp5481
(dp5482
g61
(dp5483
g69
I5
ssg70
g5477
sg63
(lp5484
g3924
asbasbasbag56
(g72
g58
NtRp5485
(dp5486
g61
(dp5487
sg70
g3867
sg63
(lp5488
g56
(g77
g58
NtRp5489
(dp5490
g61
(dp5491
g81
g82
ssg70
g5485
sg63
(lp5492
S'session_locked'
p5493
asbag56
(g77
g58
NtRp5494
(dp5495
g61
(dp5496
g88
g89
ssg70
g5485
sg63
(lp5497
S':'
asbag56
(g77
g58
NtRp5498
(dp5499
g61
(dp5500
sg70
g5485
sg63
(lp5501
g56
(g57
g58
NtRp5502
(dp5503
g61
(dp5504
g69
I5
ssg70
g5498
sg63
(lp5505
g2147
asbasbasbag56
(g72
g58
NtRp5506
(dp5507
g61
(dp5508
sg70
g3867
sg63
(lp5509
g56
(g77
g58
NtRp5510
(dp5511
g61
(dp5512
g81
g82
ssg70
g5506
sg63
(lp5513
S'session_new'
p5514
asbag56
(g77
g58
NtRp5515
(dp5516
g61
(dp5517
g88
g89
ssg70
g5506
sg63
(lp5518
S':'
asbag56
(g77
g58
NtRp5519
(dp5520
g61
(dp5521
sg70
g5506
sg63
(lp5522
g56
(g57
g58
NtRp5523
(dp5524
g61
(dp5525
g69
I5
ssg70
g5519
sg63
(lp5526
g99
asbasbasbag56
(g72
g58
NtRp5527
(dp5528
g61
(dp5529
sg70
g3867
sg63
(lp5530
g56
(g77
g58
NtRp5531
(dp5532
g61
(dp5533
g81
g82
ssg70
g5527
sg63
(lp5534
S'status'
p5535
asbag56
(g77
g58
NtRp5536
(dp5537
g61
(dp5538
g88
g89
ssg70
g5527
sg63
(lp5539
S':'
asbag56
(g77
g58
NtRp5540
(dp5541
g61
(dp5542
sg70
g5527
sg63
(lp5543
g56
(g57
g58
NtRp5544
(dp5545
g61
(dp5546
g69
I5
ssg70
g5540
sg63
(lp5547
S'200'
p5548
asbasbasbag56
(g72
g58
NtRp5549
(dp5550
g61
(dp5551
sg70
g3867
sg63
(lp5552
g56
(g77
g58
NtRp5553
(dp5554
g61
(dp5555
g81
g82
ssg70
g5549
sg63
(lp5556
S'subtitle'
p5557
asbag56
(g77
g58
NtRp5558
(dp5559
g61
(dp5560
g88
g89
ssg70
g5549
sg63
(lp5561
S':'
asbag56
(g77
g58
NtRp5562
(dp5563
g61
(dp5564
sg70
g5549
sg63
(lp5565
g56
(g57
g58
NtRp5566
(dp5567
g61
(dp5568
g69
I5
ssg70
g5562
sg63
(lp5569
g4313
(S's\r\x00\x00\x00customize me!'
tRp5570
asbasbasbag56
(g72
g58
NtRp5571
(dp5572
g61
(dp5573
sg70
g3867
sg63
(lp5574
g56
(g77
g58
NtRp5575
(dp5576
g61
(dp5577
g81
g82
ssg70
g5571
sg63
(lp5578
S'title'
p5579
asbag56
(g77
g58
NtRp5580
(dp5581
g61
(dp5582
g88
g89
ssg70
g5571
sg63
(lp5583
S':'
asbag56
(g77
g58
NtRp5584
(dp5585
g61
(dp5586
sg70
g5571
sg63
(lp5587
g56
(g57
g58
NtRp5588
(dp5589
g61
(dp5590
g69
I5
ssg70
g5584
sg63
(lp5591
g121
asbasbasbag56
(g72
g58
NtRp5592
(dp5593
g61
(dp5594
sg70
g3867
sg63
(lp5595
g56
(g77
g58
NtRp5596
(dp5597
g61
(dp5598
g81
g82
ssg70
g5592
sg63
(lp5599
g2471
asbag56
(g77
g58
NtRp5600
(dp5601
g61
(dp5602
g88
g89
ssg70
g5592
sg63
(lp5603
S':'
asbag56
(g77
g58
NtRp5604
(dp5605
g61
(dp5606
sg70
g5592
sg63
(lp5607
g56
(g57
g58
NtRp5608
(dp5609
g61
(dp5610
g69
I5
ssg70
g5604
sg63
(lp5611
g2484
asbasbasbag56
(g72
g58
NtRp5612
(dp5613
g61
(dp5614
sg70
g3867
sg63
(lp5615
g56
(g77
g58
NtRp5616
(dp5617
g61
(dp5618
g81
g82
ssg70
g5612
sg63
(lp5619
S'view'
p5620
asbag56
(g77
g58
NtRp5621
(dp5622
g61
(dp5623
g88
g89
ssg70
g5612
sg63
(lp5624
S':'
asbag56
(g77
g58
NtRp5625
(dp5626
g61
(dp5627
sg70
g5612
sg63
(lp5628
g56
(g57
g58
NtRp5629
(dp5630
g61
(dp5631
g69
I5
ssg70
g5625
sg63
(lp5632
S'default/index.xml'
p5633
asbasbasbasbasbsS'locals'
p5634
(dp5635
S'distable'
p5636
S"''"
p5637
sS'RUNQUERYPATH'
p5638
S"'../master/code/runQuery/'"
p5639
sS'rows'
p5640
S'[]'
p5641
sS'checked'
p5642
S'None'
p5643
sS'diseases'
p5644
S"'CHECKED'"
p5645
sS'hashstring'
p5646
S"'02431b13a0f7b058917120cc02498e6f'"
p5647
sS't0'
p5648
S'87.140000000000001'
p5649
sS'timer'
p5650
S"''"
p5651
sS'table'
p5652
S"''"
p5653
sS'collection'
p5654
S"''"
p5655
sg3758
S"'anemia, low red blood cells count, infection'"
p5656
sS'logfile'
p5657
S"<open file 'logs/89.123.2.193-4e1de357-5b7c-4409-92bc-12a58f0742b6', mode 'a'>"
p5658
sS'reranking'
p5659
S"''"
p5660
sS'row'
p5661
S"<Row {'f_title': 'Sickle Cell Anemia', 'f_url': ... <lambda> at 0x2b9bdb81b050>, 'f_docno': '5451'}>"
p5662
sssS'traceback'
p5663
S'Traceback (most recent call last):\n  File "/home/www-data/web2py/gluon/restricted.py", line 181, in restricted\n    exec ccode in environment\n  File "/home/www-data/web2py/applications/rdcdss/controllers/default.py", line 238, in <module>\n  File "/home/www-data/web2py/gluon/globals.py", line 133, in <lambda>\n    self._caller = lambda f: f()\n  File "/home/www-data/web2py/applications/rdcdss/controllers/default.py", line 56, in index\n    session.data["document"]["results"]={"result_"+row.f_rank:{"title":row.f_title,"url":row.f_url,"snippet":row.f_snippet}}\nKeyError: \'document\'\n'
p5664
s.