(dp1
S'f_title'
p2
S'CHAR(512)'
p3
sS'f_url'
p4
S'CHAR(512)'
p5
sS'current_record'
p6
S'INTEGER REFERENCES t_result(id) ON DELETE CASCADE'
p7
sS'f_score'
p8
S'CHAR(512)'
p9
sS'f_rank'
p10
S'CHAR(512)'
p11
sS'created_on'
p12
S'TIMESTAMP'
p13
sS'modified_on'
p14
S'TIMESTAMP'
p15
sS'f_text'
p16
S'CHAR(512)'
p17
sS'active'
p18
S'CHAR(1)'
p19
sS'id'
p20
S'INTEGER PRIMARY KEY AUTOINCREMENT'
p21
sS'f_docno'
p22
S'CHAR(512)'
p23
s.